EXPORTS
 "_Z21execute_fitfc_job_cppN4Rcpp6VectorILi16ENS_15PreserveStorageEEES2_NS0_ILi13ES1_EES3_S2_S3_iiibbbdRKNSt7__cxx1112basic_stringIcSt11char_traitsIcESaIcEEESB_SB_SB_"
 "_Z22execute_spstfm_job_cppN4Rcpp6VectorILi16ENS_15PreserveStorageEEES2_NS0_ILi13ES1_EES3_S2_S3_iiiiiiiiibbbbRKNSt7__cxx1112basic_stringIcSt11char_traitsIcESaIcEEESB_SB_SB_SB_SB_SB_"
 "_Z22execute_starfm_job_cppN4Rcpp6VectorILi16ENS_15PreserveStorageEEES2_NS0_ILi13ES1_EES3_S2_S3_iiiibbbbbbbddddRKNSt7__cxx1112basic_stringIcSt11char_traitsIcESaIcEEESB_SB_SB_"
 "_Z23execute_estarfm_job_cppN4Rcpp6VectorILi16ENS_15PreserveStorageEEES2_NS0_ILi13ES1_EES3_S2_S3_iiiibbbbbddddRKNSt7__cxx1112basic_stringIcSt11char_traitsIcESaIcEEESB_SB_SB_"
 "_ZGVN4arma5DatumIdE3infE"
 "_ZGVN4arma5DatumIdE3nanE"
 "_ZGVN4arma5DatumIiE3infE"
 "_ZGVN4arma5DatumIiE3nanE"
 "_ZGVN4arma5DatumIjE3infE"
 "_ZGVN4arma5DatumIjE3nanE"
 "_ZGVN4arma5DatumIxE3nanE"
 "_ZGVN5boost16exception_detail37exception_ptr_static_exception_objectINS0_10bad_alloc_EE1eE"
 "_ZGVN5boost16exception_detail37exception_ptr_static_exception_objectINS0_14bad_exception_EE1eE"
 "_ZGVN5boost4math6detail17log1p_initializerIeNS0_8policies6policyINS3_13promote_floatILb0EEENS3_14promote_doubleILb0EEENS3_14default_policyES9_S9_S9_S9_S9_S9_S9_S9_S9_S9_EEN4mpl_4int_ILi64EEEE11initializerE"
 "_ZGVN5boost4math7lanczos19lanczos_initializerINS1_12lanczos17m64EeE11initializerE"
 "_ZGVN7cvflann7anyimpl12SinglePolicyINS0_9empty_anyEE6policyE"
 "_ZGVN7cvflann7anyimpl12SinglePolicyINS_17flann_algorithm_tEE6policyE"
 "_ZGVN7cvflann7anyimpl12SinglePolicyINS_20flann_centers_init_tEE6policyE"
 "_ZGVN7cvflann7anyimpl12SinglePolicyINSt7__cxx1112basic_stringIcSt11char_traitsIcESaIcEEEE6policyE"
 "_ZGVN7cvflann7anyimpl12SinglePolicyIPKcE6policyE"
 "_ZGVN7cvflann7anyimpl12SinglePolicyIbE6policyE"
 "_ZGVN7cvflann7anyimpl12SinglePolicyIfE6policyE"
 "_ZGVN7cvflann7anyimpl12SinglePolicyIiE6policyE"
 "_ZGVN7cvflann7anyimpl12SinglePolicyIjE6policyE"
 "_ZGVZ19char_get_string_eltP7SEXPRECxE3fun"
 "_ZGVZ7dataptrP7SEXPRECE3fun"
 "_ZGVZN5boost16exception_detail27get_static_exception_objectINS0_10bad_alloc_EEENS_13exception_ptrEvE2ep"
 "_ZGVZN5boost16exception_detail27get_static_exception_objectINS0_14bad_exception_EEENS_13exception_ptrEvE2ep"
 "_ZGVZN5boost4math6detail9log1p_impIeNS0_8policies6policyINS3_13promote_floatILb0EEENS3_14promote_doubleILb0EEENS3_14default_policyES9_S9_S9_S9_S9_S9_S9_S9_S9_S9_EEEET_RKSB_RKT0_RKN4mpl_4int_ILi64EEEE1P"
 "_ZGVZN5boost4math6detail9log1p_impIeNS0_8policies6policyINS3_13promote_floatILb0EEENS3_14promote_doubleILb0EEENS3_14default_policyES9_S9_S9_S9_S9_S9_S9_S9_S9_S9_EEEET_RKSB_RKT0_RKN4mpl_4int_ILi64EEEE1Q"
 "_ZGVZN5boost4math7lanczos12lanczos17m6411lanczos_sumIeEET_RKS4_E3num"
 "_ZGVZN5boost4math7lanczos12lanczos17m6418lanczos_sum_near_1IeEET_RKS4_E1d"
 "_ZGVZN5boost4math7lanczos12lanczos17m6418lanczos_sum_near_2IeEET_RKS4_E1d"
 "_ZGVZN5boost4math7lanczos12lanczos17m6423lanczos_sum_expG_scaledIeEET_RKS4_E3num"
 "_ZN10tinyformat6detail10formatImplERSoPKcPKNS0_9FormatArgEi"
 "_ZN10tinyformat6detail15formatTruncatedIiEEvRSoRKT_i"
 "_ZN10tinyformat6detail21streamStateFromFormatERSoRbRiPKcPKNS0_9FormatArgES3_i"
 "_ZN10tinyformat6detail9FormatArg10formatImplIPKcEEvRSoS4_S4_iPKv"
 "_ZN10tinyformat6detail9FormatArg10formatImplIiEEvRSoPKcS5_iPKv"
 "_ZN10tinyformat6detail9FormatArg9toIntImplIPKcEEiPKv"
 "_ZN10tinyformat6detail9FormatArg9toIntImplIiEEiPKv"
 "_ZN10tinyformat6formatIJEEENSt7__cxx1112basic_stringIcSt11char_traitsIcESaIcEEEPKcDpRKT_"
 "_ZN10tinyformat6formatIJPKcEEENSt7__cxx1112basic_stringIcSt11char_traitsIcESaIcEEES2_DpRKT_"
 "_ZN10tinyformat6formatIJPKciEEENSt7__cxx1112basic_stringIcSt11char_traitsIcESaIcEEES2_DpRKT_"
 "_ZN11imagefusion10ConstImageC2EiiNS_4TypeE"
 "_ZN11imagefusion10ConstImageD0Ev"
 "_ZN11imagefusion10ConstImageD1Ev"
 "_ZN11imagefusion10size_errorC1ERKS0_"
 "_ZN11imagefusion10size_errorD0Ev"
 "_ZN11imagefusion10size_errorD1Ev"
 "_ZN11imagefusion10toFullTypeEi"
 "_ZN11imagefusion11SpstfmFusor13setDictionaryEN4arma3MatIdEEj"
 "_ZN11imagefusion11SpstfmFusorD1Ev"
 "_ZN11imagefusion11getFullTypeENS_4TypeEh"
 "_ZN11imagefusion11logic_errorC1ERKS0_"
 "_ZN11imagefusion11logic_errorD0Ev"
 "_ZN11imagefusion11logic_errorD1Ev"
 "_ZN11imagefusion12FitFCOptionsD0Ev"
 "_ZN11imagefusion12FitFCOptionsD1Ev"
 "_ZN11imagefusion12ParallelizerINS_11StarfmFusorENS_13StarfmOptionsEE14processOptionsERKNS_7OptionsE"
 "_ZN11imagefusion12ParallelizerINS_11StarfmFusorENS_13StarfmOptionsEE7predictEiRKNS_10ConstImageES6_"
 "_ZN11imagefusion12ParallelizerINS_11StarfmFusorENS_13StarfmOptionsEED0Ev"
 "_ZN11imagefusion12ParallelizerINS_11StarfmFusorENS_13StarfmOptionsEED1Ev"
 "_ZN11imagefusion12ParallelizerINS_12EstarfmFusorENS_14EstarfmOptionsEE14processOptionsERKNS_7OptionsE"
 "_ZN11imagefusion12ParallelizerINS_12EstarfmFusorENS_14EstarfmOptionsEE7predictEiRKNS_10ConstImageES6_"
 "_ZN11imagefusion12ParallelizerINS_12EstarfmFusorENS_14EstarfmOptionsEED0Ev"
 "_ZN11imagefusion12ParallelizerINS_12EstarfmFusorENS_14EstarfmOptionsEED1Ev"
 "_ZN11imagefusion13SpstfmOptionsC1Ev"
 "_ZN11imagefusion13SpstfmOptionsD0Ev"
 "_ZN11imagefusion13SpstfmOptionsD1Ev"
 "_ZN11imagefusion13StarfmOptions18setDoublePairDatesEii"
 "_ZN11imagefusion13StarfmOptionsD0Ev"
 "_ZN11imagefusion13StarfmOptionsD1Ev"
 "_ZN11imagefusion13runtime_errorD0Ev"
 "_ZN11imagefusion13runtime_errorD1Ev"
 "_ZN11imagefusion14EstarfmOptionsD0Ev"
 "_ZN11imagefusion14EstarfmOptionsD1Ev"
 "_ZN11imagefusion14MultiResImagesD0Ev"
 "_ZN11imagefusion14MultiResImagesD1Ev"
 "_ZN11imagefusion15not_found_errorC1ERKS0_"
 "_ZN11imagefusion15not_found_errorD0Ev"
 "_ZN11imagefusion15not_found_errorD1Ev"
 "_ZN11imagefusion16image_type_errorD0Ev"
 "_ZN11imagefusion16image_type_errorD1Ev"
 "_ZN11imagefusion18MultiResCollectionINS_5ImageEE3setERKNSt7__cxx1112basic_stringIcSt11char_traitsIcESaIcEEEiS1_"
 "_ZN11imagefusion18MultiResCollectionINS_5ImageEED0Ev"
 "_ZN11imagefusion18MultiResCollectionINS_5ImageEED1Ev"
 "_ZN11imagefusion19ParallelizerOptionsINS_13StarfmOptionsEED0Ev"
 "_ZN11imagefusion19ParallelizerOptionsINS_13StarfmOptionsEED1Ev"
 "_ZN11imagefusion19ParallelizerOptionsINS_14EstarfmOptionsEED0Ev"
 "_ZN11imagefusion19ParallelizerOptionsINS_14EstarfmOptionsEED1Ev"
 "_ZN11imagefusion21ThreadExceptionHelper16captureExceptionEv"
 "_ZN11imagefusion22invalid_argument_errorC1ERKS0_"
 "_ZN11imagefusion22invalid_argument_errorD0Ev"
 "_ZN11imagefusion22invalid_argument_errorD1Ev"
 "_ZN11imagefusion5ImageC1ERKNSt7__cxx1112basic_stringIcSt11char_traitsIcESaIcEEESt6vectorIiSaIiEEN2cv5Rect_IiEEbbb"
 "_ZN11imagefusion5ImageC1ERKS0_"
 "_ZN11imagefusion5ImageD0Ev"
 "_ZN11imagefusion5ImageD1Ev"
 "_ZN11imagefusion6option10Descriptor4textERKNSt7__cxx1112basic_stringIcSt11char_traitsIcESaIcEEE"
 "_ZN11imagefusion6option10Descriptor7optfileENSt7__cxx1112basic_stringIcSt11char_traitsIcESaIcEEE"
 "_ZN11imagefusion6option10DescriptorD1Ev"
 "_ZN11imagefusion6option12OptionParser5parseENSt7__cxx1112basic_stringIcSt11char_traitsIcESaIcEEE"
 "_ZN11imagefusion6option12OptionParser5parseESt6vectorINS0_10DescriptorESaIS3_EENSt7__cxx1112basic_stringIcSt11char_traitsIcESaIcEEERKSB_"
 "_ZN11imagefusion6option12OptionParserD1Ev"
 "_ZN11imagefusion6option12OptionParserixENSt7__cxx1112basic_stringIcSt11char_traitsIcESaIcEEE"
 "_ZN11imagefusion7GeoInfoC1ERKS0_"
 "_ZN11imagefusion7GeoInfoC1Ev"
 "_ZN11imagefusion7GeoInfoD1Ev"
 "_ZN11imagefusion8toCVTypeENS_4TypeE"
 "_ZN11imagefusion9DataFusor11outputImageEv"
 "_ZN11imagefusion9DataFusor9srcImagesESt10shared_ptrIKNS_14MultiResImagesEE"
 "_ZN11imagefusion9DataFusorD2Ev"
 "_ZN11imagefusion9to_stringB5cxx11ENS_4TypeE"
 "_ZN11imagefusion9to_stringB5cxx11ERKN2cv5Size_IiEE"
 "_ZN2cv3MatD1Ev"
 "_ZN4Rcpp10RstreambufILb0EE4syncEv"
 "_ZN4Rcpp10RstreambufILb0EE6xsputnEPKcx"
 "_ZN4Rcpp10RstreambufILb0EE8overflowEi"
 "_ZN4Rcpp10RstreambufILb0EED0Ev"
 "_ZN4Rcpp10RstreambufILb0EED1Ev"
 "_ZN4Rcpp10RstreambufILb1EE4syncEv"
 "_ZN4Rcpp10RstreambufILb1EE6xsputnEPKcx"
 "_ZN4Rcpp10RstreambufILb1EE8overflowEi"
 "_ZN4Rcpp10RstreambufILb1EED0Ev"
 "_ZN4Rcpp10RstreambufILb1EED1Ev"
 "_ZN4Rcpp10eval_errorD0Ev"
 "_ZN4Rcpp10eval_errorD1Ev"
 "_ZN4Rcpp14not_compatibleD0Ev"
 "_ZN4Rcpp14not_compatibleD1Ev"
 "_ZN4Rcpp22embedded_nul_in_stringD0Ev"
 "_ZN4Rcpp22embedded_nul_in_stringD1Ev"
 "_ZN4Rcpp4stopERKNSt7__cxx1112basic_stringIcSt11char_traitsIcESaIcEEE"
 "_ZN4Rcpp4stopIJEEEvPKcDpOT_"
 "_ZN4Rcpp6StringD1Ev"
 "_ZN4Rcpp6VectorILi16ENS_15PreserveStorageEEixILi10ELb1ENS0_ILi10ES1_EEEENS_11SubsetProxyILi16ES1_XT_EXT0_ET1_EERKNS_10VectorBaseIXT_EXT0_ES6_EE"
 "_ZN4Rcpp6r_castILi16EEEP7SEXPRECS2_"
 "_ZN4Rcpp8RostreamILb0EED0Ev"
 "_ZN4Rcpp8RostreamILb0EED1Ev"
 "_ZN4Rcpp8RostreamILb1EED0Ev"
 "_ZN4Rcpp8RostreamILb1EED1Ev"
 "_ZN4Rcpp8internal13r_init_vectorILi10EEEvP7SEXPREC"
 "_ZN4Rcpp8internal19check_single_stringEP7SEXPREC"
 "_ZN4Rcpp8internal22export_range__dispatchIN9__gnu_cxx17__normal_iteratorIPNSt7__cxx1112basic_stringIcSt11char_traitsIcESaIcEEESt6vectorIS9_SaIS9_EEEES9_EEvP7SEXPRECT_NS_6traits17r_type_string_tagE"
 "_ZN4Rcpp9Rcpp_evalEP7SEXPRECS1_"
 "_ZN4Rcpp9exceptionD0Ev"
 "_ZN4Rcpp9exceptionD1Ev"
 "_ZN4arma3MatIdE10soft_resetEv"
 "_ZN4arma3MatIdE5resetEv"
 "_ZN4arma3MatIdE9init_warmEyy"
 "_ZN4arma3MatIdEC1ERKS1_"
 "_ZN4arma5DatumIdE3infE"
 "_ZN4arma5DatumIdE3nanE"
 "_ZN4arma5DatumIiE3infE"
 "_ZN4arma5DatumIiE3nanE"
 "_ZN4arma5DatumIjE3infE"
 "_ZN4arma5DatumIjE3nanE"
 "_ZN4arma5DatumIxE3nanE"
 "_ZN4arma6diskio12gen_tmp_nameERKNSt7__cxx1112basic_stringIcSt11char_traitsIcESaIcEEE"
 "_ZN4arma6diskio14load_csv_asciiIdEEbRNS_3MatIT_EERSiRNSt7__cxx1112basic_stringIcSt11char_traitsIcESaIcEEE"
 "_ZN4arma6diskio14load_raw_asciiIdEEbRNS_3MatIT_EERSiRNSt7__cxx1112basic_stringIcSt11char_traitsIcESaIcEEE"
 "_ZN4arma6diskio15load_arma_asciiIdEEbRNS_3MatIT_EERSiRNSt7__cxx1112basic_stringIcSt11char_traitsIcESaIcEEE"
 "_ZN4arma6diskio15load_pgm_binaryIdEEbRNS_3MatIT_EERSiRNSt7__cxx1112basic_stringIcSt11char_traitsIcESaIcEEE"
 "_ZN4arma6diskio15load_raw_binaryIdEEbRNS_3MatIT_EERSiRNSt7__cxx1112basic_stringIcSt11char_traitsIcESaIcEEE"
 "_ZN4arma6diskio16load_arma_binaryIdEEbRNS_3MatIT_EERSiRNSt7__cxx1112basic_stringIcSt11char_traitsIcESaIcEEE"
 "_ZN4arma6diskio16load_auto_detectIdEEbRNS_3MatIT_EERSiRNSt7__cxx1112basic_stringIcSt11char_traitsIcESaIcEEE"
 "_ZN4arma6diskio16save_arma_binaryIdEEbRKNS_3MatIT_EERKNSt7__cxx1112basic_stringIcSt11char_traitsIcESaIcEEE"
 "_ZN4arma6diskio16save_arma_binaryIdEEbRKNS_3MatIT_EERSo"
 "_ZN4arma6diskio17pnm_skip_commentsERSi"
 "_ZN4arma6diskio24guess_file_type_internalERSi"
 "_ZN4arma8arrayops10copy_smallIdEEvPT_PKS2_y"
 "_ZN4arma8arrayops11inplace_setIdEEvPT_S2_y"
 "_ZN4arma8arrayops17inplace_set_smallIdEEvPT_S2_y"
 "_ZN5boost10error_infoIN11imagefusion14tag_image_typeENS1_4TypeEED0Ev"
 "_ZN5boost10error_infoIN11imagefusion14tag_image_typeENS1_4TypeEED1Ev"
 "_ZN5boost10error_infoIN11imagefusion18tag_resolution_tagENSt7__cxx1112basic_stringIcSt11char_traitsIcESaIcEEEED0Ev"
 "_ZN5boost10error_infoIN11imagefusion18tag_resolution_tagENSt7__cxx1112basic_stringIcSt11char_traitsIcESaIcEEEED1Ev"
 "_ZN5boost10error_infoIN11imagefusion8tag_dateEiED0Ev"
 "_ZN5boost10error_infoIN11imagefusion8tag_dateEiED1Ev"
 "_ZN5boost10error_infoIN11imagefusion8tag_sizeEN2cv5Size_IiEEED0Ev"
 "_ZN5boost10error_infoIN11imagefusion8tag_sizeEN2cv5Size_IiEEED1Ev"
 "_ZN5boost10wrapexceptISt12domain_errorED0Ev"
 "_ZN5boost10wrapexceptISt12domain_errorED1Ev"
 "_ZN5boost10wrapexceptISt14overflow_errorED0Ev"
 "_ZN5boost10wrapexceptISt14overflow_errorED1Ev"
 "_ZN5boost15throw_exceptionISt12domain_errorEEvRKT_"
 "_ZN5boost15throw_exceptionISt14overflow_errorEEvRKT_"
 "_ZN5boost16exception_detail10bad_alloc_D0Ev"
 "_ZN5boost16exception_detail10bad_alloc_D1Ev"
 "_ZN5boost16exception_detail10bad_alloc_D2Ev"
 "_ZN5boost16exception_detail10clone_implINS0_10bad_alloc_EED0Ev"
 "_ZN5boost16exception_detail10clone_implINS0_10bad_alloc_EED1Ev"
 "_ZN5boost16exception_detail10clone_implINS0_14bad_exception_EED0Ev"
 "_ZN5boost16exception_detail10clone_implINS0_14bad_exception_EED1Ev"
 "_ZN5boost16exception_detail10clone_implINS0_19error_info_injectorISt12domain_errorEEED0Ev"
 "_ZN5boost16exception_detail10clone_implINS0_19error_info_injectorISt12domain_errorEEED1Ev"
 "_ZN5boost16exception_detail10clone_implINS0_19error_info_injectorISt14overflow_errorEEED0Ev"
 "_ZN5boost16exception_detail10clone_implINS0_19error_info_injectorISt14overflow_errorEEED1Ev"
 "_ZN5boost16exception_detail11set_info_rvINS_10error_infoIN11imagefusion14tag_image_typeENS3_4TypeEEEE3setINS3_11logic_errorEEERKT_SC_OS6_"
 "_ZN5boost16exception_detail11set_info_rvINS_10error_infoIN11imagefusion18tag_resolution_tagENSt7__cxx1112basic_stringIcSt11char_traitsIcESaIcEEEEEE3setINS3_15not_found_errorEEERKT_SH_OSB_"
 "_ZN5boost16exception_detail11set_info_rvINS_10error_infoIN11imagefusion8tag_dateEiEEE3setINS3_15not_found_errorEEERKT_SB_OS5_"
 "_ZN5boost16exception_detail11set_info_rvINS_10error_infoIN11imagefusion8tag_sizeEN2cv5Size_IiEEEEE3setINS3_10size_errorEEERKT_SE_OS8_"
 "_ZN5boost16exception_detail14bad_exception_D0Ev"
 "_ZN5boost16exception_detail14bad_exception_D1Ev"
 "_ZN5boost16exception_detail14bad_exception_D2Ev"
 "_ZN5boost16exception_detail19error_info_injectorISt12domain_errorED0Ev"
 "_ZN5boost16exception_detail19error_info_injectorISt12domain_errorED1Ev"
 "_ZN5boost16exception_detail19error_info_injectorISt12domain_errorED2Ev"
 "_ZN5boost16exception_detail19error_info_injectorISt14overflow_errorED0Ev"
 "_ZN5boost16exception_detail19error_info_injectorISt14overflow_errorED1Ev"
 "_ZN5boost16exception_detail19error_info_injectorISt14overflow_errorED2Ev"
 "_ZN5boost16exception_detail20copy_boost_exceptionEPNS_9exceptionEPKS1_"
 "_ZN5boost16exception_detail25error_info_container_impl3setERKNS_10shared_ptrINS0_15error_info_baseEEERKNS0_10type_info_E"
 "_ZN5boost16exception_detail27get_static_exception_objectINS0_10bad_alloc_EEENS_13exception_ptrEv"
 "_ZN5boost16exception_detail27get_static_exception_objectINS0_14bad_exception_EEENS_13exception_ptrEv"
 "_ZN5boost16exception_detail37exception_ptr_static_exception_objectINS0_10bad_alloc_EE1eE"
 "_ZN5boost16exception_detail37exception_ptr_static_exception_objectINS0_14bad_exception_EE1eE"
 "_ZN5boost3icl17interval_base_setINS0_12interval_setIdSt4lessNS0_19continuous_intervalIdS3_EESaEEdS3_S5_SaE4_addERKS5_"
 "_ZN5boost3icl17interval_base_setINS0_12interval_setIdSt4lessNS0_19continuous_intervalIdS3_EESaEEdS3_S5_SaE8subtractERKS5_"
 "_ZN5boost3icl4hullINS0_19continuous_intervalIdSt4lessEEEENS_9enable_ifINS0_18has_dynamic_boundsIT_EES7_E4typeES7_RKS7_"
 "_ZN5boost3icl9segmental10join_rightINS0_12interval_setIdSt4lessNS0_19continuous_intervalIdS4_EESaEEEENT_8iteratorERS8_RS9_"
 "_ZN5boost3icl9segmental9join_leftINS0_12interval_setIdSt4lessNS0_19continuous_intervalIdS4_EESaEEEENT_8iteratorERS8_RS9_"
 "_ZN5boost3icllsIcSt11char_traitsIcENS0_12interval_setIdSt4lessNS0_19continuous_intervalIdS5_EESaEEEERNS_9enable_ifINS0_15is_interval_setIT1_EESt13basic_ostreamIT_T0_EE4typeERSG_RKSB_"
 "_ZN5boost3icllsIcSt11char_traitsIcENS0_19continuous_intervalIdSt4lessEEEERNS_9enable_ifINS0_11is_intervalIT1_EESt13basic_ostreamIT_T0_EE4typeERSE_RKS9_"
 "_ZN5boost3iclpLINS0_12interval_setIdSt4lessNS0_19continuous_intervalIdS3_EESaEES6_EERNS_9enable_ifINS0_19is_intra_combinableIT_T0_EES9_E4typeERS9_RKSA_"
 "_ZN5boost4math5tools6detail23evaluate_rational_c_impIeyeEET1_PKT_PKT0_RKS4_PKN4mpl_4int_ILi17EEE"
 "_ZN5boost4math6detail9log1p_impIeNS0_8policies6policyINS3_13promote_floatILb0EEENS3_14promote_doubleILb0EEENS3_14default_policyES9_S9_S9_S9_S9_S9_S9_S9_S9_S9_EEEET_RKSB_RKT0_RKN4mpl_4int_ILi64EEE"
 "_ZN5boost4math7lanczos12lanczos17m6411lanczos_sumIeEET_RKS4_"
 "_ZN5boost4math7lanczos12lanczos17m6418lanczos_sum_near_1IeEET_RKS4_"
 "_ZN5boost4math7lanczos12lanczos17m6418lanczos_sum_near_2IeEET_RKS4_"
 "_ZN5boost4math7lanczos12lanczos17m6423lanczos_sum_expG_scaledIeEET_RKS4_"
 "_ZN5boost4math8policies6detail11raise_errorISt12domain_erroreEEvPKcS6_RKT0_"
 "_ZN5boost4math8policies6detail11raise_errorISt14overflow_erroreEEvPKcS6_"
 "_ZN5boost4math8policies6detail21replace_all_in_stringERNSt7__cxx1112basic_stringIcSt11char_traitsIcESaIcEEEPKcSB_"
 "_ZN5boost6detail15sp_counted_base7destroyEv"
 "_ZN5boost6detail15sp_counted_base7releaseEv"
 "_ZN5boost6detail17sp_counted_impl_pINS_10error_infoIN11imagefusion14tag_image_typeENS3_4TypeEEEE11get_deleterERKSt9type_info"
 "_ZN5boost6detail17sp_counted_impl_pINS_10error_infoIN11imagefusion14tag_image_typeENS3_4TypeEEEE17get_local_deleterERKSt9type_info"
 "_ZN5boost6detail17sp_counted_impl_pINS_10error_infoIN11imagefusion14tag_image_typeENS3_4TypeEEEE19get_untyped_deleterEv"
 "_ZN5boost6detail17sp_counted_impl_pINS_10error_infoIN11imagefusion14tag_image_typeENS3_4TypeEEEE7disposeEv"
 "_ZN5boost6detail17sp_counted_impl_pINS_10error_infoIN11imagefusion14tag_image_typeENS3_4TypeEEEED0Ev"
 "_ZN5boost6detail17sp_counted_impl_pINS_10error_infoIN11imagefusion14tag_image_typeENS3_4TypeEEEED1Ev"
 "_ZN5boost6detail17sp_counted_impl_pINS_10error_infoIN11imagefusion18tag_resolution_tagENSt7__cxx1112basic_stringIcSt11char_traitsIcESaIcEEEEEE11get_deleterERKSt9type_info"
 "_ZN5boost6detail17sp_counted_impl_pINS_10error_infoIN11imagefusion18tag_resolution_tagENSt7__cxx1112basic_stringIcSt11char_traitsIcESaIcEEEEEE17get_local_deleterERKSt9type_info"
 "_ZN5boost6detail17sp_counted_impl_pINS_10error_infoIN11imagefusion18tag_resolution_tagENSt7__cxx1112basic_stringIcSt11char_traitsIcESaIcEEEEEE19get_untyped_deleterEv"
 "_ZN5boost6detail17sp_counted_impl_pINS_10error_infoIN11imagefusion18tag_resolution_tagENSt7__cxx1112basic_stringIcSt11char_traitsIcESaIcEEEEEE7disposeEv"
 "_ZN5boost6detail17sp_counted_impl_pINS_10error_infoIN11imagefusion18tag_resolution_tagENSt7__cxx1112basic_stringIcSt11char_traitsIcESaIcEEEEEED0Ev"
 "_ZN5boost6detail17sp_counted_impl_pINS_10error_infoIN11imagefusion18tag_resolution_tagENSt7__cxx1112basic_stringIcSt11char_traitsIcESaIcEEEEEED1Ev"
 "_ZN5boost6detail17sp_counted_impl_pINS_10error_infoIN11imagefusion8tag_dateEiEEE11get_deleterERKSt9type_info"
 "_ZN5boost6detail17sp_counted_impl_pINS_10error_infoIN11imagefusion8tag_dateEiEEE17get_local_deleterERKSt9type_info"
 "_ZN5boost6detail17sp_counted_impl_pINS_10error_infoIN11imagefusion8tag_dateEiEEE19get_untyped_deleterEv"
 "_ZN5boost6detail17sp_counted_impl_pINS_10error_infoIN11imagefusion8tag_dateEiEEE7disposeEv"
 "_ZN5boost6detail17sp_counted_impl_pINS_10error_infoIN11imagefusion8tag_dateEiEEED0Ev"
 "_ZN5boost6detail17sp_counted_impl_pINS_10error_infoIN11imagefusion8tag_dateEiEEED1Ev"
 "_ZN5boost6detail17sp_counted_impl_pINS_10error_infoIN11imagefusion8tag_sizeEN2cv5Size_IiEEEEE11get_deleterERKSt9type_info"
 "_ZN5boost6detail17sp_counted_impl_pINS_10error_infoIN11imagefusion8tag_sizeEN2cv5Size_IiEEEEE17get_local_deleterERKSt9type_info"
 "_ZN5boost6detail17sp_counted_impl_pINS_10error_infoIN11imagefusion8tag_sizeEN2cv5Size_IiEEEEE19get_untyped_deleterEv"
 "_ZN5boost6detail17sp_counted_impl_pINS_10error_infoIN11imagefusion8tag_sizeEN2cv5Size_IiEEEEE7disposeEv"
 "_ZN5boost6detail17sp_counted_impl_pINS_10error_infoIN11imagefusion8tag_sizeEN2cv5Size_IiEEEEED0Ev"
 "_ZN5boost6detail17sp_counted_impl_pINS_10error_infoIN11imagefusion8tag_sizeEN2cv5Size_IiEEEEED1Ev"
 "_ZN5boost6detail17sp_counted_impl_pINS_16exception_detail10clone_implINS2_10bad_alloc_EEEE11get_deleterERKSt9type_info"
 "_ZN5boost6detail17sp_counted_impl_pINS_16exception_detail10clone_implINS2_10bad_alloc_EEEE17get_local_deleterERKSt9type_info"
 "_ZN5boost6detail17sp_counted_impl_pINS_16exception_detail10clone_implINS2_10bad_alloc_EEEE19get_untyped_deleterEv"
 "_ZN5boost6detail17sp_counted_impl_pINS_16exception_detail10clone_implINS2_10bad_alloc_EEEE7disposeEv"
 "_ZN5boost6detail17sp_counted_impl_pINS_16exception_detail10clone_implINS2_10bad_alloc_EEEED0Ev"
 "_ZN5boost6detail17sp_counted_impl_pINS_16exception_detail10clone_implINS2_10bad_alloc_EEEED1Ev"
 "_ZN5boost6detail17sp_counted_impl_pINS_16exception_detail10clone_implINS2_14bad_exception_EEEE11get_deleterERKSt9type_info"
 "_ZN5boost6detail17sp_counted_impl_pINS_16exception_detail10clone_implINS2_14bad_exception_EEEE17get_local_deleterERKSt9type_info"
 "_ZN5boost6detail17sp_counted_impl_pINS_16exception_detail10clone_implINS2_14bad_exception_EEEE19get_untyped_deleterEv"
 "_ZN5boost6detail17sp_counted_impl_pINS_16exception_detail10clone_implINS2_14bad_exception_EEEE7disposeEv"
 "_ZN5boost6detail17sp_counted_impl_pINS_16exception_detail10clone_implINS2_14bad_exception_EEEED0Ev"
 "_ZN5boost6detail17sp_counted_impl_pINS_16exception_detail10clone_implINS2_14bad_exception_EEEED1Ev"
 "_ZN5boost6detail17sp_counted_impl_pINS_16exception_detail15error_info_baseEE11get_deleterERKSt9type_info"
 "_ZN5boost6detail17sp_counted_impl_pINS_16exception_detail15error_info_baseEE17get_local_deleterERKSt9type_info"
 "_ZN5boost6detail17sp_counted_impl_pINS_16exception_detail15error_info_baseEE19get_untyped_deleterEv"
 "_ZN5boost6detail17sp_counted_impl_pINS_16exception_detail15error_info_baseEE7disposeEv"
 "_ZN5boost6detail17sp_counted_impl_pINS_16exception_detail15error_info_baseEED0Ev"
 "_ZN5boost6detail17sp_counted_impl_pINS_16exception_detail15error_info_baseEED1Ev"
 "_ZN5boost9to_stringIN11imagefusion18tag_resolution_tagENSt7__cxx1112basic_stringIcSt11char_traitsIcESaIcEEEEES8_RKNS_10error_infoIT_T0_EE"
 "_ZN5boost9to_stringIN11imagefusion8tag_dateEiEENSt7__cxx1112basic_stringIcSt11char_traitsIcESaIcEEERKNS_10error_infoIT_T0_EE"
 "_ZN5boost9to_stringIN11imagefusion8tag_sizeEN2cv5Size_IiEEEENSt7__cxx1112basic_stringIcSt11char_traitsIcESaIcEEERKNS_10error_infoIT_T0_EE"
 "_ZN7helpers17combineMaskImagesERSt6vectorIN11imagefusion5ImageESaIS2_EERKS0_INSt7__cxx1112basic_stringIcSt11char_traitsIcESaIcEEESaISB_EEjb"
 "_ZN7helpers19HighLowIntervalSetsC1ERKS0_"
 "_ZN7helpers19HighLowIntervalSetsD1Ev"
 "_ZN7helpers21parseAndCombineRangesIN11imagefusion6option5ParseEEENS_19HighLowIntervalSetsERKSt6vectorINS2_6OptionESaIS6_EE"
 "_ZN7helpers25parseAndCombineMaskImagesIN11imagefusion6option5ParseEEENS1_5ImageERKSt6vectorINSt7__cxx1112basic_stringIcSt11char_traitsIcESaIcEEESaISB_EEib"
 "_ZN9__gnu_cxx12__to_xstringINSt7__cxx1112basic_stringIcSt11char_traitsIcESaIcEEEcEET_PFiPT0_yPKS8_PcEySB_z"
 "_ZNK10tinyformat6detail9FormatArg5toIntEv"
 "_ZNK11imagefusion11StarfmFusor10getOptionsEv"
 "_ZNK11imagefusion12EstarfmFusor10getOptionsEv"
 "_ZNK11imagefusion12ParallelizerINS_11StarfmFusorENS_13StarfmOptionsEE10getOptionsEv"
 "_ZNK11imagefusion12ParallelizerINS_12EstarfmFusorENS_14EstarfmOptionsEE10getOptionsEv"
 "_ZNK11imagefusion18MultiResCollectionINS_5ImageEE3getERKNSt7__cxx1112basic_stringIcSt11char_traitsIcESaIcEEEi"
 "_ZNK11imagefusion18MultiResCollectionINS_5ImageEE6getAnyEv"
 "_ZNK11imagefusion9DataFusor11outputImageEv"
 "_ZNK11imagefusion9DataFusor9srcImagesEv"
 "_ZNK4Rcpp10eval_error4whatEv"
 "_ZNK4Rcpp11SubsetProxyILi16ENS_15PreserveStorageELi10ELb1ENS_6VectorILi10ES1_EEE7get_vecEv"
 "_ZNK4Rcpp14not_compatible4whatEv"
 "_ZNK4Rcpp22embedded_nul_in_string4whatEv"
 "_ZNK4Rcpp9exception4whatEv"
 "_ZNK5boost10error_infoIN11imagefusion14tag_image_typeENS1_4TypeEE17name_value_stringB5cxx11Ev"
 "_ZNK5boost10error_infoIN11imagefusion14tag_image_typeENS1_4TypeEE5cloneEv"
 "_ZNK5boost10error_infoIN11imagefusion18tag_resolution_tagENSt7__cxx1112basic_stringIcSt11char_traitsIcESaIcEEEE17name_value_stringEv"
 "_ZNK5boost10error_infoIN11imagefusion18tag_resolution_tagENSt7__cxx1112basic_stringIcSt11char_traitsIcESaIcEEEE5cloneEv"
 "_ZNK5boost10error_infoIN11imagefusion8tag_dateEiE17name_value_stringB5cxx11Ev"
 "_ZNK5boost10error_infoIN11imagefusion8tag_dateEiE5cloneEv"
 "_ZNK5boost10error_infoIN11imagefusion8tag_sizeEN2cv5Size_IiEEE17name_value_stringB5cxx11Ev"
 "_ZNK5boost10error_infoIN11imagefusion8tag_sizeEN2cv5Size_IiEEE5cloneEv"
 "_ZNK5boost16exception_detail10clone_implINS0_10bad_alloc_EE5cloneEv"
 "_ZNK5boost16exception_detail10clone_implINS0_10bad_alloc_EE7rethrowEv"
 "_ZNK5boost16exception_detail10clone_implINS0_14bad_exception_EE5cloneEv"
 "_ZNK5boost16exception_detail10clone_implINS0_14bad_exception_EE7rethrowEv"
 "_ZNK5boost16exception_detail10clone_implINS0_19error_info_injectorISt12domain_errorEEE5cloneEv"
 "_ZNK5boost16exception_detail10clone_implINS0_19error_info_injectorISt12domain_errorEEE7rethrowEv"
 "_ZNK5boost16exception_detail10clone_implINS0_19error_info_injectorISt14overflow_errorEEE5cloneEv"
 "_ZNK5boost16exception_detail10clone_implINS0_19error_info_injectorISt14overflow_errorEEE7rethrowEv"
 "_ZNK5boost16exception_detail25error_info_container_impl22diagnostic_informationEPKc"
 "_ZNK5boost16exception_detail25error_info_container_impl3getERKNS0_10type_info_E"
 "_ZNK5boost16exception_detail25error_info_container_impl5cloneEv"
 "_ZNK5boost16exception_detail25error_info_container_impl7add_refEv"
 "_ZNK5boost16exception_detail25error_info_container_impl7releaseEv"
 "_ZNKSt10filesystem7__cxx114path4stemEv"
 "_ZNKSt10filesystem7__cxx114path9extensionEv"
 "_ZNKSt23__codecvt_abstract_baseIwciE2inERiPKcS3_RS3_PwS5_RS5_"
 "_ZNKSt23__codecvt_abstract_baseIwciE3outERiPKwS3_RS3_PcS5_RS5_"
 "_ZNKSt5ctypeIcE8do_widenEc"
 "_ZNKSt7__cxx1112basic_stringIcSt11char_traitsIcESaIcEE4findEcy"
 "_ZNKSt7__cxx1112basic_stringIcSt11char_traitsIcESaIcEE7compareEPKc"
 "_ZNKSt7__cxx1112basic_stringIcSt11char_traitsIcESaIcEE7compareERKS4_"
 "_ZNSt10filesystem7__cxx1116filesystem_errorC1ERKNSt7__cxx1112basic_stringIcSt11char_traitsIcESaIcEEESt10error_code"
 "_ZNSt10filesystem7__cxx114path14_S_str_convertIcSt11char_traitsIcESaIcEEENSt7__cxx1112basic_stringIT_T0_T1_EERKNS7_IwS3_IwESaIwEEERKSA_"
 "_ZNSt10filesystem7__cxx114pathC1ERKS1_"
 "_ZNSt10filesystem7__cxx114pathD1Ev"
 "_ZNSt11char_traitsIcE6lengthEPKc"
 "_ZNSt11char_traitsIcE7compareEPKcS2_y"
 "_ZNSt12codecvt_utf8IwLm1114111ELSt12codecvt_mode0EED0Ev"
 "_ZNSt12codecvt_utf8IwLm1114111ELSt12codecvt_mode0EED1Ev"
 "_ZNSt14_Function_base13_Base_managerIPFN11imagefusion6option9ArgStatusERKNS2_6OptionEEE10_M_managerERSt9_Any_dataRKSA_St18_Manager_operation"
 "_ZNSt16_Sp_counted_baseILN9__gnu_cxx12_Lock_policyE2EE10_M_releaseEv"
 "_ZNSt17_Function_handlerIFN11imagefusion6option9ArgStatusERKNS1_6OptionEEPS6_E9_M_invokeERKSt9_Any_dataS5_"
 "_ZNSt22__uninitialized_fill_nILb0EE15__uninit_fill_nIPN11imagefusion11StarfmFusorEyS3_EET_S5_T0_RKT1_"
 "_ZNSt22__uninitialized_fill_nILb0EE15__uninit_fill_nIPN11imagefusion12EstarfmFusorEyS3_EET_S5_T0_RKT1_"
 "_ZNSt23_Sp_counted_ptr_inplaceIN11imagefusion14MultiResImagesESaIS1_ELN9__gnu_cxx12_Lock_policyE2EE10_M_destroyEv"
 "_ZNSt23_Sp_counted_ptr_inplaceIN11imagefusion14MultiResImagesESaIS1_ELN9__gnu_cxx12_Lock_policyE2EE10_M_disposeEv"
 "_ZNSt23_Sp_counted_ptr_inplaceIN11imagefusion14MultiResImagesESaIS1_ELN9__gnu_cxx12_Lock_policyE2EE14_M_get_deleterERKSt9type_info"
 "_ZNSt23_Sp_counted_ptr_inplaceIN11imagefusion14MultiResImagesESaIS1_ELN9__gnu_cxx12_Lock_policyE2EED0Ev"
 "_ZNSt23_Sp_counted_ptr_inplaceIN11imagefusion14MultiResImagesESaIS1_ELN9__gnu_cxx12_Lock_policyE2EED1Ev"
 "_ZNSt6vectorIN11imagefusion10ConstImageESaIS1_EE12emplace_backIJS1_EEERS1_DpOT_"
 "_ZNSt6vectorIN11imagefusion10ConstImageESaIS1_EE17_M_realloc_insertIJS1_EEEvN9__gnu_cxx17__normal_iteratorIPS1_S3_EEDpOT_"
 "_ZNSt6vectorIN11imagefusion10ConstImageESaIS1_EED1Ev"
 "_ZNSt6vectorIN11imagefusion11StarfmFusorESaIS1_EE14_M_fill_insertEN9__gnu_cxx17__normal_iteratorIPS1_S3_EEyRKS1_"
 "_ZNSt6vectorIN11imagefusion12EstarfmFusorESaIS1_EE14_M_fill_insertEN9__gnu_cxx17__normal_iteratorIPS1_S3_EEyRKS1_"
 "_ZNSt6vectorIN11imagefusion5ImageESaIS1_EE17_M_realloc_insertIJS1_EEEvN9__gnu_cxx17__normal_iteratorIPS1_S3_EEDpOT_"
 "_ZNSt6vectorIN11imagefusion5ImageESaIS1_EED1Ev"
 "_ZNSt6vectorIN11imagefusion6option10DescriptorESaIS2_EEC1ERKS4_"
 "_ZNSt6vectorIN11imagefusion6option10DescriptorESaIS2_EED1Ev"
 "_ZNSt6vectorIN11imagefusion6option6OptionESaIS2_EED1Ev"
 "_ZNSt6vectorIN4arma3MatIdEESaIS2_EE17_M_default_appendEy"
 "_ZNSt6vectorINSt10filesystem7__cxx114path5_CmptESaIS3_EEC1ERKS5_"
 "_ZNSt6vectorINSt10filesystem7__cxx114path5_CmptESaIS3_EED1Ev"
 "_ZNSt6vectorINSt7__cxx1112basic_stringIcSt11char_traitsIcESaIcEEESaIS5_EE12emplace_backIJS5_EEERS5_DpOT_"
 "_ZNSt6vectorINSt7__cxx1112basic_stringIcSt11char_traitsIcESaIcEEESaIS5_EE17_M_realloc_insertIJRKS5_EEEvN9__gnu_cxx17__normal_iteratorIPS5_S7_EEDpOT_"
 "_ZNSt6vectorINSt7__cxx1112basic_stringIcSt11char_traitsIcESaIcEEESaIS5_EE17_M_realloc_insertIJS5_EEEvN9__gnu_cxx17__normal_iteratorIPS5_S7_EEDpOT_"
 "_ZNSt6vectorINSt7__cxx1112basic_stringIcSt11char_traitsIcESaIcEEESaIS5_EED1Ev"
 "_ZNSt6vectorIxSaIxEE17_M_realloc_insertIJRKxEEEvN9__gnu_cxx17__normal_iteratorIPxS1_EEDpOT_"
 "_ZNSt7__cxx1112basic_stringIcSt11char_traitsIcESaIcEE10_M_replaceEyyPKcy"
 "_ZNSt7__cxx1112basic_stringIcSt11char_traitsIcESaIcEE12_M_constructIPKcEEvT_S8_St20forward_iterator_tag"
 "_ZNSt7__cxx1112basic_stringIcSt11char_traitsIcESaIcEE14_M_replace_auxEyyyc"
 "_ZNSt7__cxx1112basic_stringIcSt11char_traitsIcESaIcEE6appendEPKc"
 "_ZNSt7__cxx1112basic_stringIcSt11char_traitsIcESaIcEE6resizeEyc"
 "_ZNSt7__cxx1112basic_stringIcSt11char_traitsIcESaIcEE9_M_appendEPKcy"
 "_ZNSt7__cxx1112basic_stringIcSt11char_traitsIcESaIcEE9_M_assignERKS4_"
 "_ZNSt7__cxx1112basic_stringIcSt11char_traitsIcESaIcEE9_M_mutateEyyPKcy"
 "_ZNSt7__cxx1112basic_stringIcSt11char_traitsIcESaIcEEaSEOS4_"
 "_ZNSt7__cxx1112basic_stringIwSt11char_traitsIwESaIwEE10_M_replaceEyyPKwy"
 "_ZNSt7__cxx1112basic_stringIwSt11char_traitsIwESaIwEE12_M_constructIPwEEvT_S7_St20forward_iterator_tag"
 "_ZNSt7__cxx1112basic_stringIwSt11char_traitsIwESaIwEE6resizeEyw"
 "_ZNSt7__cxx1112basic_stringIwSt11char_traitsIwESaIwEE9_M_createERyy"
 "_ZNSt7__cxx1112basic_stringIwSt11char_traitsIwESaIwEE9_M_mutateEyyPKwy"
 "_ZNSt8_Rb_treeIN5boost16exception_detail10type_info_ESt4pairIKS2_NS0_10shared_ptrINS1_15error_info_baseEEEESt10_Select1stIS8_ESt4lessIS2_ESaIS8_EE14_M_insert_nodeEPSt18_Rb_tree_node_baseSG_PSt13_Rb_tree_nodeIS8_E"
 "_ZNSt8_Rb_treeIN5boost16exception_detail10type_info_ESt4pairIKS2_NS0_10shared_ptrINS1_15error_info_baseEEEESt10_Select1stIS8_ESt4lessIS2_ESaIS8_EE24_M_get_insert_unique_posERS4_"
 "_ZNSt8_Rb_treeIN5boost16exception_detail10type_info_ESt4pairIKS2_NS0_10shared_ptrINS1_15error_info_baseEEEESt10_Select1stIS8_ESt4lessIS2_ESaIS8_EE8_M_eraseEPSt13_Rb_tree_nodeIS8_E"
 "_ZNSt8_Rb_treeIN5boost3icl19continuous_intervalIdSt4lessEES4_St9_IdentityIS4_ENS1_19exclusive_less_thanIS4_EESaIS4_EE10_M_insert_IRKS4_NSA_11_Alloc_nodeEEESt17_Rb_tree_iteratorIS4_EPSt18_Rb_tree_node_baseSI_OT_RT0_"
 "_ZNSt8_Rb_treeIN5boost3icl19continuous_intervalIdSt4lessEES4_St9_IdentityIS4_ENS1_19exclusive_less_thanIS4_EESaIS4_EE12_M_erase_auxESt23_Rb_tree_const_iteratorIS4_ESC_"
 "_ZNSt8_Rb_treeIN5boost3icl19continuous_intervalIdSt4lessEES4_St9_IdentityIS4_ENS1_19exclusive_less_thanIS4_EESaIS4_EE16_M_insert_uniqueIRKS4_EESt4pairISt17_Rb_tree_iteratorIS4_EbEOT_"
 "_ZNSt8_Rb_treeIN5boost3icl19continuous_intervalIdSt4lessEES4_St9_IdentityIS4_ENS1_19exclusive_less_thanIS4_EESaIS4_EE24_M_get_insert_unique_posERKS4_"
 "_ZNSt8_Rb_treeIN5boost3icl19continuous_intervalIdSt4lessEES4_St9_IdentityIS4_ENS1_19exclusive_less_thanIS4_EESaIS4_EE29_M_get_insert_hint_unique_posESt23_Rb_tree_const_iteratorIS4_ERKS4_"
 "_ZNSt8_Rb_treeIN5boost3icl19continuous_intervalIdSt4lessEES4_St9_IdentityIS4_ENS1_19exclusive_less_thanIS4_EESaIS4_EE7_M_copyINSA_11_Alloc_nodeEEEPSt13_Rb_tree_nodeIS4_EPKSE_PSt18_Rb_tree_node_baseRT_"
 "_ZNSt8_Rb_treeIN5boost3icl19continuous_intervalIdSt4lessEES4_St9_IdentityIS4_ENS1_19exclusive_less_thanIS4_EESaIS4_EE8_M_eraseEPSt13_Rb_tree_nodeIS4_E"
 "_ZNSt8_Rb_treeINSt7__cxx1112basic_stringIcSt11char_traitsIcESaIcEEESt4pairIKS5_S5_ESt10_Select1stIS8_ESt4lessIS5_ESaIS8_EE7_M_copyINSE_11_Alloc_nodeEEEPSt13_Rb_tree_nodeIS8_EPKSI_PSt18_Rb_tree_node_baseRT_"
 "_ZNSt8_Rb_treeINSt7__cxx1112basic_stringIcSt11char_traitsIcESaIcEEESt4pairIKS5_S5_ESt10_Select1stIS8_ESt4lessIS5_ESaIS8_EE8_M_eraseEPSt13_Rb_tree_nodeIS8_E"
 "_ZNSt8_Rb_treeINSt7__cxx1112basic_stringIcSt11char_traitsIcESaIcEEESt4pairIKS5_St3mapIS5_S5_St4lessIS5_ESaIS6_IS7_S5_EEEESt10_Select1stISE_ESA_SaISE_EE7_M_copyINSI_11_Alloc_nodeEEEPSt13_Rb_tree_nodeISE_EPKSM_PSt18_Rb_tree_node_baseRT_"
 "_ZNSt8_Rb_treeINSt7__cxx1112basic_stringIcSt11char_traitsIcESaIcEEESt4pairIKS5_St3mapIS5_S5_St4lessIS5_ESaIS6_IS7_S5_EEEESt10_Select1stISE_ESA_SaISE_EE8_M_eraseEPSt13_Rb_tree_nodeISE_E"
 "_ZNSt8_Rb_treeINSt7__cxx1112basic_stringIcSt11char_traitsIcESaIcEEESt4pairIKS5_St3mapIiN11imagefusion5ImageESt4lessIiESaIS6_IKiSA_EEEESt10_Select1stISH_ESB_IS5_ESaISH_EE22_M_emplace_hint_uniqueIJRKSt21piecewise_construct_tSt5tupleIJRS7_EESR_IJEEEEESt17_Rb_tree_iteratorISH_ESt23_Rb_tree_const_iteratorISH_EDpOT_"
 "_ZNSt8_Rb_treeINSt7__cxx1112basic_stringIcSt11char_traitsIcESaIcEEESt4pairIKS5_St3mapIiN11imagefusion5ImageESt4lessIiESaIS6_IKiSA_EEEESt10_Select1stISH_ESB_IS5_ESaISH_EE24_M_get_insert_unique_posERS7_"
 "_ZNSt8_Rb_treeINSt7__cxx1112basic_stringIcSt11char_traitsIcESaIcEEESt4pairIKS5_St3mapIiN11imagefusion5ImageESt4lessIiESaIS6_IKiSA_EEEESt10_Select1stISH_ESB_IS5_ESaISH_EE8_M_eraseEPSt13_Rb_tree_nodeISH_E"
 "_ZNSt8_Rb_treeINSt7__cxx1112basic_stringIcSt11char_traitsIcESaIcEEESt4pairIKS5_St6vectorIN11imagefusion6option6OptionESaISB_EEESt10_Select1stISE_ESt4lessIS5_ESaISE_EE22_M_emplace_hint_uniqueIJRKSt21piecewise_construct_tSt5tupleIJRS7_EESP_IJEEEEESt17_Rb_tree_iteratorISE_ESt23_Rb_tree_const_iteratorISE_EDpOT_"
 "_ZNSt8_Rb_treeINSt7__cxx1112basic_stringIcSt11char_traitsIcESaIcEEESt4pairIKS5_St6vectorIN11imagefusion6option6OptionESaISB_EEESt10_Select1stISE_ESt4lessIS5_ESaISE_EE24_M_get_insert_unique_posERS7_"
 "_ZNSt8_Rb_treeINSt7__cxx1112basic_stringIcSt11char_traitsIcESaIcEEESt4pairIKS5_St6vectorIN11imagefusion6option6OptionESaISB_EEESt10_Select1stISE_ESt4lessIS5_ESaISE_EE8_M_eraseEPSt13_Rb_tree_nodeISE_E"
 "_ZNSt8_Rb_treeIiSt4pairIKiN11imagefusion5ImageEESt10_Select1stIS4_ESt4lessIiESaIS4_EE22_M_emplace_hint_uniqueIJRKSt21piecewise_construct_tSt5tupleIJRS1_EESF_IJEEEEESt17_Rb_tree_iteratorIS4_ESt23_Rb_tree_const_iteratorIS4_EDpOT_"
 "_ZNSt8_Rb_treeIiSt4pairIKiN11imagefusion5ImageEESt10_Select1stIS4_ESt4lessIiESaIS4_EE24_M_get_insert_unique_posERS1_"
 "_ZNSt8_Rb_treeIiSt4pairIKiN11imagefusion5ImageEESt10_Select1stIS4_ESt4lessIiESaIS4_EE8_M_eraseEPSt13_Rb_tree_nodeIS4_E"
 "_ZNSt8functionIFN11imagefusion6option9ArgStatusERKNS1_6OptionEEEC1ERKS7_"
 "_ZSt19piecewise_construct"
 "_ZStplIcSt11char_traitsIcESaIcEENSt7__cxx1112basic_stringIT_T0_T1_EEOS8_PKS5_"
 "_ZStplIcSt11char_traitsIcESaIcEENSt7__cxx1112basic_stringIT_T0_T1_EEOS8_RKS8_"
 "_ZStplIcSt11char_traitsIcESaIcEENSt7__cxx1112basic_stringIT_T0_T1_EEOS8_S9_"
 "_ZStplIcSt11char_traitsIcESaIcEENSt7__cxx1112basic_stringIT_T0_T1_EEPKS5_OS8_"
 "_ZStplIcSt11char_traitsIcESaIcEENSt7__cxx1112basic_stringIT_T0_T1_EEPKS5_RKS8_"
 "_ZStplIcSt11char_traitsIcESaIcEENSt7__cxx1112basic_stringIT_T0_T1_EERKS8_OS8_"
 "_ZTCN11imagefusion10size_errorE0_NS_13runtime_errorE"
 "_ZTCN11imagefusion15not_found_errorE0_NS_13runtime_errorE"
 "_ZTCN11imagefusion16image_type_errorE0_NS_13runtime_errorE"
 "_ZTCN11imagefusion22invalid_argument_errorE0_NS_13runtime_errorE"
 "_ZTCN4Rcpp8RostreamILb0EEE0_So"
 "_ZTCN4Rcpp8RostreamILb1EEE0_So"
 "_ZTCN5boost10wrapexceptISt12domain_errorEE0_NS_16exception_detail10clone_implINS3_19error_info_injectorIS1_EEEE"
 "_ZTCN5boost10wrapexceptISt14overflow_errorEE0_NS_16exception_detail10clone_implINS3_19error_info_injectorIS1_EEEE"
 "_ZTIFN11imagefusion6option9ArgStatusERKNS0_6OptionEE"
 "_ZTIN11imagefusion10ConstImageE"
 "_ZTIN11imagefusion10size_errorE"
 "_ZTIN11imagefusion11logic_errorE"
 "_ZTIN11imagefusion12FitFCOptionsE"
 "_ZTIN11imagefusion12ParallelizerINS_11StarfmFusorENS_13StarfmOptionsEEE"
 "_ZTIN11imagefusion12ParallelizerINS_12EstarfmFusorENS_14EstarfmOptionsEEE"
 "_ZTIN11imagefusion13SpstfmOptionsE"
 "_ZTIN11imagefusion13StarfmOptionsE"
 "_ZTIN11imagefusion13runtime_errorE"
 "_ZTIN11imagefusion14EstarfmOptionsE"
 "_ZTIN11imagefusion14MultiResImagesE"
 "_ZTIN11imagefusion15not_found_errorE"
 "_ZTIN11imagefusion16image_type_errorE"
 "_ZTIN11imagefusion18MultiResCollectionINS_5ImageEEE"
 "_ZTIN11imagefusion19ParallelizerOptionsINS_13StarfmOptionsEEE"
 "_ZTIN11imagefusion19ParallelizerOptionsINS_14EstarfmOptionsEEE"
 "_ZTIN11imagefusion22invalid_argument_errorE"
 "_ZTIN11imagefusion5ImageE"
 "_ZTIN11imagefusion7OptionsE"
 "_ZTIN11imagefusion9DataFusorE"
 "_ZTIN4Rcpp10RstreambufILb0EEE"
 "_ZTIN4Rcpp10RstreambufILb1EEE"
 "_ZTIN4Rcpp10eval_errorE"
 "_ZTIN4Rcpp14not_compatibleE"
 "_ZTIN4Rcpp22embedded_nul_in_stringE"
 "_ZTIN4Rcpp8RostreamILb0EEE"
 "_ZTIN4Rcpp8RostreamILb1EEE"
 "_ZTIN4Rcpp8internal20InterruptedExceptionE"
 "_ZTIN4Rcpp9exceptionE"
 "_ZTIN5boost10error_infoIN11imagefusion14tag_image_typeENS1_4TypeEEE"
 "_ZTIN5boost10error_infoIN11imagefusion18tag_resolution_tagENSt7__cxx1112basic_stringIcSt11char_traitsIcESaIcEEEEE"
 "_ZTIN5boost10error_infoIN11imagefusion8tag_dateEiEE"
 "_ZTIN5boost10error_infoIN11imagefusion8tag_sizeEN2cv5Size_IiEEEE"
 "_ZTIN5boost10wrapexceptISt12domain_errorEE"
 "_ZTIN5boost10wrapexceptISt14overflow_errorEE"
 "_ZTIN5boost16exception_detail10bad_alloc_E"
 "_ZTIN5boost16exception_detail10clone_baseE"
 "_ZTIN5boost16exception_detail10clone_implINS0_10bad_alloc_EEE"
 "_ZTIN5boost16exception_detail10clone_implINS0_14bad_exception_EEE"
 "_ZTIN5boost16exception_detail10clone_implINS0_19error_info_injectorISt12domain_errorEEEE"
 "_ZTIN5boost16exception_detail10clone_implINS0_19error_info_injectorISt14overflow_errorEEEE"
 "_ZTIN5boost16exception_detail14bad_exception_E"
 "_ZTIN5boost16exception_detail15error_info_baseE"
 "_ZTIN5boost16exception_detail19error_info_injectorISt12domain_errorEE"
 "_ZTIN5boost16exception_detail19error_info_injectorISt14overflow_errorEE"
 "_ZTIN5boost16exception_detail20error_info_containerE"
 "_ZTIN5boost16exception_detail25error_info_container_implE"
 "_ZTIN5boost6detail15sp_counted_baseE"
 "_ZTIN5boost6detail17sp_counted_impl_pINS_10error_infoIN11imagefusion14tag_image_typeENS3_4TypeEEEEE"
 "_ZTIN5boost6detail17sp_counted_impl_pINS_10error_infoIN11imagefusion18tag_resolution_tagENSt7__cxx1112basic_stringIcSt11char_traitsIcESaIcEEEEEEE"
 "_ZTIN5boost6detail17sp_counted_impl_pINS_10error_infoIN11imagefusion8tag_dateEiEEEE"
 "_ZTIN5boost6detail17sp_counted_impl_pINS_10error_infoIN11imagefusion8tag_sizeEN2cv5Size_IiEEEEEE"
 "_ZTIN5boost6detail17sp_counted_impl_pINS_16exception_detail10clone_implINS2_10bad_alloc_EEEEE"
 "_ZTIN5boost6detail17sp_counted_impl_pINS_16exception_detail10clone_implINS2_14bad_exception_EEEEE"
 "_ZTIN5boost6detail17sp_counted_impl_pINS_16exception_detail15error_info_baseEEE"
 "_ZTIN5boost9exceptionE"
 "_ZTINSt10filesystem7__cxx1116filesystem_errorE"
 "_ZTINSt6locale5facetE"
 "_ZTIPFN11imagefusion6option9ArgStatusERKNS0_6OptionEE"
 "_ZTISt11_Mutex_baseILN9__gnu_cxx12_Lock_policyE2EE"
 "_ZTISt11logic_error"
 "_ZTISt12codecvt_base"
 "_ZTISt12codecvt_utf8IwLm1114111ELSt12codecvt_mode0EE"
 "_ZTISt12domain_error"
 "_ZTISt12out_of_range"
 "_ZTISt12system_error"
 "_ZTISt13bad_exception"
 "_ZTISt13runtime_error"
 "_ZTISt14overflow_error"
 "_ZTISt16_Sp_counted_baseILN9__gnu_cxx12_Lock_policyE2EE"
 "_ZTISt19_Sp_make_shared_tag"
 "_ZTISt19__codecvt_utf8_baseIwE"
 "_ZTISt23_Sp_counted_ptr_inplaceIN11imagefusion14MultiResImagesESaIS1_ELN9__gnu_cxx12_Lock_policyE2EE"
 "_ZTISt23__codecvt_abstract_baseIwciE"
 "_ZTISt23enable_shared_from_thisIN11imagefusion18MultiResCollectionINS0_5ImageEEEE"
 "_ZTISt7codecvtIwciE"
 "_ZTISt9bad_alloc"
 "_ZTISt9exception"
 "_ZTSFN11imagefusion6option9ArgStatusERKNS0_6OptionEE"
 "_ZTSN11imagefusion10ConstImageE"
 "_ZTSN11imagefusion10size_errorE"
 "_ZTSN11imagefusion11logic_errorE"
 "_ZTSN11imagefusion12FitFCOptionsE"
 "_ZTSN11imagefusion12ParallelizerINS_11StarfmFusorENS_13StarfmOptionsEEE"
 "_ZTSN11imagefusion12ParallelizerINS_12EstarfmFusorENS_14EstarfmOptionsEEE"
 "_ZTSN11imagefusion13SpstfmOptionsE"
 "_ZTSN11imagefusion13StarfmOptionsE"
 "_ZTSN11imagefusion13runtime_errorE"
 "_ZTSN11imagefusion14EstarfmOptionsE"
 "_ZTSN11imagefusion14MultiResImagesE"
 "_ZTSN11imagefusion15not_found_errorE"
 "_ZTSN11imagefusion16image_type_errorE"
 "_ZTSN11imagefusion18MultiResCollectionINS_5ImageEEE"
 "_ZTSN11imagefusion19ParallelizerOptionsINS_13StarfmOptionsEEE"
 "_ZTSN11imagefusion19ParallelizerOptionsINS_14EstarfmOptionsEEE"
 "_ZTSN11imagefusion22invalid_argument_errorE"
 "_ZTSN11imagefusion5ImageE"
 "_ZTSN11imagefusion7OptionsE"
 "_ZTSN11imagefusion9DataFusorE"
 "_ZTSN4Rcpp10RstreambufILb0EEE"
 "_ZTSN4Rcpp10RstreambufILb1EEE"
 "_ZTSN4Rcpp10eval_errorE"
 "_ZTSN4Rcpp14not_compatibleE"
 "_ZTSN4Rcpp22embedded_nul_in_stringE"
 "_ZTSN4Rcpp8RostreamILb0EEE"
 "_ZTSN4Rcpp8RostreamILb1EEE"
 "_ZTSN4Rcpp8internal20InterruptedExceptionE"
 "_ZTSN4Rcpp9exceptionE"
 "_ZTSN5boost10error_infoIN11imagefusion14tag_image_typeENS1_4TypeEEE"
 "_ZTSN5boost10error_infoIN11imagefusion18tag_resolution_tagENSt7__cxx1112basic_stringIcSt11char_traitsIcESaIcEEEEE"
 "_ZTSN5boost10error_infoIN11imagefusion8tag_dateEiEE"
 "_ZTSN5boost10error_infoIN11imagefusion8tag_sizeEN2cv5Size_IiEEEE"
 "_ZTSN5boost10wrapexceptISt12domain_errorEE"
 "_ZTSN5boost10wrapexceptISt14overflow_errorEE"
 "_ZTSN5boost16exception_detail10bad_alloc_E"
 "_ZTSN5boost16exception_detail10clone_baseE"
 "_ZTSN5boost16exception_detail10clone_implINS0_10bad_alloc_EEE"
 "_ZTSN5boost16exception_detail10clone_implINS0_14bad_exception_EEE"
 "_ZTSN5boost16exception_detail10clone_implINS0_19error_info_injectorISt12domain_errorEEEE"
 "_ZTSN5boost16exception_detail10clone_implINS0_19error_info_injectorISt14overflow_errorEEEE"
 "_ZTSN5boost16exception_detail14bad_exception_E"
 "_ZTSN5boost16exception_detail15error_info_baseE"
 "_ZTSN5boost16exception_detail19error_info_injectorISt12domain_errorEE"
 "_ZTSN5boost16exception_detail19error_info_injectorISt14overflow_errorEE"
 "_ZTSN5boost16exception_detail20error_info_containerE"
 "_ZTSN5boost16exception_detail25error_info_container_implE"
 "_ZTSN5boost6detail15sp_counted_baseE"
 "_ZTSN5boost6detail17sp_counted_impl_pINS_10error_infoIN11imagefusion14tag_image_typeENS3_4TypeEEEEE"
 "_ZTSN5boost6detail17sp_counted_impl_pINS_10error_infoIN11imagefusion18tag_resolution_tagENSt7__cxx1112basic_stringIcSt11char_traitsIcESaIcEEEEEEE"
 "_ZTSN5boost6detail17sp_counted_impl_pINS_10error_infoIN11imagefusion8tag_dateEiEEEE"
 "_ZTSN5boost6detail17sp_counted_impl_pINS_10error_infoIN11imagefusion8tag_sizeEN2cv5Size_IiEEEEEE"
 "_ZTSN5boost6detail17sp_counted_impl_pINS_16exception_detail10clone_implINS2_10bad_alloc_EEEEE"
 "_ZTSN5boost6detail17sp_counted_impl_pINS_16exception_detail10clone_implINS2_14bad_exception_EEEEE"
 "_ZTSN5boost6detail17sp_counted_impl_pINS_16exception_detail15error_info_baseEEE"
 "_ZTSN5boost9exceptionE"
 "_ZTSNSt10filesystem7__cxx1116filesystem_errorE"
 "_ZTSNSt6locale5facetE"
 "_ZTSPFN11imagefusion6option9ArgStatusERKNS0_6OptionEE"
 "_ZTSPN11imagefusion14tag_image_typeE"
 "_ZTSPN11imagefusion18tag_resolution_tagE"
 "_ZTSPN11imagefusion8tag_dateE"
 "_ZTSPN11imagefusion8tag_sizeE"
 "_ZTSSt11_Mutex_baseILN9__gnu_cxx12_Lock_policyE2EE"
 "_ZTSSt11logic_error"
 "_ZTSSt12codecvt_base"
 "_ZTSSt12codecvt_utf8IwLm1114111ELSt12codecvt_mode0EE"
 "_ZTSSt12domain_error"
 "_ZTSSt12out_of_range"
 "_ZTSSt12system_error"
 "_ZTSSt13bad_exception"
 "_ZTSSt13runtime_error"
 "_ZTSSt14overflow_error"
 "_ZTSSt16_Sp_counted_baseILN9__gnu_cxx12_Lock_policyE2EE"
 "_ZTSSt19_Sp_make_shared_tag"
 "_ZTSSt19__codecvt_utf8_baseIwE"
 "_ZTSSt23_Sp_counted_ptr_inplaceIN11imagefusion14MultiResImagesESaIS1_ELN9__gnu_cxx12_Lock_policyE2EE"
 "_ZTSSt23__codecvt_abstract_baseIwciE"
 "_ZTSSt23enable_shared_from_thisIN11imagefusion18MultiResCollectionINS0_5ImageEEEE"
 "_ZTSSt7codecvtIwciE"
 "_ZTSSt9bad_alloc"
 "_ZTSSt9exception"
 "_ZTTN11imagefusion10size_errorE"
 "_ZTTN11imagefusion11logic_errorE"
 "_ZTTN11imagefusion13runtime_errorE"
 "_ZTTN11imagefusion15not_found_errorE"
 "_ZTTN11imagefusion16image_type_errorE"
 "_ZTTN11imagefusion22invalid_argument_errorE"
 "_ZTTN4Rcpp8RostreamILb0EEE"
 "_ZTTN4Rcpp8RostreamILb1EEE"
 "_ZTTN5boost10wrapexceptISt12domain_errorEE"
 "_ZTTN5boost10wrapexceptISt14overflow_errorEE"
 "_ZTTN5boost16exception_detail10clone_implINS0_10bad_alloc_EEE"
 "_ZTTN5boost16exception_detail10clone_implINS0_14bad_exception_EEE"
 "_ZTTN5boost16exception_detail10clone_implINS0_19error_info_injectorISt12domain_errorEEEE"
 "_ZTTN5boost16exception_detail10clone_implINS0_19error_info_injectorISt14overflow_errorEEEE"
 "_ZTVN11imagefusion10ConstImageE"
 "_ZTVN11imagefusion10size_errorE"
 "_ZTVN11imagefusion11logic_errorE"
 "_ZTVN11imagefusion12FitFCOptionsE"
 "_ZTVN11imagefusion12ParallelizerINS_11StarfmFusorENS_13StarfmOptionsEEE"
 "_ZTVN11imagefusion12ParallelizerINS_12EstarfmFusorENS_14EstarfmOptionsEEE"
 "_ZTVN11imagefusion13SpstfmOptionsE"
 "_ZTVN11imagefusion13StarfmOptionsE"
 "_ZTVN11imagefusion13runtime_errorE"
 "_ZTVN11imagefusion14EstarfmOptionsE"
 "_ZTVN11imagefusion14MultiResImagesE"
 "_ZTVN11imagefusion15not_found_errorE"
 "_ZTVN11imagefusion16image_type_errorE"
 "_ZTVN11imagefusion18MultiResCollectionINS_5ImageEEE"
 "_ZTVN11imagefusion19ParallelizerOptionsINS_13StarfmOptionsEEE"
 "_ZTVN11imagefusion19ParallelizerOptionsINS_14EstarfmOptionsEEE"
 "_ZTVN11imagefusion22invalid_argument_errorE"
 "_ZTVN11imagefusion5ImageE"
 "_ZTVN11imagefusion9DataFusorE"
 "_ZTVN4Rcpp10RstreambufILb0EEE"
 "_ZTVN4Rcpp10RstreambufILb1EEE"
 "_ZTVN4Rcpp10eval_errorE"
 "_ZTVN4Rcpp14not_compatibleE"
 "_ZTVN4Rcpp22embedded_nul_in_stringE"
 "_ZTVN4Rcpp8RostreamILb0EEE"
 "_ZTVN4Rcpp8RostreamILb1EEE"
 "_ZTVN4Rcpp9exceptionE"
 "_ZTVN5boost10error_infoIN11imagefusion14tag_image_typeENS1_4TypeEEE"
 "_ZTVN5boost10error_infoIN11imagefusion18tag_resolution_tagENSt7__cxx1112basic_stringIcSt11char_traitsIcESaIcEEEEE"
 "_ZTVN5boost10error_infoIN11imagefusion8tag_dateEiEE"
 "_ZTVN5boost10error_infoIN11imagefusion8tag_sizeEN2cv5Size_IiEEEE"
 "_ZTVN5boost10wrapexceptISt12domain_errorEE"
 "_ZTVN5boost10wrapexceptISt14overflow_errorEE"
 "_ZTVN5boost16exception_detail10bad_alloc_E"
 "_ZTVN5boost16exception_detail10clone_baseE"
 "_ZTVN5boost16exception_detail10clone_implINS0_10bad_alloc_EEE"
 "_ZTVN5boost16exception_detail10clone_implINS0_14bad_exception_EEE"
 "_ZTVN5boost16exception_detail10clone_implINS0_19error_info_injectorISt12domain_errorEEEE"
 "_ZTVN5boost16exception_detail10clone_implINS0_19error_info_injectorISt14overflow_errorEEEE"
 "_ZTVN5boost16exception_detail14bad_exception_E"
 "_ZTVN5boost16exception_detail19error_info_injectorISt12domain_errorEE"
 "_ZTVN5boost16exception_detail19error_info_injectorISt14overflow_errorEE"
 "_ZTVN5boost16exception_detail25error_info_container_implE"
 "_ZTVN5boost6detail17sp_counted_impl_pINS_10error_infoIN11imagefusion14tag_image_typeENS3_4TypeEEEEE"
 "_ZTVN5boost6detail17sp_counted_impl_pINS_10error_infoIN11imagefusion18tag_resolution_tagENSt7__cxx1112basic_stringIcSt11char_traitsIcESaIcEEEEEEE"
 "_ZTVN5boost6detail17sp_counted_impl_pINS_10error_infoIN11imagefusion8tag_dateEiEEEE"
 "_ZTVN5boost6detail17sp_counted_impl_pINS_10error_infoIN11imagefusion8tag_sizeEN2cv5Size_IiEEEEEE"
 "_ZTVN5boost6detail17sp_counted_impl_pINS_16exception_detail10clone_implINS2_10bad_alloc_EEEEE"
 "_ZTVN5boost6detail17sp_counted_impl_pINS_16exception_detail10clone_implINS2_14bad_exception_EEEEE"
 "_ZTVN5boost6detail17sp_counted_impl_pINS_16exception_detail15error_info_baseEEE"
 "_ZTVN5boost9exceptionE"
 "_ZTVSt12codecvt_utf8IwLm1114111ELSt12codecvt_mode0EE"
 "_ZTVSt23_Sp_counted_ptr_inplaceIN11imagefusion14MultiResImagesESaIS1_ELN9__gnu_cxx12_Lock_policyE2EE"
 "_ZThn16_N5boost10wrapexceptISt12domain_errorED0Ev"
 "_ZThn16_N5boost10wrapexceptISt12domain_errorED1Ev"
 "_ZThn16_N5boost10wrapexceptISt14overflow_errorED0Ev"
 "_ZThn16_N5boost10wrapexceptISt14overflow_errorED1Ev"
 "_ZThn16_N5boost16exception_detail10clone_implINS0_19error_info_injectorISt12domain_errorEEED0Ev"
 "_ZThn16_N5boost16exception_detail10clone_implINS0_19error_info_injectorISt12domain_errorEEED1Ev"
 "_ZThn16_N5boost16exception_detail10clone_implINS0_19error_info_injectorISt14overflow_errorEEED0Ev"
 "_ZThn16_N5boost16exception_detail10clone_implINS0_19error_info_injectorISt14overflow_errorEEED1Ev"
 "_ZThn16_N5boost16exception_detail19error_info_injectorISt12domain_errorED0Ev"
 "_ZThn16_N5boost16exception_detail19error_info_injectorISt12domain_errorED1Ev"
 "_ZThn16_N5boost16exception_detail19error_info_injectorISt14overflow_errorED0Ev"
 "_ZThn16_N5boost16exception_detail19error_info_injectorISt14overflow_errorED1Ev"
 "_ZThn40_N5boost16exception_detail10bad_alloc_D0Ev"
 "_ZThn40_N5boost16exception_detail10bad_alloc_D1Ev"
 "_ZThn40_N5boost16exception_detail10clone_implINS0_10bad_alloc_EED0Ev"
 "_ZThn40_N5boost16exception_detail10clone_implINS0_10bad_alloc_EED1Ev"
 "_ZThn40_N5boost16exception_detail10clone_implINS0_14bad_exception_EED0Ev"
 "_ZThn40_N5boost16exception_detail10clone_implINS0_14bad_exception_EED1Ev"
 "_ZThn40_N5boost16exception_detail14bad_exception_D0Ev"
 "_ZThn40_N5boost16exception_detail14bad_exception_D1Ev"
 "_ZTv0_n24_N11imagefusion10size_errorD0Ev"
 "_ZTv0_n24_N11imagefusion10size_errorD1Ev"
 "_ZTv0_n24_N11imagefusion11logic_errorD0Ev"
 "_ZTv0_n24_N11imagefusion11logic_errorD1Ev"
 "_ZTv0_n24_N11imagefusion13runtime_errorD0Ev"
 "_ZTv0_n24_N11imagefusion13runtime_errorD1Ev"
 "_ZTv0_n24_N11imagefusion15not_found_errorD0Ev"
 "_ZTv0_n24_N11imagefusion15not_found_errorD1Ev"
 "_ZTv0_n24_N11imagefusion16image_type_errorD0Ev"
 "_ZTv0_n24_N11imagefusion16image_type_errorD1Ev"
 "_ZTv0_n24_N11imagefusion22invalid_argument_errorD0Ev"
 "_ZTv0_n24_N11imagefusion22invalid_argument_errorD1Ev"
 "_ZTv0_n24_N4Rcpp8RostreamILb0EED0Ev"
 "_ZTv0_n24_N4Rcpp8RostreamILb0EED1Ev"
 "_ZTv0_n24_N4Rcpp8RostreamILb1EED0Ev"
 "_ZTv0_n24_N4Rcpp8RostreamILb1EED1Ev"
 "_ZTv0_n24_NK5boost16exception_detail10clone_implINS0_10bad_alloc_EE5cloneEv"
 "_ZTv0_n24_NK5boost16exception_detail10clone_implINS0_14bad_exception_EE5cloneEv"
 "_ZTv0_n24_NK5boost16exception_detail10clone_implINS0_19error_info_injectorISt12domain_errorEEE5cloneEv"
 "_ZTv0_n24_NK5boost16exception_detail10clone_implINS0_19error_info_injectorISt14overflow_errorEEE5cloneEv"
 "_ZTv0_n32_NK5boost16exception_detail10clone_implINS0_10bad_alloc_EE7rethrowEv"
 "_ZTv0_n32_NK5boost16exception_detail10clone_implINS0_14bad_exception_EE7rethrowEv"
 "_ZTv0_n32_NK5boost16exception_detail10clone_implINS0_19error_info_injectorISt12domain_errorEEE7rethrowEv"
 "_ZTv0_n32_NK5boost16exception_detail10clone_implINS0_19error_info_injectorISt14overflow_errorEEE7rethrowEv"
 "_ZTv0_n40_N11imagefusion10size_errorD0Ev"
 "_ZTv0_n40_N11imagefusion10size_errorD1Ev"
 "_ZTv0_n40_N11imagefusion15not_found_errorD0Ev"
 "_ZTv0_n40_N11imagefusion15not_found_errorD1Ev"
 "_ZTv0_n40_N11imagefusion16image_type_errorD0Ev"
 "_ZTv0_n40_N11imagefusion16image_type_errorD1Ev"
 "_ZTv0_n40_N11imagefusion22invalid_argument_errorD0Ev"
 "_ZTv0_n40_N11imagefusion22invalid_argument_errorD1Ev"
 "_ZTv0_n40_N5boost10wrapexceptISt12domain_errorED0Ev"
 "_ZTv0_n40_N5boost10wrapexceptISt12domain_errorED1Ev"
 "_ZTv0_n40_N5boost10wrapexceptISt14overflow_errorED0Ev"
 "_ZTv0_n40_N5boost10wrapexceptISt14overflow_errorED1Ev"
 "_ZTv0_n40_N5boost16exception_detail10clone_implINS0_10bad_alloc_EED0Ev"
 "_ZTv0_n40_N5boost16exception_detail10clone_implINS0_10bad_alloc_EED1Ev"
 "_ZTv0_n40_N5boost16exception_detail10clone_implINS0_14bad_exception_EED0Ev"
 "_ZTv0_n40_N5boost16exception_detail10clone_implINS0_14bad_exception_EED1Ev"
 "_ZTv0_n40_N5boost16exception_detail10clone_implINS0_19error_info_injectorISt12domain_errorEEED0Ev"
 "_ZTv0_n40_N5boost16exception_detail10clone_implINS0_19error_info_injectorISt12domain_errorEEED1Ev"
 "_ZTv0_n40_N5boost16exception_detail10clone_implINS0_19error_info_injectorISt14overflow_errorEEED0Ev"
 "_ZTv0_n40_N5boost16exception_detail10clone_implINS0_19error_info_injectorISt14overflow_errorEEED1Ev"
 "_ZZ19char_get_string_eltP7SEXPRECxE3fun"
 "_ZZ7dataptrP7SEXPRECE3fun"
 "_ZZN4arma16arma_cerr_streamIcEERSoPSoE11cerr_stream"
 "_ZZN5boost16exception_detail27get_static_exception_objectINS0_10bad_alloc_EEENS_13exception_ptrEvE2ep"
 "_ZZN5boost16exception_detail27get_static_exception_objectINS0_14bad_exception_EEENS_13exception_ptrEvE2ep"
 "_ZZN5boost3icl16identity_elementIdE5valueEvE6_value"
 "_ZZN5boost4math6detail9log1p_impIeNS0_8policies6policyINS3_13promote_floatILb0EEENS3_14promote_doubleILb0EEENS3_14default_policyES9_S9_S9_S9_S9_S9_S9_S9_S9_S9_EEEET_RKSB_RKT0_RKN4mpl_4int_ILi64EEEE1P"
 "_ZZN5boost4math6detail9log1p_impIeNS0_8policies6policyINS3_13promote_floatILb0EEENS3_14promote_doubleILb0EEENS3_14default_policyES9_S9_S9_S9_S9_S9_S9_S9_S9_S9_EEEET_RKSB_RKT0_RKN4mpl_4int_ILi64EEEE1Q"
 "_ZZN5boost4math6detail9log1p_impIeNS0_8policies6policyINS3_13promote_floatILb0EEENS3_14promote_doubleILb0EEENS3_14default_policyES9_S9_S9_S9_S9_S9_S9_S9_S9_S9_EEEET_RKSB_RKT0_RKN4mpl_4int_ILi64EEEE8function"
 "_ZZN5boost4math7lanczos12lanczos17m6411lanczos_sumIeEET_RKS4_E3num"
 "_ZZN5boost4math7lanczos12lanczos17m6411lanczos_sumIeEET_RKS4_E5denom"
 "_ZZN5boost4math7lanczos12lanczos17m6418lanczos_sum_near_1IeEET_RKS4_E1d"
 "_ZZN5boost4math7lanczos12lanczos17m6418lanczos_sum_near_2IeEET_RKS4_E1d"
 "_ZZN5boost4math7lanczos12lanczos17m6423lanczos_sum_expG_scaledIeEET_RKS4_E3num"
 "_ZZN5boost4math7lanczos12lanczos17m6423lanczos_sum_expG_scaledIeEET_RKS4_E5denom"
 "_ZZNSt19_Sp_make_shared_tag5_S_tiEvE5__tag"
 "R_init_ImageFusion"
 "_ImageFusion_execute_estarfm_job_cpp"
 "_ImageFusion_execute_fitfc_job_cpp"
 "_ImageFusion_execute_imginterp_job_cpp"
 "_ImageFusion_execute_spstfm_job_cpp"
 "_ImageFusion_execute_starfm_job_cpp"
 "_Z19string_to_try_errorRKNSt7__cxx1112basic_stringIcSt11char_traitsIcESaIcEEE"
 "_Z31exception_to_condition_templateIN4Rcpp9exceptionEEP7SEXPRECRKT_b"
 "_Z31exception_to_condition_templateISt9exceptionEP7SEXPRECRKT_b"
 "_ZGVN4arma5DatumIdE3nanE"
 "_ZGVN4arma5DatumIiE3nanE"
 "_ZGVZ20rcpp_get_stack_tracevE3fun"
 "_ZGVZ20rcpp_set_stack_traceP7SEXPRECE3fun"
 "_ZGVZ7dataptrP7SEXPRECE3fun"
 "_ZGVZ8demangleRKNSt7__cxx1112basic_stringIcSt11char_traitsIcESaIcEEEE3funB5cxx11"
 "_ZGVZN4Rcpp8internal12exitRNGScopeEvE3fun"
 "_ZGVZN4Rcpp8internal13enterRNGScopeEvE3fun"
 "_ZN10tinyformat6detail15formatTruncatedIiEEvRSoRKT_i"
 "_ZN10tinyformat6detail21streamStateFromFormatERSoRbRiPKcPKNS0_9FormatArgES3_i"
 "_ZN10tinyformat6detail9FormatArg10formatImplIPKcEEvRSoS4_S4_iPKv"
 "_ZN10tinyformat6detail9FormatArg10formatImplIiEEvRSoPKcS5_iPKv"
 "_ZN10tinyformat6detail9FormatArg9toIntImplIPKcEEiPKv"
 "_ZN10tinyformat6detail9FormatArg9toIntImplIiEEiPKv"
 "_ZN10tinyformat6formatIJEEENSt7__cxx1112basic_stringIcSt11char_traitsIcESaIcEEEPKcDpRKT_"
 "_ZN10tinyformat6formatIJPKcEEENSt7__cxx1112basic_stringIcSt11char_traitsIcESaIcEEES2_DpRKT_"
 "_ZN10tinyformat6formatIJPKcS2_EEENSt7__cxx1112basic_stringIcSt11char_traitsIcESaIcEEES2_DpRKT_"
 "_ZN10tinyformat6formatIJPKciEEENSt7__cxx1112basic_stringIcSt11char_traitsIcESaIcEEES2_DpRKT_"
 "_ZN10tinyformat6formatIJiEEENSt7__cxx1112basic_stringIcSt11char_traitsIcESaIcEEEPKcDpRKT_"
 "_ZN4Rcpp10RstreambufILb0EE4syncEv"
 "_ZN4Rcpp10RstreambufILb0EE6xsputnEPKcx"
 "_ZN4Rcpp10RstreambufILb0EE8overflowEi"
 "_ZN4Rcpp10RstreambufILb0EED0Ev"
 "_ZN4Rcpp10RstreambufILb0EED1Ev"
 "_ZN4Rcpp10RstreambufILb1EE4syncEv"
 "_ZN4Rcpp10RstreambufILb1EE6xsputnEPKcx"
 "_ZN4Rcpp10RstreambufILb1EE8overflowEi"
 "_ZN4Rcpp10RstreambufILb1EED0Ev"
 "_ZN4Rcpp10RstreambufILb1EED1Ev"
 "_ZN4Rcpp10eval_errorD0Ev"
 "_ZN4Rcpp10eval_errorD1Ev"
 "_ZN4Rcpp14not_compatibleD0Ev"
 "_ZN4Rcpp14not_compatibleD1Ev"
 "_ZN4Rcpp4stopERKNSt7__cxx1112basic_stringIcSt11char_traitsIcESaIcEEE"
 "_ZN4Rcpp4stopIJEEEvPKcDpOT_"
 "_ZN4Rcpp6r_castILi13EEEP7SEXPRECS2_"
 "_ZN4Rcpp6r_castILi16EEEP7SEXPRECS2_"
 "_ZN4Rcpp8RostreamILb0EED0Ev"
 "_ZN4Rcpp8RostreamILb0EED1Ev"
 "_ZN4Rcpp8RostreamILb1EED0Ev"
 "_ZN4Rcpp8RostreamILb1EED1Ev"
 "_ZN4Rcpp8internal10basic_castILi10EEEP7SEXPRECS3_"
 "_ZN4Rcpp8internal10basic_castILi13EEEP7SEXPRECS3_"
 "_ZN4Rcpp8internal10basic_castILi14EEEP7SEXPRECS3_"
 "_ZN4Rcpp8internal10resumeJumpEP7SEXPREC"
 "_ZN4Rcpp8internal12exitRNGScopeEv"
 "_ZN4Rcpp8internal12primitive_asIbEET_P7SEXPREC"
 "_ZN4Rcpp8internal12primitive_asIdEET_P7SEXPREC"
 "_ZN4Rcpp8internal12primitive_asIiEET_P7SEXPREC"
 "_ZN4Rcpp8internal3nthEP7SEXPRECi"
 "_ZN4Rcpp9Rcpp_evalEP7SEXPRECS1_"
 "_ZN4Rcpp9exceptionD0Ev"
 "_ZN4Rcpp9exceptionD1Ev"
 "_ZN4arma5DatumIdE3nanE"
 "_ZN4arma5DatumIiE3nanE"
 "_ZNK4Rcpp10eval_error4whatEv"
 "_ZNK4Rcpp14not_compatible4whatEv"
 "_ZNK4Rcpp9exception21copy_stack_trace_to_rEv"
 "_ZNK4Rcpp9exception4whatEv"
 "_ZNKSt5ctypeIcE8do_widenEc"
 "_ZNSt7__cxx1112basic_stringIcSt11char_traitsIcESaIcEE10_M_replaceEyyPKcy"
 "_ZNSt7__cxx1112basic_stringIcSt11char_traitsIcESaIcEE12_M_constructIPKcEEvT_S8_St20forward_iterator_tag"
 "_ZNSt7__cxx1112basic_stringIcSt11char_traitsIcESaIcEE12_M_constructIPcEEvT_S7_St20forward_iterator_tag"
 "_ZNSt7__cxx1112basic_stringIcSt11char_traitsIcESaIcEE9_M_appendEPKcy"
 "_ZNSt7__cxx1112basic_stringIcSt11char_traitsIcESaIcEE9_M_assignERKS4_"
 "_ZNSt7__cxx1112basic_stringIcSt11char_traitsIcESaIcEE9_M_mutateEyyPKcy"
 "_ZNSt7__cxx1115basic_stringbufIcSt11char_traitsIcESaIcEED1Ev"
 "_ZTCN4Rcpp8RostreamILb0EEE0_So"
 "_ZTCN4Rcpp8RostreamILb1EEE0_So"
 "_ZTIN4Rcpp10RstreambufILb0EEE"
 "_ZTIN4Rcpp10RstreambufILb1EEE"
 "_ZTIN4Rcpp10eval_errorE"
 "_ZTIN4Rcpp14not_compatibleE"
 "_ZTIN4Rcpp17LongjumpExceptionE"
 "_ZTIN4Rcpp8RostreamILb0EEE"
 "_ZTIN4Rcpp8RostreamILb1EEE"
 "_ZTIN4Rcpp8internal20InterruptedExceptionE"
 "_ZTIN4Rcpp9exceptionE"
 "_ZTISt9exception"
 "_ZTSN4Rcpp10RstreambufILb0EEE"
 "_ZTSN4Rcpp10RstreambufILb1EEE"
 "_ZTSN4Rcpp10eval_errorE"
 "_ZTSN4Rcpp14not_compatibleE"
 "_ZTSN4Rcpp17LongjumpExceptionE"
 "_ZTSN4Rcpp8RostreamILb0EEE"
 "_ZTSN4Rcpp8RostreamILb1EEE"
 "_ZTSN4Rcpp8internal20InterruptedExceptionE"
 "_ZTSN4Rcpp9exceptionE"
 "_ZTSSt9exception"
 "_ZTTN4Rcpp8RostreamILb0EEE"
 "_ZTTN4Rcpp8RostreamILb1EEE"
 "_ZTVN4Rcpp10RstreambufILb0EEE"
 "_ZTVN4Rcpp10RstreambufILb1EEE"
 "_ZTVN4Rcpp10eval_errorE"
 "_ZTVN4Rcpp14not_compatibleE"
 "_ZTVN4Rcpp8RostreamILb0EEE"
 "_ZTVN4Rcpp8RostreamILb1EEE"
 "_ZTVN4Rcpp9exceptionE"
 "_ZTv0_n24_N4Rcpp8RostreamILb0EED0Ev"
 "_ZTv0_n24_N4Rcpp8RostreamILb0EED1Ev"
 "_ZTv0_n24_N4Rcpp8RostreamILb1EED0Ev"
 "_ZTv0_n24_N4Rcpp8RostreamILb1EED1Ev"
 "_ZZ20rcpp_get_stack_tracevE3fun"
 "_ZZ20rcpp_set_stack_traceP7SEXPRECE3fun"
 "_ZZ7dataptrP7SEXPRECE3fun"
 "_ZZ8demangleRKNSt7__cxx1112basic_stringIcSt11char_traitsIcESaIcEEEE3funB5cxx11"
 "_ZZN4Rcpp8internal12exitRNGScopeEvE3fun"
 "_ZZN4Rcpp8internal13enterRNGScopeEvE3fun"
 "_Z25execute_imginterp_job_cppbRKNSt7__cxx1112basic_stringIcSt11char_traitsIcESaIcEEE"
 "_ZGVN5boost16exception_detail37exception_ptr_static_exception_objectINS0_10bad_alloc_EE1eE"
 "_ZGVN5boost16exception_detail37exception_ptr_static_exception_objectINS0_14bad_exception_EE1eE"
 "_ZGVN7cvflann7anyimpl12SinglePolicyINS0_9empty_anyEE6policyE"
 "_ZGVN7cvflann7anyimpl12SinglePolicyINS_17flann_algorithm_tEE6policyE"
 "_ZGVN7cvflann7anyimpl12SinglePolicyINS_20flann_centers_init_tEE6policyE"
 "_ZGVN7cvflann7anyimpl12SinglePolicyINSt7__cxx1112basic_stringIcSt11char_traitsIcESaIcEEEE6policyE"
 "_ZGVN7cvflann7anyimpl12SinglePolicyIPKcE6policyE"
 "_ZGVN7cvflann7anyimpl12SinglePolicyIbE6policyE"
 "_ZGVN7cvflann7anyimpl12SinglePolicyIfE6policyE"
 "_ZGVN7cvflann7anyimpl12SinglePolicyIiE6policyE"
 "_ZGVN7cvflann7anyimpl12SinglePolicyIjE6policyE"
 "_ZGVZN5boost16exception_detail27get_static_exception_objectINS0_10bad_alloc_EEENS_13exception_ptrEvE2ep"
 "_ZGVZN5boost16exception_detail27get_static_exception_objectINS0_14bad_exception_EEENS_13exception_ptrEvE2ep"
 "_ZN10ArgChecker2QLILb0ELb1EEEN11imagefusion6option9ArgStatusERKNS2_6OptionE"
 "_ZN11imagefusion10ConstImageC2EiiNS_4TypeE"
 "_ZN11imagefusion10ConstImageD0Ev"
 "_ZN11imagefusion10ConstImageD1Ev"
 "_ZN11imagefusion10size_errorC1ERKS0_"
 "_ZN11imagefusion10size_errorD0Ev"
 "_ZN11imagefusion10size_errorD1Ev"
 "_ZN11imagefusion10toFullTypeEi"
 "_ZN11imagefusion11getFullTypeENS_4TypeEh"
 "_ZN11imagefusion11logic_errorC1ERKS0_"
 "_ZN11imagefusion11logic_errorD0Ev"
 "_ZN11imagefusion11logic_errorD1Ev"
 "_ZN11imagefusion13runtime_errorD0Ev"
 "_ZN11imagefusion13runtime_errorD1Ev"
 "_ZN11imagefusion14MultiResImagesD0Ev"
 "_ZN11imagefusion14MultiResImagesD1Ev"
 "_ZN11imagefusion15not_found_errorC1ERKS0_"
 "_ZN11imagefusion15not_found_errorD0Ev"
 "_ZN11imagefusion15not_found_errorD1Ev"
 "_ZN11imagefusion16image_type_errorD0Ev"
 "_ZN11imagefusion16image_type_errorD1Ev"
 "_ZN11imagefusion18MultiResCollectionINS_5ImageEE3setERKNSt7__cxx1112basic_stringIcSt11char_traitsIcESaIcEEEiS1_"
 "_ZN11imagefusion18MultiResCollectionINS_5ImageEE6removeERKNSt7__cxx1112basic_stringIcSt11char_traitsIcESaIcEEEi"
 "_ZN11imagefusion18MultiResCollectionINS_5ImageEED0Ev"
 "_ZN11imagefusion18MultiResCollectionINS_5ImageEED1Ev"
 "_ZN11imagefusion18MultiResCollectionINS_7GeoInfoEED0Ev"
 "_ZN11imagefusion18MultiResCollectionINS_7GeoInfoEED1Ev"
 "_ZN11imagefusion18MultiResCollectionINSt7__cxx1112basic_stringIcSt11char_traitsIcESaIcEEEE3setERKS6_iS6_"
 "_ZN11imagefusion18MultiResCollectionINSt7__cxx1112basic_stringIcSt11char_traitsIcESaIcEEEED0Ev"
 "_ZN11imagefusion18MultiResCollectionINSt7__cxx1112basic_stringIcSt11char_traitsIcESaIcEEEED1Ev"
 "_ZN11imagefusion22invalid_argument_errorC1ERKS0_"
 "_ZN11imagefusion22invalid_argument_errorD0Ev"
 "_ZN11imagefusion22invalid_argument_errorD1Ev"
 "_ZN11imagefusion4swapERNS_7GeoInfoES1_"
 "_ZN11imagefusion5ImageC1EOS0_"
 "_ZN11imagefusion5ImageC1ERKS0_"
 "_ZN11imagefusion5ImageD0Ev"
 "_ZN11imagefusion5ImageD1Ev"
 "_ZN11imagefusion6option10ArgChecker6MRMaskILb0ELb1EEENS0_9ArgStatusERKNS0_6OptionE"
 "_ZN11imagefusion6option10ArgChecker7MRImageILb0ELb1EEENS0_9ArgStatusERKNS0_6OptionE"
 "_ZN11imagefusion6option10Descriptor10breakTableEv"
 "_ZN11imagefusion6option10Descriptor4textERKNSt7__cxx1112basic_stringIcSt11char_traitsIcESaIcEEE"
 "_ZN11imagefusion6option10DescriptorC1ERKS1_"
 "_ZN11imagefusion6option10DescriptorD1Ev"
 "_ZN11imagefusion6option10ImageInputD1Ev"
 "_ZN11imagefusion6option12OptionParser5parseENSt7__cxx1112basic_stringIcSt11char_traitsIcESaIcEEE"
 "_ZN11imagefusion6option12OptionParserD1Ev"
 "_ZN11imagefusion6option12OptionParserixENSt7__cxx1112basic_stringIcSt11char_traitsIcESaIcEEE"
 "_ZN11imagefusion7GeoInfoC1ERKS0_"
 "_ZN11imagefusion7GeoInfoD1Ev"
 "_ZN11imagefusion9to_stringB5cxx11ENS_4TypeE"
 "_ZN11imagefusion9to_stringB5cxx11ERKN2cv5Size_IiEE"
 "_ZN2cv3MatD1Ev"
 "_ZN4Rcpp10RstreambufILb0EE4syncEv"
 "_ZN4Rcpp10RstreambufILb0EE6xsputnEPKcx"
 "_ZN4Rcpp10RstreambufILb0EE8overflowEi"
 "_ZN4Rcpp10RstreambufILb0EED0Ev"
 "_ZN4Rcpp10RstreambufILb0EED1Ev"
 "_ZN4Rcpp10RstreambufILb1EE4syncEv"
 "_ZN4Rcpp10RstreambufILb1EE6xsputnEPKcx"
 "_ZN4Rcpp10RstreambufILb1EE8overflowEi"
 "_ZN4Rcpp10RstreambufILb1EED0Ev"
 "_ZN4Rcpp10RstreambufILb1EED1Ev"
 "_ZN4Rcpp8RostreamILb0EED0Ev"
 "_ZN4Rcpp8RostreamILb0EED1Ev"
 "_ZN4Rcpp8RostreamILb1EED0Ev"
 "_ZN4Rcpp8RostreamILb1EED1Ev"
 "_ZN5boost10error_infoIN11imagefusion14tag_image_typeENS1_4TypeEED0Ev"
 "_ZN5boost10error_infoIN11imagefusion14tag_image_typeENS1_4TypeEED1Ev"
 "_ZN5boost10error_infoIN11imagefusion18tag_resolution_tagENSt7__cxx1112basic_stringIcSt11char_traitsIcESaIcEEEED0Ev"
 "_ZN5boost10error_infoIN11imagefusion18tag_resolution_tagENSt7__cxx1112basic_stringIcSt11char_traitsIcESaIcEEEED1Ev"
 "_ZN5boost10error_infoIN11imagefusion8tag_dateEiED0Ev"
 "_ZN5boost10error_infoIN11imagefusion8tag_dateEiED1Ev"
 "_ZN5boost10error_infoIN11imagefusion8tag_sizeEN2cv5Size_IiEEED0Ev"
 "_ZN5boost10error_infoIN11imagefusion8tag_sizeEN2cv5Size_IiEEED1Ev"
 "_ZN5boost16exception_detail10bad_alloc_D0Ev"
 "_ZN5boost16exception_detail10bad_alloc_D1Ev"
 "_ZN5boost16exception_detail10bad_alloc_D2Ev"
 "_ZN5boost16exception_detail10clone_implINS0_10bad_alloc_EED0Ev"
 "_ZN5boost16exception_detail10clone_implINS0_10bad_alloc_EED1Ev"
 "_ZN5boost16exception_detail10clone_implINS0_14bad_exception_EED0Ev"
 "_ZN5boost16exception_detail10clone_implINS0_14bad_exception_EED1Ev"
 "_ZN5boost16exception_detail11set_info_rvINS_10error_infoIN11imagefusion14tag_image_typeENS3_4TypeEEEE3setINS3_11logic_errorEEERKT_SC_OS6_"
 "_ZN5boost16exception_detail11set_info_rvINS_10error_infoIN11imagefusion14tag_image_typeENS3_4TypeEEEE3setINS3_16image_type_errorEEERKT_SC_OS6_"
 "_ZN5boost16exception_detail11set_info_rvINS_10error_infoIN11imagefusion18tag_resolution_tagENSt7__cxx1112basic_stringIcSt11char_traitsIcESaIcEEEEEE3setINS3_15not_found_errorEEERKT_SH_OSB_"
 "_ZN5boost16exception_detail11set_info_rvINS_10error_infoIN11imagefusion8tag_dateEiEEE3setINS3_15not_found_errorEEERKT_SB_OS5_"
 "_ZN5boost16exception_detail11set_info_rvINS_10error_infoIN11imagefusion8tag_sizeEN2cv5Size_IiEEEEE3setINS3_10size_errorEEERKT_SE_OS8_"
 "_ZN5boost16exception_detail14bad_exception_D0Ev"
 "_ZN5boost16exception_detail14bad_exception_D1Ev"
 "_ZN5boost16exception_detail14bad_exception_D2Ev"
 "_ZN5boost16exception_detail20copy_boost_exceptionEPNS_9exceptionEPKS1_"
 "_ZN5boost16exception_detail25error_info_container_impl3setERKNS_10shared_ptrINS0_15error_info_baseEEERKNS0_10type_info_E"
 "_ZN5boost16exception_detail27get_static_exception_objectINS0_10bad_alloc_EEENS_13exception_ptrEv"
 "_ZN5boost16exception_detail27get_static_exception_objectINS0_14bad_exception_EEENS_13exception_ptrEv"
 "_ZN5boost16exception_detail37exception_ptr_static_exception_objectINS0_10bad_alloc_EE1eE"
 "_ZN5boost16exception_detail37exception_ptr_static_exception_objectINS0_14bad_exception_EE1eE"
 "_ZN5boost3icl17interval_base_setINS0_12interval_setIdSt4lessNS0_19continuous_intervalIdS3_EESaEEdS3_S5_SaE4_addERKS5_"
 "_ZN5boost3icl17interval_base_setINS0_12interval_setIdSt4lessNS0_19continuous_intervalIdS3_EESaEEdS3_S5_SaE8subtractERKS5_"
 "_ZN5boost3icl4hullINS0_19continuous_intervalIdSt4lessEEEENS_9enable_ifINS0_18has_dynamic_boundsIT_EES7_E4typeES7_RKS7_"
 "_ZN5boost3icl9segmental10join_rightINS0_12interval_setIdSt4lessNS0_19continuous_intervalIdS4_EESaEEEENT_8iteratorERS8_RS9_"
 "_ZN5boost3icl9segmental9join_leftINS0_12interval_setIdSt4lessNS0_19continuous_intervalIdS4_EESaEEEENT_8iteratorERS8_RS9_"
 "_ZN5boost3iclpLINS0_12interval_setIdSt4lessNS0_19continuous_intervalIdS3_EESaEES6_EERNS_9enable_ifINS0_19is_intra_combinableIT_T0_EES9_E4typeERS9_RKSA_"
 "_ZN5boost6detail15sp_counted_base7destroyEv"
 "_ZN5boost6detail15sp_counted_base7releaseEv"
 "_ZN5boost6detail17sp_counted_impl_pINS_10error_infoIN11imagefusion14tag_image_typeENS3_4TypeEEEE11get_deleterERKSt9type_info"
 "_ZN5boost6detail17sp_counted_impl_pINS_10error_infoIN11imagefusion14tag_image_typeENS3_4TypeEEEE17get_local_deleterERKSt9type_info"
 "_ZN5boost6detail17sp_counted_impl_pINS_10error_infoIN11imagefusion14tag_image_typeENS3_4TypeEEEE19get_untyped_deleterEv"
 "_ZN5boost6detail17sp_counted_impl_pINS_10error_infoIN11imagefusion14tag_image_typeENS3_4TypeEEEE7disposeEv"
 "_ZN5boost6detail17sp_counted_impl_pINS_10error_infoIN11imagefusion14tag_image_typeENS3_4TypeEEEED0Ev"
 "_ZN5boost6detail17sp_counted_impl_pINS_10error_infoIN11imagefusion14tag_image_typeENS3_4TypeEEEED1Ev"
 "_ZN5boost6detail17sp_counted_impl_pINS_10error_infoIN11imagefusion18tag_resolution_tagENSt7__cxx1112basic_stringIcSt11char_traitsIcESaIcEEEEEE11get_deleterERKSt9type_info"
 "_ZN5boost6detail17sp_counted_impl_pINS_10error_infoIN11imagefusion18tag_resolution_tagENSt7__cxx1112basic_stringIcSt11char_traitsIcESaIcEEEEEE17get_local_deleterERKSt9type_info"
 "_ZN5boost6detail17sp_counted_impl_pINS_10error_infoIN11imagefusion18tag_resolution_tagENSt7__cxx1112basic_stringIcSt11char_traitsIcESaIcEEEEEE19get_untyped_deleterEv"
 "_ZN5boost6detail17sp_counted_impl_pINS_10error_infoIN11imagefusion18tag_resolution_tagENSt7__cxx1112basic_stringIcSt11char_traitsIcESaIcEEEEEE7disposeEv"
 "_ZN5boost6detail17sp_counted_impl_pINS_10error_infoIN11imagefusion18tag_resolution_tagENSt7__cxx1112basic_stringIcSt11char_traitsIcESaIcEEEEEED0Ev"
 "_ZN5boost6detail17sp_counted_impl_pINS_10error_infoIN11imagefusion18tag_resolution_tagENSt7__cxx1112basic_stringIcSt11char_traitsIcESaIcEEEEEED1Ev"
 "_ZN5boost6detail17sp_counted_impl_pINS_10error_infoIN11imagefusion8tag_dateEiEEE11get_deleterERKSt9type_info"
 "_ZN5boost6detail17sp_counted_impl_pINS_10error_infoIN11imagefusion8tag_dateEiEEE17get_local_deleterERKSt9type_info"
 "_ZN5boost6detail17sp_counted_impl_pINS_10error_infoIN11imagefusion8tag_dateEiEEE19get_untyped_deleterEv"
 "_ZN5boost6detail17sp_counted_impl_pINS_10error_infoIN11imagefusion8tag_dateEiEEE7disposeEv"
 "_ZN5boost6detail17sp_counted_impl_pINS_10error_infoIN11imagefusion8tag_dateEiEEED0Ev"
 "_ZN5boost6detail17sp_counted_impl_pINS_10error_infoIN11imagefusion8tag_dateEiEEED1Ev"
 "_ZN5boost6detail17sp_counted_impl_pINS_10error_infoIN11imagefusion8tag_sizeEN2cv5Size_IiEEEEE11get_deleterERKSt9type_info"
 "_ZN5boost6detail17sp_counted_impl_pINS_10error_infoIN11imagefusion8tag_sizeEN2cv5Size_IiEEEEE17get_local_deleterERKSt9type_info"
 "_ZN5boost6detail17sp_counted_impl_pINS_10error_infoIN11imagefusion8tag_sizeEN2cv5Size_IiEEEEE19get_untyped_deleterEv"
 "_ZN5boost6detail17sp_counted_impl_pINS_10error_infoIN11imagefusion8tag_sizeEN2cv5Size_IiEEEEE7disposeEv"
 "_ZN5boost6detail17sp_counted_impl_pINS_10error_infoIN11imagefusion8tag_sizeEN2cv5Size_IiEEEEED0Ev"
 "_ZN5boost6detail17sp_counted_impl_pINS_10error_infoIN11imagefusion8tag_sizeEN2cv5Size_IiEEEEED1Ev"
 "_ZN5boost6detail17sp_counted_impl_pINS_16exception_detail10clone_implINS2_10bad_alloc_EEEE11get_deleterERKSt9type_info"
 "_ZN5boost6detail17sp_counted_impl_pINS_16exception_detail10clone_implINS2_10bad_alloc_EEEE17get_local_deleterERKSt9type_info"
 "_ZN5boost6detail17sp_counted_impl_pINS_16exception_detail10clone_implINS2_10bad_alloc_EEEE19get_untyped_deleterEv"
 "_ZN5boost6detail17sp_counted_impl_pINS_16exception_detail10clone_implINS2_10bad_alloc_EEEE7disposeEv"
 "_ZN5boost6detail17sp_counted_impl_pINS_16exception_detail10clone_implINS2_10bad_alloc_EEEED0Ev"
 "_ZN5boost6detail17sp_counted_impl_pINS_16exception_detail10clone_implINS2_10bad_alloc_EEEED1Ev"
 "_ZN5boost6detail17sp_counted_impl_pINS_16exception_detail10clone_implINS2_14bad_exception_EEEE11get_deleterERKSt9type_info"
 "_ZN5boost6detail17sp_counted_impl_pINS_16exception_detail10clone_implINS2_14bad_exception_EEEE17get_local_deleterERKSt9type_info"
 "_ZN5boost6detail17sp_counted_impl_pINS_16exception_detail10clone_implINS2_14bad_exception_EEEE19get_untyped_deleterEv"
 "_ZN5boost6detail17sp_counted_impl_pINS_16exception_detail10clone_implINS2_14bad_exception_EEEE7disposeEv"
 "_ZN5boost6detail17sp_counted_impl_pINS_16exception_detail10clone_implINS2_14bad_exception_EEEED0Ev"
 "_ZN5boost6detail17sp_counted_impl_pINS_16exception_detail10clone_implINS2_14bad_exception_EEEED1Ev"
 "_ZN5boost6detail17sp_counted_impl_pINS_16exception_detail15error_info_baseEE11get_deleterERKSt9type_info"
 "_ZN5boost6detail17sp_counted_impl_pINS_16exception_detail15error_info_baseEE17get_local_deleterERKSt9type_info"
 "_ZN5boost6detail17sp_counted_impl_pINS_16exception_detail15error_info_baseEE19get_untyped_deleterEv"
 "_ZN5boost6detail17sp_counted_impl_pINS_16exception_detail15error_info_baseEE7disposeEv"
 "_ZN5boost6detail17sp_counted_impl_pINS_16exception_detail15error_info_baseEED0Ev"
 "_ZN5boost6detail17sp_counted_impl_pINS_16exception_detail15error_info_baseEED1Ev"
 "_ZN5boost9to_stringIN11imagefusion18tag_resolution_tagENSt7__cxx1112basic_stringIcSt11char_traitsIcESaIcEEEEES8_RKNS_10error_infoIT_T0_EE"
 "_ZN5boost9to_stringIN11imagefusion8tag_dateEiEENSt7__cxx1112basic_stringIcSt11char_traitsIcESaIcEEERKNS_10error_infoIT_T0_EE"
 "_ZN5boost9to_stringIN11imagefusion8tag_sizeEN2cv5Size_IiEEEENSt7__cxx1112basic_stringIcSt11char_traitsIcESaIcEEERKNS_10error_infoIT_T0_EE"
 "_ZN7helpers19getPrefixAndPostfixERKSt6vectorIN11imagefusion6option6OptionESaIS3_EES7_NSt7__cxx1112basic_stringIcSt11char_traitsIcESaIcEEESD_"
 "_ZN9__gnu_cxx12__to_xstringINSt7__cxx1112basic_stringIcSt11char_traitsIcESaIcEEEcEET_PFiPT0_yPKS8_PcEySB_z"
 "_ZNK11imagefusion10ConstImage10sharedCopyEv"
 "_ZNK11imagefusion18MultiResCollectionINS_5ImageEE3getERKNSt7__cxx1112basic_stringIcSt11char_traitsIcESaIcEEEi"
 "_ZNK11imagefusion18MultiResCollectionINS_5ImageEE3hasERKNSt7__cxx1112basic_stringIcSt11char_traitsIcESaIcEEEi"
 "_ZNK11imagefusion18MultiResCollectionINS_5ImageEE6getAnyEv"
 "_ZNK11imagefusion18MultiResCollectionINS_5ImageEE8getDatesERKNSt7__cxx1112basic_stringIcSt11char_traitsIcESaIcEEE"
 "_ZNK11imagefusion18MultiResCollectionINS_7GeoInfoEE3getERKNSt7__cxx1112basic_stringIcSt11char_traitsIcESaIcEEEi"
 "_ZNK11imagefusion18MultiResCollectionINSt7__cxx1112basic_stringIcSt11char_traitsIcESaIcEEEE3getERKS6_i"
 "_ZNK11imagefusion18MultiResCollectionINSt7__cxx1112basic_stringIcSt11char_traitsIcESaIcEEEE3hasERKS6_i"
 "_ZNK11imagefusion18MultiResCollectionINSt7__cxx1112basic_stringIcSt11char_traitsIcESaIcEEEE8getDatesERKS6_"
 "_ZNK2cv3Mat5emptyEv"
 "_ZNK5boost10error_infoIN11imagefusion14tag_image_typeENS1_4TypeEE17name_value_stringB5cxx11Ev"
 "_ZNK5boost10error_infoIN11imagefusion14tag_image_typeENS1_4TypeEE5cloneEv"
 "_ZNK5boost10error_infoIN11imagefusion18tag_resolution_tagENSt7__cxx1112basic_stringIcSt11char_traitsIcESaIcEEEE17name_value_stringEv"
 "_ZNK5boost10error_infoIN11imagefusion18tag_resolution_tagENSt7__cxx1112basic_stringIcSt11char_traitsIcESaIcEEEE5cloneEv"
 "_ZNK5boost10error_infoIN11imagefusion8tag_dateEiE17name_value_stringB5cxx11Ev"
 "_ZNK5boost10error_infoIN11imagefusion8tag_dateEiE5cloneEv"
 "_ZNK5boost10error_infoIN11imagefusion8tag_sizeEN2cv5Size_IiEEE17name_value_stringB5cxx11Ev"
 "_ZNK5boost10error_infoIN11imagefusion8tag_sizeEN2cv5Size_IiEEE5cloneEv"
 "_ZNK5boost16exception_detail10clone_implINS0_10bad_alloc_EE5cloneEv"
 "_ZNK5boost16exception_detail10clone_implINS0_10bad_alloc_EE7rethrowEv"
 "_ZNK5boost16exception_detail10clone_implINS0_14bad_exception_EE5cloneEv"
 "_ZNK5boost16exception_detail10clone_implINS0_14bad_exception_EE7rethrowEv"
 "_ZNK5boost16exception_detail25error_info_container_impl22diagnostic_informationEPKc"
 "_ZNK5boost16exception_detail25error_info_container_impl3getERKNS0_10type_info_E"
 "_ZNK5boost16exception_detail25error_info_container_impl5cloneEv"
 "_ZNK5boost16exception_detail25error_info_container_impl7add_refEv"
 "_ZNK5boost16exception_detail25error_info_container_impl7releaseEv"
 "_ZNKSt7__cxx1112basic_stringIcSt11char_traitsIcESaIcEE7compareEPKc"
 "_ZNKSt7__cxx1112basic_stringIcSt11char_traitsIcESaIcEE7compareERKS4_"
 "_ZNKSt8_Rb_treeINSt7__cxx1112basic_stringIcSt11char_traitsIcESaIcEEESt4pairIKS5_St3mapIiN11imagefusion5ImageESt4lessIiESaIS6_IKiSA_EEEESt10_Select1stISH_ESB_IS5_ESaISH_EE4findERS7_"
 "_ZNKSt8_Rb_treeINSt7__cxx1112basic_stringIcSt11char_traitsIcESaIcEEESt4pairIKS5_St3mapIiS5_St4lessIiESaIS6_IKiS5_EEEESt10_Select1stISF_ES9_IS5_ESaISF_EE4findERS7_"
 "_ZNSt11char_traitsIcE6lengthEPKc"
 "_ZNSt14_Function_base13_Base_managerIPFN11imagefusion6option9ArgStatusERKNS2_6OptionEEE10_M_managerERSt9_Any_dataRKSA_St18_Manager_operation"
 "_ZNSt16_Sp_counted_baseILN9__gnu_cxx12_Lock_policyE2EE10_M_releaseEv"
 "_ZNSt17_Function_handlerIFN11imagefusion6option9ArgStatusERKNS1_6OptionEEPS6_E9_M_invokeERKSt9_Any_dataS5_"
 "_ZNSt23_Sp_counted_ptr_inplaceIN11imagefusion14MultiResImagesESaIS1_ELN9__gnu_cxx12_Lock_policyE2EE10_M_destroyEv"
 "_ZNSt23_Sp_counted_ptr_inplaceIN11imagefusion14MultiResImagesESaIS1_ELN9__gnu_cxx12_Lock_policyE2EE10_M_disposeEv"
 "_ZNSt23_Sp_counted_ptr_inplaceIN11imagefusion14MultiResImagesESaIS1_ELN9__gnu_cxx12_Lock_policyE2EE14_M_get_deleterERKSt9type_info"
 "_ZNSt23_Sp_counted_ptr_inplaceIN11imagefusion14MultiResImagesESaIS1_ELN9__gnu_cxx12_Lock_policyE2EED0Ev"
 "_ZNSt23_Sp_counted_ptr_inplaceIN11imagefusion14MultiResImagesESaIS1_ELN9__gnu_cxx12_Lock_policyE2EED1Ev"
 "_ZNSt23_Sp_counted_ptr_inplaceIN11imagefusion18MultiResCollectionINS0_7GeoInfoEEESaIS3_ELN9__gnu_cxx12_Lock_policyE2EE10_M_destroyEv"
 "_ZNSt23_Sp_counted_ptr_inplaceIN11imagefusion18MultiResCollectionINS0_7GeoInfoEEESaIS3_ELN9__gnu_cxx12_Lock_policyE2EE10_M_disposeEv"
 "_ZNSt23_Sp_counted_ptr_inplaceIN11imagefusion18MultiResCollectionINS0_7GeoInfoEEESaIS3_ELN9__gnu_cxx12_Lock_policyE2EE14_M_get_deleterERKSt9type_info"
 "_ZNSt23_Sp_counted_ptr_inplaceIN11imagefusion18MultiResCollectionINS0_7GeoInfoEEESaIS3_ELN9__gnu_cxx12_Lock_policyE2EED0Ev"
 "_ZNSt23_Sp_counted_ptr_inplaceIN11imagefusion18MultiResCollectionINS0_7GeoInfoEEESaIS3_ELN9__gnu_cxx12_Lock_policyE2EED1Ev"
 "_ZNSt4pairINSt7__cxx1112basic_stringIcSt11char_traitsIcESaIcEEES5_ED1Ev"
 "_ZNSt6vectorIN11imagefusion6option10DescriptorESaIS2_EED1Ev"
 "_ZNSt6vectorIN11imagefusion6option6OptionESaIS2_EED1Ev"
 "_ZNSt6vectorIN11imagefusion7GeoInfo3GCPESaIS2_EED1Ev"
 "_ZNSt6vectorIN5boost3icl12interval_setIdSt4lessNS1_19continuous_intervalIdS3_EESaEESaIS6_EED1Ev"
 "_ZNSt6vectorINSt7__cxx1112basic_stringIcSt11char_traitsIcESaIcEEESaIS5_EE17_M_realloc_insertIJRKS5_EEEvN9__gnu_cxx17__normal_iteratorIPS5_S7_EEDpOT_"
 "_ZNSt6vectorINSt7__cxx1112basic_stringIcSt11char_traitsIcESaIcEEESaIS5_EE17_M_realloc_insertIJS5_EEEvN9__gnu_cxx17__normal_iteratorIPS5_S7_EEDpOT_"
 "_ZNSt6vectorINSt7__cxx1112basic_stringIcSt11char_traitsIcESaIcEEESaIS5_EE7reserveEy"
 "_ZNSt6vectorINSt7__cxx1112basic_stringIcSt11char_traitsIcESaIcEEESaIS5_EED1Ev"
 "_ZNSt6vectorIdSaIdEE14_M_fill_insertEN9__gnu_cxx17__normal_iteratorIPdS1_EEyRKd"
 "_ZNSt6vectorIiSaIiEE17_M_realloc_insertIJRKiEEEvN9__gnu_cxx17__normal_iteratorIPiS1_EEDpOT_"
 "_ZNSt6vectorIiSaIiEE7reserveEy"
 "_ZNSt7__cxx1112basic_stringIcSt11char_traitsIcESaIcEE10_M_replaceEyyPKcy"
 "_ZNSt7__cxx1112basic_stringIcSt11char_traitsIcESaIcEE12_M_constructIPKcEEvT_S8_St20forward_iterator_tag"
 "_ZNSt7__cxx1112basic_stringIcSt11char_traitsIcESaIcEE14_M_replace_auxEyyyc"
 "_ZNSt7__cxx1112basic_stringIcSt11char_traitsIcESaIcEE4swapERS4_"
 "_ZNSt7__cxx1112basic_stringIcSt11char_traitsIcESaIcEE6assignEPKc"
 "_ZNSt7__cxx1112basic_stringIcSt11char_traitsIcESaIcEE8_M_eraseEyy"
 "_ZNSt7__cxx1112basic_stringIcSt11char_traitsIcESaIcEE9_M_appendEPKcy"
 "_ZNSt7__cxx1112basic_stringIcSt11char_traitsIcESaIcEE9_M_assignERKS4_"
 "_ZNSt7__cxx1112basic_stringIcSt11char_traitsIcESaIcEE9_M_mutateEyyPKcy"
 "_ZNSt8_Rb_treeIN5boost16exception_detail10type_info_ESt4pairIKS2_NS0_10shared_ptrINS1_15error_info_baseEEEESt10_Select1stIS8_ESt4lessIS2_ESaIS8_EE14_M_insert_nodeEPSt18_Rb_tree_node_baseSG_PSt13_Rb_tree_nodeIS8_E"
 "_ZNSt8_Rb_treeIN5boost16exception_detail10type_info_ESt4pairIKS2_NS0_10shared_ptrINS1_15error_info_baseEEEESt10_Select1stIS8_ESt4lessIS2_ESaIS8_EE24_M_get_insert_unique_posERS4_"
 "_ZNSt8_Rb_treeIN5boost16exception_detail10type_info_ESt4pairIKS2_NS0_10shared_ptrINS1_15error_info_baseEEEESt10_Select1stIS8_ESt4lessIS2_ESaIS8_EE8_M_eraseEPSt13_Rb_tree_nodeIS8_E"
 "_ZNSt8_Rb_treeIN5boost3icl19continuous_intervalIdSt4lessEES4_St9_IdentityIS4_ENS1_19exclusive_less_thanIS4_EESaIS4_EE10_M_insert_IRKS4_NSA_11_Alloc_nodeEEESt17_Rb_tree_iteratorIS4_EPSt18_Rb_tree_node_baseSI_OT_RT0_"
 "_ZNSt8_Rb_treeIN5boost3icl19continuous_intervalIdSt4lessEES4_St9_IdentityIS4_ENS1_19exclusive_less_thanIS4_EESaIS4_EE12_M_erase_auxESt23_Rb_tree_const_iteratorIS4_ESC_"
 "_ZNSt8_Rb_treeIN5boost3icl19continuous_intervalIdSt4lessEES4_St9_IdentityIS4_ENS1_19exclusive_less_thanIS4_EESaIS4_EE16_M_insert_uniqueIRKS4_EESt4pairISt17_Rb_tree_iteratorIS4_EbEOT_"
 "_ZNSt8_Rb_treeIN5boost3icl19continuous_intervalIdSt4lessEES4_St9_IdentityIS4_ENS1_19exclusive_less_thanIS4_EESaIS4_EE24_M_get_insert_unique_posERKS4_"
 "_ZNSt8_Rb_treeIN5boost3icl19continuous_intervalIdSt4lessEES4_St9_IdentityIS4_ENS1_19exclusive_less_thanIS4_EESaIS4_EE29_M_get_insert_hint_unique_posESt23_Rb_tree_const_iteratorIS4_ERKS4_"
 "_ZNSt8_Rb_treeIN5boost3icl19continuous_intervalIdSt4lessEES4_St9_IdentityIS4_ENS1_19exclusive_less_thanIS4_EESaIS4_EE7_M_copyINSA_11_Alloc_nodeEEEPSt13_Rb_tree_nodeIS4_EPKSE_PSt18_Rb_tree_node_baseRT_"
 "_ZNSt8_Rb_treeIN5boost3icl19continuous_intervalIdSt4lessEES4_St9_IdentityIS4_ENS1_19exclusive_less_thanIS4_EESaIS4_EE8_M_eraseEPSt13_Rb_tree_nodeIS4_E"
 "_ZNSt8_Rb_treeIN5boost3icl19continuous_intervalIdSt4lessEES4_St9_IdentityIS4_ENS1_19exclusive_less_thanIS4_EESaIS4_EEC1ERKSA_"
 "_ZNSt8_Rb_treeINSt7__cxx1112basic_stringIcSt11char_traitsIcESaIcEEESt4pairIKS5_S5_ESt10_Select1stIS8_ESt4lessIS5_ESaIS8_EE7_M_copyINSE_11_Alloc_nodeEEEPSt13_Rb_tree_nodeIS8_EPKSI_PSt18_Rb_tree_node_baseRT_"
 "_ZNSt8_Rb_treeINSt7__cxx1112basic_stringIcSt11char_traitsIcESaIcEEESt4pairIKS5_S5_ESt10_Select1stIS8_ESt4lessIS5_ESaIS8_EE8_M_eraseEPSt13_Rb_tree_nodeIS8_E"
 "_ZNSt8_Rb_treeINSt7__cxx1112basic_stringIcSt11char_traitsIcESaIcEEESt4pairIKS5_St3mapIS5_S5_St4lessIS5_ESaIS6_IS7_S5_EEEESt10_Select1stISE_ESA_SaISE_EE7_M_copyINSI_11_Alloc_nodeEEEPSt13_Rb_tree_nodeISE_EPKSM_PSt18_Rb_tree_node_baseRT_"
 "_ZNSt8_Rb_treeINSt7__cxx1112basic_stringIcSt11char_traitsIcESaIcEEESt4pairIKS5_St3mapIS5_S5_St4lessIS5_ESaIS6_IS7_S5_EEEESt10_Select1stISE_ESA_SaISE_EE8_M_eraseEPSt13_Rb_tree_nodeISE_E"
 "_ZNSt8_Rb_treeINSt7__cxx1112basic_stringIcSt11char_traitsIcESaIcEEESt4pairIKS5_St3mapIiN11imagefusion5ImageESt4lessIiESaIS6_IKiSA_EEEESt10_Select1stISH_ESB_IS5_ESaISH_EE22_M_emplace_hint_uniqueIJRKSt21piecewise_construct_tSt5tupleIJRS7_EESR_IJEEEEESt17_Rb_tree_iteratorISH_ESt23_Rb_tree_const_iteratorISH_EDpOT_"
 "_ZNSt8_Rb_treeINSt7__cxx1112basic_stringIcSt11char_traitsIcESaIcEEESt4pairIKS5_St3mapIiN11imagefusion5ImageESt4lessIiESaIS6_IKiSA_EEEESt10_Select1stISH_ESB_IS5_ESaISH_EE24_M_get_insert_unique_posERS7_"
 "_ZNSt8_Rb_treeINSt7__cxx1112basic_stringIcSt11char_traitsIcESaIcEEESt4pairIKS5_St3mapIiN11imagefusion5ImageESt4lessIiESaIS6_IKiSA_EEEESt10_Select1stISH_ESB_IS5_ESaISH_EE8_M_eraseEPSt13_Rb_tree_nodeISH_E"
 "_ZNSt8_Rb_treeINSt7__cxx1112basic_stringIcSt11char_traitsIcESaIcEEESt4pairIKS5_St3mapIiN11imagefusion7GeoInfoESt4lessIiESaIS6_IKiSA_EEEESt10_Select1stISH_ESB_IS5_ESaISH_EE22_M_emplace_hint_uniqueIJRKSt21piecewise_construct_tSt5tupleIJRS7_EESR_IJEEEEESt17_Rb_tree_iteratorISH_ESt23_Rb_tree_const_iteratorISH_EDpOT_"
 "_ZNSt8_Rb_treeINSt7__cxx1112basic_stringIcSt11char_traitsIcESaIcEEESt4pairIKS5_St3mapIiN11imagefusion7GeoInfoESt4lessIiESaIS6_IKiSA_EEEESt10_Select1stISH_ESB_IS5_ESaISH_EE24_M_get_insert_unique_posERS7_"
 "_ZNSt8_Rb_treeINSt7__cxx1112basic_stringIcSt11char_traitsIcESaIcEEESt4pairIKS5_St3mapIiN11imagefusion7GeoInfoESt4lessIiESaIS6_IKiSA_EEEESt10_Select1stISH_ESB_IS5_ESaISH_EE8_M_eraseEPSt13_Rb_tree_nodeISH_E"
 "_ZNSt8_Rb_treeINSt7__cxx1112basic_stringIcSt11char_traitsIcESaIcEEESt4pairIKS5_St3mapIiS5_St4lessIiESaIS6_IKiS5_EEEESt10_Select1stISF_ES9_IS5_ESaISF_EE22_M_emplace_hint_uniqueIJRKSt21piecewise_construct_tSt5tupleIJRS7_EESP_IJEEEEESt17_Rb_tree_iteratorISF_ESt23_Rb_tree_const_iteratorISF_EDpOT_"
 "_ZNSt8_Rb_treeINSt7__cxx1112basic_stringIcSt11char_traitsIcESaIcEEESt4pairIKS5_St3mapIiS5_St4lessIiESaIS6_IKiS5_EEEESt10_Select1stISF_ES9_IS5_ESaISF_EE24_M_get_insert_unique_posERS7_"
 "_ZNSt8_Rb_treeINSt7__cxx1112basic_stringIcSt11char_traitsIcESaIcEEESt4pairIKS5_St3mapIiS5_St4lessIiESaIS6_IKiS5_EEEESt10_Select1stISF_ES9_IS5_ESaISF_EE8_M_eraseEPSt13_Rb_tree_nodeISF_E"
 "_ZNSt8_Rb_treeINSt7__cxx1112basic_stringIcSt11char_traitsIcESaIcEEESt4pairIKS5_St6vectorIN11imagefusion6option6OptionESaISB_EEESt10_Select1stISE_ESt4lessIS5_ESaISE_EE22_M_emplace_hint_uniqueIJRKSt21piecewise_construct_tSt5tupleIJRS7_EESP_IJEEEEESt17_Rb_tree_iteratorISE_ESt23_Rb_tree_const_iteratorISE_EDpOT_"
 "_ZNSt8_Rb_treeINSt7__cxx1112basic_stringIcSt11char_traitsIcESaIcEEESt4pairIKS5_St6vectorIN11imagefusion6option6OptionESaISB_EEESt10_Select1stISE_ESt4lessIS5_ESaISE_EE24_M_get_insert_unique_posERS7_"
 "_ZNSt8_Rb_treeINSt7__cxx1112basic_stringIcSt11char_traitsIcESaIcEEESt4pairIKS5_St6vectorIN11imagefusion6option6OptionESaISB_EEESt10_Select1stISE_ESt4lessIS5_ESaISE_EE8_M_eraseEPSt13_Rb_tree_nodeISE_E"
 "_ZNSt8_Rb_treeIiSt4pairIKiN11imagefusion5ImageEESt10_Select1stIS4_ESt4lessIiESaIS4_EE22_M_emplace_hint_uniqueIJRKSt21piecewise_construct_tSt5tupleIJRS1_EESF_IJEEEEESt17_Rb_tree_iteratorIS4_ESt23_Rb_tree_const_iteratorIS4_EDpOT_"
 "_ZNSt8_Rb_treeIiSt4pairIKiN11imagefusion5ImageEESt10_Select1stIS4_ESt4lessIiESaIS4_EE24_M_get_insert_unique_posERS1_"
 "_ZNSt8_Rb_treeIiSt4pairIKiN11imagefusion5ImageEESt10_Select1stIS4_ESt4lessIiESaIS4_EE8_M_eraseEPSt13_Rb_tree_nodeIS4_E"
 "_ZNSt8_Rb_treeIiSt4pairIKiN11imagefusion7GeoInfoEESt10_Select1stIS4_ESt4lessIiESaIS4_EE22_M_emplace_hint_uniqueIJRKSt21piecewise_construct_tSt5tupleIJRS1_EESF_IJEEEEESt17_Rb_tree_iteratorIS4_ESt23_Rb_tree_const_iteratorIS4_EDpOT_"
 "_ZNSt8_Rb_treeIiSt4pairIKiN11imagefusion7GeoInfoEESt10_Select1stIS4_ESt4lessIiESaIS4_EE24_M_get_insert_unique_posERS1_"
 "_ZNSt8_Rb_treeIiSt4pairIKiN11imagefusion7GeoInfoEESt10_Select1stIS4_ESt4lessIiESaIS4_EE8_M_eraseEPSt13_Rb_tree_nodeIS4_E"
 "_ZNSt8_Rb_treeIiSt4pairIKiNSt7__cxx1112basic_stringIcSt11char_traitsIcESaIcEEEESt10_Select1stIS8_ESt4lessIiESaIS8_EE24_M_get_insert_unique_posERS1_"
 "_ZNSt8_Rb_treeIiSt4pairIKiNSt7__cxx1112basic_stringIcSt11char_traitsIcESaIcEEEESt10_Select1stIS8_ESt4lessIiESaIS8_EE8_M_eraseEPSt13_Rb_tree_nodeIS8_E"
 "_ZNSt8functionIFN11imagefusion6option9ArgStatusERKNS1_6OptionEEEC1ERKS7_"
 "_ZSt11__set_unionIN9__gnu_cxx17__normal_iteratorIPiSt6vectorIiSaIiEEEES6_St20back_insert_iteratorIS5_ENS0_5__ops15_Iter_less_iterEET1_T_SC_T0_SD_SB_T2_"
 "_ZSt19piecewise_construct"
 "_ZSt9__find_ifIN9__gnu_cxx17__normal_iteratorIPiSt6vectorIiSaIiEEEENS0_5__ops16_Iter_equals_valIKiEEET_SB_SB_T0_St26random_access_iterator_tag"
 "_ZStplIcSt11char_traitsIcESaIcEENSt7__cxx1112basic_stringIT_T0_T1_EEOS8_PKS5_"
 "_ZStplIcSt11char_traitsIcESaIcEENSt7__cxx1112basic_stringIT_T0_T1_EEOS8_RKS8_"
 "_ZStplIcSt11char_traitsIcESaIcEENSt7__cxx1112basic_stringIT_T0_T1_EEOS8_S9_"
 "_ZStplIcSt11char_traitsIcESaIcEENSt7__cxx1112basic_stringIT_T0_T1_EEPKS5_OS8_"
 "_ZStplIcSt11char_traitsIcESaIcEENSt7__cxx1112basic_stringIT_T0_T1_EEPKS5_RKS8_"
 "_ZTCN11imagefusion10size_errorE0_NS_13runtime_errorE"
 "_ZTCN11imagefusion15not_found_errorE0_NS_13runtime_errorE"
 "_ZTCN11imagefusion16image_type_errorE0_NS_13runtime_errorE"
 "_ZTCN11imagefusion22invalid_argument_errorE0_NS_13runtime_errorE"
 "_ZTCN4Rcpp8RostreamILb0EEE0_So"
 "_ZTCN4Rcpp8RostreamILb1EEE0_So"
 "_ZTIFN11imagefusion6option9ArgStatusERKNS0_6OptionEE"
 "_ZTIN11imagefusion10ConstImageE"
 "_ZTIN11imagefusion10size_errorE"
 "_ZTIN11imagefusion11logic_errorE"
 "_ZTIN11imagefusion13runtime_errorE"
 "_ZTIN11imagefusion14MultiResImagesE"
 "_ZTIN11imagefusion15not_found_errorE"
 "_ZTIN11imagefusion16image_type_errorE"
 "_ZTIN11imagefusion18MultiResCollectionINS_5ImageEEE"
 "_ZTIN11imagefusion18MultiResCollectionINS_7GeoInfoEEE"
 "_ZTIN11imagefusion18MultiResCollectionINSt7__cxx1112basic_stringIcSt11char_traitsIcESaIcEEEEE"
 "_ZTIN11imagefusion22invalid_argument_errorE"
 "_ZTIN11imagefusion5ImageE"
 "_ZTIN4Rcpp10RstreambufILb0EEE"
 "_ZTIN4Rcpp10RstreambufILb1EEE"
 "_ZTIN4Rcpp8RostreamILb0EEE"
 "_ZTIN4Rcpp8RostreamILb1EEE"
 "_ZTIN5boost10error_infoIN11imagefusion14tag_image_typeENS1_4TypeEEE"
 "_ZTIN5boost10error_infoIN11imagefusion18tag_resolution_tagENSt7__cxx1112basic_stringIcSt11char_traitsIcESaIcEEEEE"
 "_ZTIN5boost10error_infoIN11imagefusion8tag_dateEiEE"
 "_ZTIN5boost10error_infoIN11imagefusion8tag_sizeEN2cv5Size_IiEEEE"
 "_ZTIN5boost16exception_detail10bad_alloc_E"
 "_ZTIN5boost16exception_detail10clone_baseE"
 "_ZTIN5boost16exception_detail10clone_implINS0_10bad_alloc_EEE"
 "_ZTIN5boost16exception_detail10clone_implINS0_14bad_exception_EEE"
 "_ZTIN5boost16exception_detail14bad_exception_E"
 "_ZTIN5boost16exception_detail15error_info_baseE"
 "_ZTIN5boost16exception_detail20error_info_containerE"
 "_ZTIN5boost16exception_detail25error_info_container_implE"
 "_ZTIN5boost6detail15sp_counted_baseE"
 "_ZTIN5boost6detail17sp_counted_impl_pINS_10error_infoIN11imagefusion14tag_image_typeENS3_4TypeEEEEE"
 "_ZTIN5boost6detail17sp_counted_impl_pINS_10error_infoIN11imagefusion18tag_resolution_tagENSt7__cxx1112basic_stringIcSt11char_traitsIcESaIcEEEEEEE"
 "_ZTIN5boost6detail17sp_counted_impl_pINS_10error_infoIN11imagefusion8tag_dateEiEEEE"
 "_ZTIN5boost6detail17sp_counted_impl_pINS_10error_infoIN11imagefusion8tag_sizeEN2cv5Size_IiEEEEEE"
 "_ZTIN5boost6detail17sp_counted_impl_pINS_16exception_detail10clone_implINS2_10bad_alloc_EEEEE"
 "_ZTIN5boost6detail17sp_counted_impl_pINS_16exception_detail10clone_implINS2_14bad_exception_EEEEE"
 "_ZTIN5boost6detail17sp_counted_impl_pINS_16exception_detail15error_info_baseEEE"
 "_ZTIN5boost9exceptionE"
 "_ZTIPFN11imagefusion6option9ArgStatusERKNS0_6OptionEE"
 "_ZTISt11_Mutex_baseILN9__gnu_cxx12_Lock_policyE2EE"
 "_ZTISt11logic_error"
 "_ZTISt12out_of_range"
 "_ZTISt13bad_exception"
 "_ZTISt13runtime_error"
 "_ZTISt16_Sp_counted_baseILN9__gnu_cxx12_Lock_policyE2EE"
 "_ZTISt19_Sp_make_shared_tag"
 "_ZTISt23_Sp_counted_ptr_inplaceIN11imagefusion14MultiResImagesESaIS1_ELN9__gnu_cxx12_Lock_policyE2EE"
 "_ZTISt23_Sp_counted_ptr_inplaceIN11imagefusion18MultiResCollectionINS0_7GeoInfoEEESaIS3_ELN9__gnu_cxx12_Lock_policyE2EE"
 "_ZTISt23enable_shared_from_thisIN11imagefusion18MultiResCollectionINS0_5ImageEEEE"
 "_ZTISt23enable_shared_from_thisIN11imagefusion18MultiResCollectionINS0_7GeoInfoEEEE"
 "_ZTISt23enable_shared_from_thisIN11imagefusion18MultiResCollectionINSt7__cxx1112basic_stringIcSt11char_traitsIcESaIcEEEEEE"
 "_ZTISt9bad_alloc"
 "_ZTISt9exception"
 "_ZTSFN11imagefusion6option9ArgStatusERKNS0_6OptionEE"
 "_ZTSN11imagefusion10ConstImageE"
 "_ZTSN11imagefusion10size_errorE"
 "_ZTSN11imagefusion11logic_errorE"
 "_ZTSN11imagefusion13runtime_errorE"
 "_ZTSN11imagefusion14MultiResImagesE"
 "_ZTSN11imagefusion15not_found_errorE"
 "_ZTSN11imagefusion16image_type_errorE"
 "_ZTSN11imagefusion18MultiResCollectionINS_5ImageEEE"
 "_ZTSN11imagefusion18MultiResCollectionINS_7GeoInfoEEE"
 "_ZTSN11imagefusion18MultiResCollectionINSt7__cxx1112basic_stringIcSt11char_traitsIcESaIcEEEEE"
 "_ZTSN11imagefusion22invalid_argument_errorE"
 "_ZTSN11imagefusion5ImageE"
 "_ZTSN4Rcpp10RstreambufILb0EEE"
 "_ZTSN4Rcpp10RstreambufILb1EEE"
 "_ZTSN4Rcpp8RostreamILb0EEE"
 "_ZTSN4Rcpp8RostreamILb1EEE"
 "_ZTSN5boost10error_infoIN11imagefusion14tag_image_typeENS1_4TypeEEE"
 "_ZTSN5boost10error_infoIN11imagefusion18tag_resolution_tagENSt7__cxx1112basic_stringIcSt11char_traitsIcESaIcEEEEE"
 "_ZTSN5boost10error_infoIN11imagefusion8tag_dateEiEE"
 "_ZTSN5boost10error_infoIN11imagefusion8tag_sizeEN2cv5Size_IiEEEE"
 "_ZTSN5boost16exception_detail10bad_alloc_E"
 "_ZTSN5boost16exception_detail10clone_baseE"
 "_ZTSN5boost16exception_detail10clone_implINS0_10bad_alloc_EEE"
 "_ZTSN5boost16exception_detail10clone_implINS0_14bad_exception_EEE"
 "_ZTSN5boost16exception_detail14bad_exception_E"
 "_ZTSN5boost16exception_detail15error_info_baseE"
 "_ZTSN5boost16exception_detail20error_info_containerE"
 "_ZTSN5boost16exception_detail25error_info_container_implE"
 "_ZTSN5boost6detail15sp_counted_baseE"
 "_ZTSN5boost6detail17sp_counted_impl_pINS_10error_infoIN11imagefusion14tag_image_typeENS3_4TypeEEEEE"
 "_ZTSN5boost6detail17sp_counted_impl_pINS_10error_infoIN11imagefusion18tag_resolution_tagENSt7__cxx1112basic_stringIcSt11char_traitsIcESaIcEEEEEEE"
 "_ZTSN5boost6detail17sp_counted_impl_pINS_10error_infoIN11imagefusion8tag_dateEiEEEE"
 "_ZTSN5boost6detail17sp_counted_impl_pINS_10error_infoIN11imagefusion8tag_sizeEN2cv5Size_IiEEEEEE"
 "_ZTSN5boost6detail17sp_counted_impl_pINS_16exception_detail10clone_implINS2_10bad_alloc_EEEEE"
 "_ZTSN5boost6detail17sp_counted_impl_pINS_16exception_detail10clone_implINS2_14bad_exception_EEEEE"
 "_ZTSN5boost6detail17sp_counted_impl_pINS_16exception_detail15error_info_baseEEE"
 "_ZTSN5boost9exceptionE"
 "_ZTSPFN11imagefusion6option9ArgStatusERKNS0_6OptionEE"
 "_ZTSPN11imagefusion14tag_image_typeE"
 "_ZTSPN11imagefusion18tag_resolution_tagE"
 "_ZTSPN11imagefusion8tag_dateE"
 "_ZTSPN11imagefusion8tag_sizeE"
 "_ZTSSt11_Mutex_baseILN9__gnu_cxx12_Lock_policyE2EE"
 "_ZTSSt11logic_error"
 "_ZTSSt12out_of_range"
 "_ZTSSt13bad_exception"
 "_ZTSSt13runtime_error"
 "_ZTSSt16_Sp_counted_baseILN9__gnu_cxx12_Lock_policyE2EE"
 "_ZTSSt19_Sp_make_shared_tag"
 "_ZTSSt23_Sp_counted_ptr_inplaceIN11imagefusion14MultiResImagesESaIS1_ELN9__gnu_cxx12_Lock_policyE2EE"
 "_ZTSSt23_Sp_counted_ptr_inplaceIN11imagefusion18MultiResCollectionINS0_7GeoInfoEEESaIS3_ELN9__gnu_cxx12_Lock_policyE2EE"
 "_ZTSSt23enable_shared_from_thisIN11imagefusion18MultiResCollectionINS0_5ImageEEEE"
 "_ZTSSt23enable_shared_from_thisIN11imagefusion18MultiResCollectionINS0_7GeoInfoEEEE"
 "_ZTSSt23enable_shared_from_thisIN11imagefusion18MultiResCollectionINSt7__cxx1112basic_stringIcSt11char_traitsIcESaIcEEEEEE"
 "_ZTSSt9bad_alloc"
 "_ZTSSt9exception"
 "_ZTTN11imagefusion10size_errorE"
 "_ZTTN11imagefusion11logic_errorE"
 "_ZTTN11imagefusion13runtime_errorE"
 "_ZTTN11imagefusion15not_found_errorE"
 "_ZTTN11imagefusion16image_type_errorE"
 "_ZTTN11imagefusion22invalid_argument_errorE"
 "_ZTTN4Rcpp8RostreamILb0EEE"
 "_ZTTN4Rcpp8RostreamILb1EEE"
 "_ZTTN5boost16exception_detail10clone_implINS0_10bad_alloc_EEE"
 "_ZTTN5boost16exception_detail10clone_implINS0_14bad_exception_EEE"
 "_ZTVN11imagefusion10ConstImageE"
 "_ZTVN11imagefusion10size_errorE"
 "_ZTVN11imagefusion11logic_errorE"
 "_ZTVN11imagefusion13runtime_errorE"
 "_ZTVN11imagefusion14MultiResImagesE"
 "_ZTVN11imagefusion15not_found_errorE"
 "_ZTVN11imagefusion16image_type_errorE"
 "_ZTVN11imagefusion18MultiResCollectionINS_5ImageEEE"
 "_ZTVN11imagefusion18MultiResCollectionINS_7GeoInfoEEE"
 "_ZTVN11imagefusion18MultiResCollectionINSt7__cxx1112basic_stringIcSt11char_traitsIcESaIcEEEEE"
 "_ZTVN11imagefusion22invalid_argument_errorE"
 "_ZTVN11imagefusion5ImageE"
 "_ZTVN4Rcpp10RstreambufILb0EEE"
 "_ZTVN4Rcpp10RstreambufILb1EEE"
 "_ZTVN4Rcpp8RostreamILb0EEE"
 "_ZTVN4Rcpp8RostreamILb1EEE"
 "_ZTVN5boost10error_infoIN11imagefusion14tag_image_typeENS1_4TypeEEE"
 "_ZTVN5boost10error_infoIN11imagefusion18tag_resolution_tagENSt7__cxx1112basic_stringIcSt11char_traitsIcESaIcEEEEE"
 "_ZTVN5boost10error_infoIN11imagefusion8tag_dateEiEE"
 "_ZTVN5boost10error_infoIN11imagefusion8tag_sizeEN2cv5Size_IiEEEE"
 "_ZTVN5boost16exception_detail10bad_alloc_E"
 "_ZTVN5boost16exception_detail10clone_baseE"
 "_ZTVN5boost16exception_detail10clone_implINS0_10bad_alloc_EEE"
 "_ZTVN5boost16exception_detail10clone_implINS0_14bad_exception_EEE"
 "_ZTVN5boost16exception_detail14bad_exception_E"
 "_ZTVN5boost16exception_detail25error_info_container_implE"
 "_ZTVN5boost6detail17sp_counted_impl_pINS_10error_infoIN11imagefusion14tag_image_typeENS3_4TypeEEEEE"
 "_ZTVN5boost6detail17sp_counted_impl_pINS_10error_infoIN11imagefusion18tag_resolution_tagENSt7__cxx1112basic_stringIcSt11char_traitsIcESaIcEEEEEEE"
 "_ZTVN5boost6detail17sp_counted_impl_pINS_10error_infoIN11imagefusion8tag_dateEiEEEE"
 "_ZTVN5boost6detail17sp_counted_impl_pINS_10error_infoIN11imagefusion8tag_sizeEN2cv5Size_IiEEEEEE"
 "_ZTVN5boost6detail17sp_counted_impl_pINS_16exception_detail10clone_implINS2_10bad_alloc_EEEEE"
 "_ZTVN5boost6detail17sp_counted_impl_pINS_16exception_detail10clone_implINS2_14bad_exception_EEEEE"
 "_ZTVN5boost6detail17sp_counted_impl_pINS_16exception_detail15error_info_baseEEE"
 "_ZTVN5boost9exceptionE"
 "_ZTVSt23_Sp_counted_ptr_inplaceIN11imagefusion14MultiResImagesESaIS1_ELN9__gnu_cxx12_Lock_policyE2EE"
 "_ZTVSt23_Sp_counted_ptr_inplaceIN11imagefusion18MultiResCollectionINS0_7GeoInfoEEESaIS3_ELN9__gnu_cxx12_Lock_policyE2EE"
 "_ZThn40_N5boost16exception_detail10bad_alloc_D0Ev"
 "_ZThn40_N5boost16exception_detail10bad_alloc_D1Ev"
 "_ZThn40_N5boost16exception_detail10clone_implINS0_10bad_alloc_EED0Ev"
 "_ZThn40_N5boost16exception_detail10clone_implINS0_10bad_alloc_EED1Ev"
 "_ZThn40_N5boost16exception_detail10clone_implINS0_14bad_exception_EED0Ev"
 "_ZThn40_N5boost16exception_detail10clone_implINS0_14bad_exception_EED1Ev"
 "_ZThn40_N5boost16exception_detail14bad_exception_D0Ev"
 "_ZThn40_N5boost16exception_detail14bad_exception_D1Ev"
 "_ZTv0_n24_N11imagefusion10size_errorD0Ev"
 "_ZTv0_n24_N11imagefusion10size_errorD1Ev"
 "_ZTv0_n24_N11imagefusion11logic_errorD0Ev"
 "_ZTv0_n24_N11imagefusion11logic_errorD1Ev"
 "_ZTv0_n24_N11imagefusion13runtime_errorD0Ev"
 "_ZTv0_n24_N11imagefusion13runtime_errorD1Ev"
 "_ZTv0_n24_N11imagefusion15not_found_errorD0Ev"
 "_ZTv0_n24_N11imagefusion15not_found_errorD1Ev"
 "_ZTv0_n24_N11imagefusion16image_type_errorD0Ev"
 "_ZTv0_n24_N11imagefusion16image_type_errorD1Ev"
 "_ZTv0_n24_N11imagefusion22invalid_argument_errorD0Ev"
 "_ZTv0_n24_N11imagefusion22invalid_argument_errorD1Ev"
 "_ZTv0_n24_N4Rcpp8RostreamILb0EED0Ev"
 "_ZTv0_n24_N4Rcpp8RostreamILb0EED1Ev"
 "_ZTv0_n24_N4Rcpp8RostreamILb1EED0Ev"
 "_ZTv0_n24_N4Rcpp8RostreamILb1EED1Ev"
 "_ZTv0_n24_NK5boost16exception_detail10clone_implINS0_10bad_alloc_EE5cloneEv"
 "_ZTv0_n24_NK5boost16exception_detail10clone_implINS0_14bad_exception_EE5cloneEv"
 "_ZTv0_n32_NK5boost16exception_detail10clone_implINS0_10bad_alloc_EE7rethrowEv"
 "_ZTv0_n32_NK5boost16exception_detail10clone_implINS0_14bad_exception_EE7rethrowEv"
 "_ZTv0_n40_N11imagefusion10size_errorD0Ev"
 "_ZTv0_n40_N11imagefusion10size_errorD1Ev"
 "_ZTv0_n40_N11imagefusion15not_found_errorD0Ev"
 "_ZTv0_n40_N11imagefusion15not_found_errorD1Ev"
 "_ZTv0_n40_N11imagefusion16image_type_errorD0Ev"
 "_ZTv0_n40_N11imagefusion16image_type_errorD1Ev"
 "_ZTv0_n40_N11imagefusion22invalid_argument_errorD0Ev"
 "_ZTv0_n40_N11imagefusion22invalid_argument_errorD1Ev"
 "_ZTv0_n40_N5boost16exception_detail10clone_implINS0_10bad_alloc_EED0Ev"
 "_ZTv0_n40_N5boost16exception_detail10clone_implINS0_10bad_alloc_EED1Ev"
 "_ZTv0_n40_N5boost16exception_detail10clone_implINS0_14bad_exception_EED0Ev"
 "_ZTv0_n40_N5boost16exception_detail10clone_implINS0_14bad_exception_EED1Ev"
 "_ZZN5boost16exception_detail27get_static_exception_objectINS0_10bad_alloc_EEENS_13exception_ptrEvE2ep"
 "_ZZN5boost16exception_detail27get_static_exception_objectINS0_14bad_exception_EEENS_13exception_ptrEvE2ep"
 "_ZZN5boost3icl16identity_elementIdE5valueEvE6_value"
 "_ZZNSt19_Sp_make_shared_tag5_S_tiEvE5__tag"
 "usage"
 "_ZGVN5boost16exception_detail37exception_ptr_static_exception_objectINS0_10bad_alloc_EE1eE"
 "_ZGVN5boost16exception_detail37exception_ptr_static_exception_objectINS0_14bad_exception_EE1eE"
 "_ZGVN7cvflann7anyimpl12SinglePolicyINS0_9empty_anyEE6policyE"
 "_ZGVN7cvflann7anyimpl12SinglePolicyINS_17flann_algorithm_tEE6policyE"
 "_ZGVN7cvflann7anyimpl12SinglePolicyINS_20flann_centers_init_tEE6policyE"
 "_ZGVN7cvflann7anyimpl12SinglePolicyINSt7__cxx1112basic_stringIcSt11char_traitsIcESaIcEEEE6policyE"
 "_ZGVN7cvflann7anyimpl12SinglePolicyIPKcE6policyE"
 "_ZGVN7cvflann7anyimpl12SinglePolicyIbE6policyE"
 "_ZGVN7cvflann7anyimpl12SinglePolicyIfE6policyE"
 "_ZGVN7cvflann7anyimpl12SinglePolicyIiE6policyE"
 "_ZGVN7cvflann7anyimpl12SinglePolicyIjE6policyE"
 "_ZGVZN5boost16exception_detail27get_static_exception_objectINS0_10bad_alloc_EEENS_13exception_ptrEvE2ep"
 "_ZGVZN5boost16exception_detail27get_static_exception_objectINS0_14bad_exception_EEENS_13exception_ptrEvE2ep"
 "_ZN11imagefusion10toBaseTypeE12GDALDataType"
 "_ZN11imagefusion12GeoTransform10scaleImageEdd"
 "_ZN11imagefusion12GeoTransform11rotateImageEd"
 "_ZN11imagefusion12GeoTransform11shearXImageEd"
 "_ZN11imagefusion12GeoTransform11shearYImageEd"
 "_ZN11imagefusion12GeoTransform14translateImageEdd"
 "_ZN11imagefusion12GeoTransform15scaleProjectionEdd"
 "_ZN11imagefusion12GeoTransform16rotateProjectionEd"
 "_ZN11imagefusion12GeoTransform16shearXProjectionEd"
 "_ZN11imagefusion12GeoTransform16shearYProjectionEd"
 "_ZN11imagefusion12GeoTransform19translateProjectionEdd"
 "_ZN11imagefusion12GeoTransform3setEdddddd"
 "_ZN11imagefusion12GeoTransform5clearEv"
 "_ZN11imagefusion12GeoTransform9flipImageEbbN2cv5Size_IiEE"
 "_ZN11imagefusion13intersectRectERKNS_7GeoInfoERKN2cv5Rect_IdEES2_S7_j"
 "_ZN11imagefusion13runtime_errorC1ERKS0_"
 "_ZN11imagefusion13runtime_errorD0Ev"
 "_ZN11imagefusion13runtime_errorD1Ev"
 "_ZN11imagefusion15not_found_errorC1ERKS0_"
 "_ZN11imagefusion15not_found_errorD0Ev"
 "_ZN11imagefusion15not_found_errorD1Ev"
 "_ZN11imagefusion16image_type_errorC1ERKS0_"
 "_ZN11imagefusion16image_type_errorD0Ev"
 "_ZN11imagefusion16image_type_errorD1Ev"
 "_ZN11imagefusion17file_format_errorC1ERKS0_"
 "_ZN11imagefusion17file_format_errorD0Ev"
 "_ZN11imagefusion17file_format_errorD1Ev"
 "_ZN11imagefusion22invalid_argument_errorC1ERKS0_"
 "_ZN11imagefusion22invalid_argument_errorD0Ev"
 "_ZN11imagefusion22invalid_argument_errorD1Ev"
 "_ZN11imagefusion6detail22makeRectBoundaryCoordsERKN2cv5Rect_IdEEj"
 "_ZN11imagefusion7GeoInfo10setExtentsERKN2cv5Rect_IdEEb"
 "_ZN11imagefusion7GeoInfo8readFromEPK11GDALDataset"
 "_ZN11imagefusion7GeoInfo8readFromERKNSt7__cxx1112basic_stringIcSt11char_traitsIcESaIcEEE"
 "_ZN11imagefusion7GeoInfo9intersectERKS0_jb"
 "_ZN11imagefusion7GeoInfoC1ERKNSt7__cxx1112basic_stringIcSt11char_traitsIcESaIcEEERKSt6vectorIiSaIiEEN2cv5Rect_IiEEbbb"
 "_ZN11imagefusion7GeoInfoC1Ev"
 "_ZN11imagefusion7GeoInfoC2ERKNSt7__cxx1112basic_stringIcSt11char_traitsIcESaIcEEERKSt6vectorIiSaIiEEN2cv5Rect_IiEEbbb"
 "_ZN11imagefusion7GeoInfoD1Ev"
 "_ZN5boost10error_infoINS_18errinfo_file_name_ENSt7__cxx1112basic_stringIcSt11char_traitsIcESaIcEEEED0Ev"
 "_ZN5boost10error_infoINS_18errinfo_file_name_ENSt7__cxx1112basic_stringIcSt11char_traitsIcESaIcEEEED1Ev"
 "_ZN5boost16exception_detail10bad_alloc_D0Ev"
 "_ZN5boost16exception_detail10bad_alloc_D1Ev"
 "_ZN5boost16exception_detail10bad_alloc_D2Ev"
 "_ZN5boost16exception_detail10clone_implINS0_10bad_alloc_EED0Ev"
 "_ZN5boost16exception_detail10clone_implINS0_10bad_alloc_EED1Ev"
 "_ZN5boost16exception_detail10clone_implINS0_14bad_exception_EED0Ev"
 "_ZN5boost16exception_detail10clone_implINS0_14bad_exception_EED1Ev"
 "_ZN5boost16exception_detail11set_info_rvINS_10error_infoINS_18errinfo_file_name_ENSt7__cxx1112basic_stringIcSt11char_traitsIcESaIcEEEEEE3setIN11imagefusion13runtime_errorEEERKT_SH_OSA_"
 "_ZN5boost16exception_detail11set_info_rvINS_10error_infoINS_18errinfo_file_name_ENSt7__cxx1112basic_stringIcSt11char_traitsIcESaIcEEEEEE3setIN11imagefusion15not_found_errorEEERKT_SH_OSA_"
 "_ZN5boost16exception_detail11set_info_rvINS_10error_infoINS_18errinfo_file_name_ENSt7__cxx1112basic_stringIcSt11char_traitsIcESaIcEEEEEE3setIN11imagefusion16image_type_errorEEERKT_SH_OSA_"
 "_ZN5boost16exception_detail11set_info_rvINS_10error_infoINS_18errinfo_file_name_ENSt7__cxx1112basic_stringIcSt11char_traitsIcESaIcEEEEEE3setIN11imagefusion17file_format_errorEEERKT_SH_OSA_"
 "_ZN5boost16exception_detail14bad_exception_D0Ev"
 "_ZN5boost16exception_detail14bad_exception_D1Ev"
 "_ZN5boost16exception_detail14bad_exception_D2Ev"
 "_ZN5boost16exception_detail20copy_boost_exceptionEPNS_9exceptionEPKS1_"
 "_ZN5boost16exception_detail25error_info_container_impl3setERKNS_10shared_ptrINS0_15error_info_baseEEERKNS0_10type_info_E"
 "_ZN5boost16exception_detail27get_static_exception_objectINS0_10bad_alloc_EEENS_13exception_ptrEv"
 "_ZN5boost16exception_detail27get_static_exception_objectINS0_14bad_exception_EEENS_13exception_ptrEv"
 "_ZN5boost16exception_detail37exception_ptr_static_exception_objectINS0_10bad_alloc_EE1eE"
 "_ZN5boost16exception_detail37exception_ptr_static_exception_objectINS0_14bad_exception_EE1eE"
 "_ZN5boost6detail15sp_counted_base7destroyEv"
 "_ZN5boost6detail15sp_counted_base7releaseEv"
 "_ZN5boost6detail17sp_counted_impl_pINS_10error_infoINS_18errinfo_file_name_ENSt7__cxx1112basic_stringIcSt11char_traitsIcESaIcEEEEEE11get_deleterERKSt9type_info"
 "_ZN5boost6detail17sp_counted_impl_pINS_10error_infoINS_18errinfo_file_name_ENSt7__cxx1112basic_stringIcSt11char_traitsIcESaIcEEEEEE17get_local_deleterERKSt9type_info"
 "_ZN5boost6detail17sp_counted_impl_pINS_10error_infoINS_18errinfo_file_name_ENSt7__cxx1112basic_stringIcSt11char_traitsIcESaIcEEEEEE19get_untyped_deleterEv"
 "_ZN5boost6detail17sp_counted_impl_pINS_10error_infoINS_18errinfo_file_name_ENSt7__cxx1112basic_stringIcSt11char_traitsIcESaIcEEEEEE7disposeEv"
 "_ZN5boost6detail17sp_counted_impl_pINS_10error_infoINS_18errinfo_file_name_ENSt7__cxx1112basic_stringIcSt11char_traitsIcESaIcEEEEEED0Ev"
 "_ZN5boost6detail17sp_counted_impl_pINS_10error_infoINS_18errinfo_file_name_ENSt7__cxx1112basic_stringIcSt11char_traitsIcESaIcEEEEEED1Ev"
 "_ZN5boost6detail17sp_counted_impl_pINS_16exception_detail10clone_implINS2_10bad_alloc_EEEE11get_deleterERKSt9type_info"
 "_ZN5boost6detail17sp_counted_impl_pINS_16exception_detail10clone_implINS2_10bad_alloc_EEEE17get_local_deleterERKSt9type_info"
 "_ZN5boost6detail17sp_counted_impl_pINS_16exception_detail10clone_implINS2_10bad_alloc_EEEE19get_untyped_deleterEv"
 "_ZN5boost6detail17sp_counted_impl_pINS_16exception_detail10clone_implINS2_10bad_alloc_EEEE7disposeEv"
 "_ZN5boost6detail17sp_counted_impl_pINS_16exception_detail10clone_implINS2_10bad_alloc_EEEED0Ev"
 "_ZN5boost6detail17sp_counted_impl_pINS_16exception_detail10clone_implINS2_10bad_alloc_EEEED1Ev"
 "_ZN5boost6detail17sp_counted_impl_pINS_16exception_detail10clone_implINS2_14bad_exception_EEEE11get_deleterERKSt9type_info"
 "_ZN5boost6detail17sp_counted_impl_pINS_16exception_detail10clone_implINS2_14bad_exception_EEEE17get_local_deleterERKSt9type_info"
 "_ZN5boost6detail17sp_counted_impl_pINS_16exception_detail10clone_implINS2_14bad_exception_EEEE19get_untyped_deleterEv"
 "_ZN5boost6detail17sp_counted_impl_pINS_16exception_detail10clone_implINS2_14bad_exception_EEEE7disposeEv"
 "_ZN5boost6detail17sp_counted_impl_pINS_16exception_detail10clone_implINS2_14bad_exception_EEEED0Ev"
 "_ZN5boost6detail17sp_counted_impl_pINS_16exception_detail10clone_implINS2_14bad_exception_EEEED1Ev"
 "_ZN5boost6detail17sp_counted_impl_pINS_16exception_detail15error_info_baseEE11get_deleterERKSt9type_info"
 "_ZN5boost6detail17sp_counted_impl_pINS_16exception_detail15error_info_baseEE17get_local_deleterERKSt9type_info"
 "_ZN5boost6detail17sp_counted_impl_pINS_16exception_detail15error_info_baseEE19get_untyped_deleterEv"
 "_ZN5boost6detail17sp_counted_impl_pINS_16exception_detail15error_info_baseEE7disposeEv"
 "_ZN5boost6detail17sp_counted_impl_pINS_16exception_detail15error_info_baseEED0Ev"
 "_ZN5boost6detail17sp_counted_impl_pINS_16exception_detail15error_info_baseEED1Ev"
 "_ZN5boost9to_stringINS_18errinfo_file_name_ENSt7__cxx1112basic_stringIcSt11char_traitsIcESaIcEEEEES7_RKNS_10error_infoIT_T0_EE"
 "_ZN9__gnu_cxx12__to_xstringINSt7__cxx1112basic_stringIcSt11char_traitsIcESaIcEEEcEET_PFiPT0_yPKS8_PcEySB_z"
 "_ZNK11imagefusion12GeoTransform10isIdentityEv"
 "_ZNK11imagefusion12GeoTransform9imgToProjERKN2cv5Rect_IdEE"
 "_ZNK11imagefusion12GeoTransform9imgToProjERKN2cv6Point_IdEE"
 "_ZNK11imagefusion12GeoTransform9projToImgERKN2cv5Rect_IdEE"
 "_ZNK11imagefusion12GeoTransform9projToImgERKN2cv6Point_IdEE"
 "_ZNK11imagefusion7GeoInfo10projToProjERKN2cv6Point_IdEERKS0_"
 "_ZNK11imagefusion7GeoInfo10projToProjERKSt6vectorIN2cv6Point_IdEESaIS4_EERKS0_"
 "_ZNK11imagefusion7GeoInfo11subdatasetsB5cxx11Ev"
 "_ZNK11imagefusion7GeoInfo12imgToLongLatERKN2cv6Point_IdEE"
 "_ZNK11imagefusion7GeoInfo12imgToLongLatERKSt6vectorIN2cv6Point_IdEESaIS4_EE"
 "_ZNK11imagefusion7GeoInfo12longLatToImgERKN2cv6Point_IdEE"
 "_ZNK11imagefusion7GeoInfo12longLatToImgERKSt6vectorIN2cv6Point_IdEESaIS4_EE"
 "_ZNK11imagefusion7GeoInfo13longLatToProjERKN2cv6Point_IdEE"
 "_ZNK11imagefusion7GeoInfo13longLatToProjERKSt6vectorIN2cv6Point_IdEESaIS4_EE"
 "_ZNK11imagefusion7GeoInfo13projToLongLatERKN2cv6Point_IdEE"
 "_ZNK11imagefusion7GeoInfo13projToLongLatERKSt6vectorIN2cv6Point_IdEESaIS4_EE"
 "_ZNK11imagefusion7GeoInfo14getNodataValueEj"
 "_ZNK11imagefusion7GeoInfo15hasGeotransformEv"
 "_ZNK11imagefusion7GeoInfo16getMetadataItemsERKNSt7__cxx1112basic_stringIcSt11char_traitsIcESaIcEEE"
 "_ZNK11imagefusion7GeoInfo17subdatasetGeoInfoEj"
 "_ZNK11imagefusion7GeoInfo18compareColorTablesERKS0_b"
 "_ZNK11imagefusion7GeoInfo18openVrtGdalDatasetERKSt6vectorIiSaIiEENS_12InterpMethodE"
 "_ZNK11imagefusion7GeoInfo5addToEP11GDALDataset"
 "_ZNK11imagefusion7GeoInfo5addToERKNSt7__cxx1112basic_stringIcSt11char_traitsIcESaIcEEE"
 "_ZNK11imagefusion7GeoInfo7hasGCPsEv"
 "_ZNK11imagefusion7GeoInfo8imgToImgERKN2cv6Point_IdEERKS0_"
 "_ZNK11imagefusion7GeoInfo8imgToImgERKSt6vectorIN2cv6Point_IdEESaIS4_EERKS0_"
 "_ZNK11imagefusion7GeoInfo9imgToProjERKN2cv6Point_IdEERKS0_"
 "_ZNK11imagefusion7GeoInfo9imgToProjERKSt6vectorIN2cv6Point_IdEESaIS4_EERKS0_"
 "_ZNK11imagefusion7GeoInfo9projToImgERKN2cv6Point_IdEERKS0_"
 "_ZNK11imagefusion7GeoInfo9projToImgERKSt6vectorIN2cv6Point_IdEESaIS4_EERKS0_"
 "_ZNK5boost10error_infoINS_18errinfo_file_name_ENSt7__cxx1112basic_stringIcSt11char_traitsIcESaIcEEEE17name_value_stringEv"
 "_ZNK5boost10error_infoINS_18errinfo_file_name_ENSt7__cxx1112basic_stringIcSt11char_traitsIcESaIcEEEE5cloneEv"
 "_ZNK5boost16exception_detail10clone_implINS0_10bad_alloc_EE5cloneEv"
 "_ZNK5boost16exception_detail10clone_implINS0_10bad_alloc_EE7rethrowEv"
 "_ZNK5boost16exception_detail10clone_implINS0_14bad_exception_EE5cloneEv"
 "_ZNK5boost16exception_detail10clone_implINS0_14bad_exception_EE7rethrowEv"
 "_ZNK5boost16exception_detail25error_info_container_impl22diagnostic_informationEPKc"
 "_ZNK5boost16exception_detail25error_info_container_impl3getERKNS0_10type_info_E"
 "_ZNK5boost16exception_detail25error_info_container_impl5cloneEv"
 "_ZNK5boost16exception_detail25error_info_container_impl7add_refEv"
 "_ZNK5boost16exception_detail25error_info_container_impl7releaseEv"
 "_ZNKSt23__codecvt_abstract_baseIwciE2inERiPKcS3_RS3_PwS5_RS5_"
 "_ZNKSt7__cxx1112basic_stringIcSt11char_traitsIcESaIcEE7compareERKS4_"
 "_ZNKSt8_Rb_treeINSt7__cxx1112basic_stringIcSt11char_traitsIcESaIcEEESt4pairIKS5_St3mapIS5_S5_St4lessIS5_ESaIS6_IS7_S5_EEEESt10_Select1stISE_ESA_SaISE_EE4findERS7_"
 "_ZNSt10filesystem7__cxx1116filesystem_errorC1ERKNSt7__cxx1112basic_stringIcSt11char_traitsIcESaIcEEESt10error_code"
 "_ZNSt10filesystem7__cxx114pathD1Ev"
 "_ZNSt11char_traitsIcE6lengthEPKc"
 "_ZNSt6vectorI8GDAL_GCPSaIS0_EE17_M_realloc_insertIJS0_EEEvN9__gnu_cxx17__normal_iteratorIPS0_S2_EEDpOT_"
 "_ZNSt6vectorIN11imagefusion7GeoInfo3GCPESaIS2_EE17_M_realloc_insertIJS2_EEEvN9__gnu_cxx17__normal_iteratorIPS2_S4_EEDpOT_"
 "_ZNSt6vectorIN2cv6Point_IdEESaIS2_EE12emplace_backIJRdS6_EEERS2_DpOT_"
 "_ZNSt6vectorIN2cv6Point_IdEESaIS2_EE7reserveEy"
 "_ZNSt6vectorINSt10filesystem7__cxx114path5_CmptESaIS3_EED1Ev"
 "_ZNSt6vectorISt4pairINSt7__cxx1112basic_stringIcSt11char_traitsIcESaIcEEES6_ESaIS7_EE17_M_realloc_insertIJRKS6_SC_EEEvN9__gnu_cxx17__normal_iteratorIPS7_S9_EEDpOT_"
 "_ZNSt6vectorISt4pairINSt7__cxx1112basic_stringIcSt11char_traitsIcESaIcEEES6_ESaIS7_EED1Ev"
 "_ZNSt6vectorISt5arrayIsLy4EESaIS1_EE17_M_realloc_insertIJS1_EEEvN9__gnu_cxx17__normal_iteratorIPS1_S3_EEDpOT_"
 "_ZNSt6vectorIdSaIdEE14_M_fill_insertEN9__gnu_cxx17__normal_iteratorIPdS1_EEyRKd"
 "_ZNSt6vectorIdSaIdEE17_M_realloc_insertIJRKdEEEvN9__gnu_cxx17__normal_iteratorIPdS1_EEDpOT_"
 "_ZNSt6vectorIdSaIdEE7reserveEy"
 "_ZNSt7__cxx1112basic_stringIcSt11char_traitsIcESaIcEE10_M_replaceEyyPKcy"
 "_ZNSt7__cxx1112basic_stringIcSt11char_traitsIcESaIcEE12_M_constructIPKcEEvT_S8_St20forward_iterator_tag"
 "_ZNSt7__cxx1112basic_stringIcSt11char_traitsIcESaIcEE12_M_constructIPcEEvT_S7_St20forward_iterator_tag"
 "_ZNSt7__cxx1112basic_stringIcSt11char_traitsIcESaIcEE14_M_replace_auxEyyyc"
 "_ZNSt7__cxx1112basic_stringIcSt11char_traitsIcESaIcEE4swapERS4_"
 "_ZNSt7__cxx1112basic_stringIcSt11char_traitsIcESaIcEE6appendEPKc"
 "_ZNSt7__cxx1112basic_stringIcSt11char_traitsIcESaIcEE8_M_eraseEyy"
 "_ZNSt7__cxx1112basic_stringIcSt11char_traitsIcESaIcEE9_M_appendEPKcy"
 "_ZNSt7__cxx1112basic_stringIcSt11char_traitsIcESaIcEE9_M_mutateEyyPKcy"
 "_ZNSt7__cxx1112basic_stringIwSt11char_traitsIwESaIwEE10_M_replaceEyyPKwy"
 "_ZNSt7__cxx1112basic_stringIwSt11char_traitsIwESaIwEE6resizeEyw"
 "_ZNSt7__cxx1112basic_stringIwSt11char_traitsIwESaIwEE9_M_createERyy"
 "_ZNSt7__cxx1112basic_stringIwSt11char_traitsIwESaIwEE9_M_mutateEyyPKwy"
 "_ZNSt8_Rb_treeIN5boost16exception_detail10type_info_ESt4pairIKS2_NS0_10shared_ptrINS1_15error_info_baseEEEESt10_Select1stIS8_ESt4lessIS2_ESaIS8_EE14_M_insert_nodeEPSt18_Rb_tree_node_baseSG_PSt13_Rb_tree_nodeIS8_E"
 "_ZNSt8_Rb_treeIN5boost16exception_detail10type_info_ESt4pairIKS2_NS0_10shared_ptrINS1_15error_info_baseEEEESt10_Select1stIS8_ESt4lessIS2_ESaIS8_EE24_M_get_insert_unique_posERS4_"
 "_ZNSt8_Rb_treeIN5boost16exception_detail10type_info_ESt4pairIKS2_NS0_10shared_ptrINS1_15error_info_baseEEEESt10_Select1stIS8_ESt4lessIS2_ESaIS8_EE8_M_eraseEPSt13_Rb_tree_nodeIS8_E"
 "_ZNSt8_Rb_treeINSt7__cxx1112basic_stringIcSt11char_traitsIcESaIcEEESt4pairIKS5_S5_ESt10_Select1stIS8_ESt4lessIS5_ESaIS8_EE22_M_emplace_hint_uniqueIJRKSt21piecewise_construct_tSt5tupleIJOS5_EESJ_IJEEEEESt17_Rb_tree_iteratorIS8_ESt23_Rb_tree_const_iteratorIS8_EDpOT_"
 "_ZNSt8_Rb_treeINSt7__cxx1112basic_stringIcSt11char_traitsIcESaIcEEESt4pairIKS5_S5_ESt10_Select1stIS8_ESt4lessIS5_ESaIS8_EE24_M_get_insert_unique_posERS7_"
 "_ZNSt8_Rb_treeINSt7__cxx1112basic_stringIcSt11char_traitsIcESaIcEEESt4pairIKS5_S5_ESt10_Select1stIS8_ESt4lessIS5_ESaIS8_EE8_M_eraseEPSt13_Rb_tree_nodeIS8_E"
 "_ZNSt8_Rb_treeINSt7__cxx1112basic_stringIcSt11char_traitsIcESaIcEEESt4pairIKS5_St3mapIS5_S5_St4lessIS5_ESaIS6_IS7_S5_EEEESt10_Select1stISE_ESA_SaISE_EE22_M_emplace_hint_uniqueIJRKSt21piecewise_construct_tSt5tupleIJOS5_EESN_IJEEEEESt17_Rb_tree_iteratorISE_ESt23_Rb_tree_const_iteratorISE_EDpOT_"
 "_ZNSt8_Rb_treeINSt7__cxx1112basic_stringIcSt11char_traitsIcESaIcEEESt4pairIKS5_St3mapIS5_S5_St4lessIS5_ESaIS6_IS7_S5_EEEESt10_Select1stISE_ESA_SaISE_EE24_M_get_insert_unique_posERS7_"
 "_ZNSt8_Rb_treeINSt7__cxx1112basic_stringIcSt11char_traitsIcESaIcEEESt4pairIKS5_St3mapIS5_S5_St4lessIS5_ESaIS6_IS7_S5_EEEESt10_Select1stISE_ESA_SaISE_EE8_M_eraseEPSt13_Rb_tree_nodeISE_E"
 "_ZSt16__minmax_elementIN9__gnu_cxx17__normal_iteratorIPKN2cv6Point_IdEESt6vectorIS4_SaIS4_EEEENS0_5__ops15_Iter_comp_iterIZN11imagefusion6detail25getRectFromBoundaryCoordsERKS9_EUlRS5_SH_E0_EEESt4pairIT_SL_ESL_SL_T0_"
 "_ZSt16__minmax_elementIN9__gnu_cxx17__normal_iteratorIPKN2cv6Point_IdEESt6vectorIS4_SaIS4_EEEENS0_5__ops15_Iter_comp_iterIZN11imagefusion6detail25getRectFromBoundaryCoordsERKS9_EUlRS5_SH_E_EEESt4pairIT_SL_ESL_SL_T0_"
 "_ZSt19piecewise_construct"
 "_ZStplIcSt11char_traitsIcESaIcEENSt7__cxx1112basic_stringIT_T0_T1_EEOS8_PKS5_"
 "_ZStplIcSt11char_traitsIcESaIcEENSt7__cxx1112basic_stringIT_T0_T1_EEOS8_S9_"
 "_ZStplIcSt11char_traitsIcESaIcEENSt7__cxx1112basic_stringIT_T0_T1_EEPKS5_OS8_"
 "_ZStplIcSt11char_traitsIcESaIcEENSt7__cxx1112basic_stringIT_T0_T1_EEPKS5_RKS8_"
 "_ZTCN11imagefusion15not_found_errorE0_NS_13runtime_errorE"
 "_ZTCN11imagefusion16image_type_errorE0_NS_13runtime_errorE"
 "_ZTCN11imagefusion17file_format_errorE0_NS_13runtime_errorE"
 "_ZTCN11imagefusion22invalid_argument_errorE0_NS_13runtime_errorE"
 "_ZTIN11imagefusion13runtime_errorE"
 "_ZTIN11imagefusion15not_found_errorE"
 "_ZTIN11imagefusion16image_type_errorE"
 "_ZTIN11imagefusion17file_format_errorE"
 "_ZTIN11imagefusion22invalid_argument_errorE"
 "_ZTIN5boost10error_infoINS_18errinfo_file_name_ENSt7__cxx1112basic_stringIcSt11char_traitsIcESaIcEEEEE"
 "_ZTIN5boost16exception_detail10bad_alloc_E"
 "_ZTIN5boost16exception_detail10clone_baseE"
 "_ZTIN5boost16exception_detail10clone_implINS0_10bad_alloc_EEE"
 "_ZTIN5boost16exception_detail10clone_implINS0_14bad_exception_EEE"
 "_ZTIN5boost16exception_detail14bad_exception_E"
 "_ZTIN5boost16exception_detail15error_info_baseE"
 "_ZTIN5boost16exception_detail20error_info_containerE"
 "_ZTIN5boost16exception_detail25error_info_container_implE"
 "_ZTIN5boost6detail15sp_counted_baseE"
 "_ZTIN5boost6detail17sp_counted_impl_pINS_10error_infoINS_18errinfo_file_name_ENSt7__cxx1112basic_stringIcSt11char_traitsIcESaIcEEEEEEE"
 "_ZTIN5boost6detail17sp_counted_impl_pINS_16exception_detail10clone_implINS2_10bad_alloc_EEEEE"
 "_ZTIN5boost6detail17sp_counted_impl_pINS_16exception_detail10clone_implINS2_14bad_exception_EEEEE"
 "_ZTIN5boost6detail17sp_counted_impl_pINS_16exception_detail15error_info_baseEEE"
 "_ZTIN5boost9exceptionE"
 "_ZTINSt10filesystem7__cxx1116filesystem_errorE"
 "_ZTISt12system_error"
 "_ZTISt13bad_exception"
 "_ZTISt13runtime_error"
 "_ZTISt9bad_alloc"
 "_ZTISt9exception"
 "_ZTSN11imagefusion13runtime_errorE"
 "_ZTSN11imagefusion15not_found_errorE"
 "_ZTSN11imagefusion16image_type_errorE"
 "_ZTSN11imagefusion17file_format_errorE"
 "_ZTSN11imagefusion22invalid_argument_errorE"
 "_ZTSN5boost10error_infoINS_18errinfo_file_name_ENSt7__cxx1112basic_stringIcSt11char_traitsIcESaIcEEEEE"
 "_ZTSN5boost16exception_detail10bad_alloc_E"
 "_ZTSN5boost16exception_detail10clone_baseE"
 "_ZTSN5boost16exception_detail10clone_implINS0_10bad_alloc_EEE"
 "_ZTSN5boost16exception_detail10clone_implINS0_14bad_exception_EEE"
 "_ZTSN5boost16exception_detail14bad_exception_E"
 "_ZTSN5boost16exception_detail15error_info_baseE"
 "_ZTSN5boost16exception_detail20error_info_containerE"
 "_ZTSN5boost16exception_detail25error_info_container_implE"
 "_ZTSN5boost6detail15sp_counted_baseE"
 "_ZTSN5boost6detail17sp_counted_impl_pINS_10error_infoINS_18errinfo_file_name_ENSt7__cxx1112basic_stringIcSt11char_traitsIcESaIcEEEEEEE"
 "_ZTSN5boost6detail17sp_counted_impl_pINS_16exception_detail10clone_implINS2_10bad_alloc_EEEEE"
 "_ZTSN5boost6detail17sp_counted_impl_pINS_16exception_detail10clone_implINS2_14bad_exception_EEEEE"
 "_ZTSN5boost6detail17sp_counted_impl_pINS_16exception_detail15error_info_baseEEE"
 "_ZTSN5boost9exceptionE"
 "_ZTSNSt10filesystem7__cxx1116filesystem_errorE"
 "_ZTSPN5boost18errinfo_file_name_E"
 "_ZTSSt12system_error"
 "_ZTSSt13bad_exception"
 "_ZTSSt13runtime_error"
 "_ZTSSt9bad_alloc"
 "_ZTSSt9exception"
 "_ZTTN11imagefusion13runtime_errorE"
 "_ZTTN11imagefusion15not_found_errorE"
 "_ZTTN11imagefusion16image_type_errorE"
 "_ZTTN11imagefusion17file_format_errorE"
 "_ZTTN11imagefusion22invalid_argument_errorE"
 "_ZTTN5boost16exception_detail10clone_implINS0_10bad_alloc_EEE"
 "_ZTTN5boost16exception_detail10clone_implINS0_14bad_exception_EEE"
 "_ZTVN11imagefusion13runtime_errorE"
 "_ZTVN11imagefusion15not_found_errorE"
 "_ZTVN11imagefusion16image_type_errorE"
 "_ZTVN11imagefusion17file_format_errorE"
 "_ZTVN11imagefusion22invalid_argument_errorE"
 "_ZTVN5boost10error_infoINS_18errinfo_file_name_ENSt7__cxx1112basic_stringIcSt11char_traitsIcESaIcEEEEE"
 "_ZTVN5boost16exception_detail10bad_alloc_E"
 "_ZTVN5boost16exception_detail10clone_baseE"
 "_ZTVN5boost16exception_detail10clone_implINS0_10bad_alloc_EEE"
 "_ZTVN5boost16exception_detail10clone_implINS0_14bad_exception_EEE"
 "_ZTVN5boost16exception_detail14bad_exception_E"
 "_ZTVN5boost16exception_detail25error_info_container_implE"
 "_ZTVN5boost6detail17sp_counted_impl_pINS_10error_infoINS_18errinfo_file_name_ENSt7__cxx1112basic_stringIcSt11char_traitsIcESaIcEEEEEEE"
 "_ZTVN5boost6detail17sp_counted_impl_pINS_16exception_detail10clone_implINS2_10bad_alloc_EEEEE"
 "_ZTVN5boost6detail17sp_counted_impl_pINS_16exception_detail10clone_implINS2_14bad_exception_EEEEE"
 "_ZTVN5boost6detail17sp_counted_impl_pINS_16exception_detail15error_info_baseEEE"
 "_ZTVN5boost9exceptionE"
 "_ZThn40_N5boost16exception_detail10bad_alloc_D0Ev"
 "_ZThn40_N5boost16exception_detail10bad_alloc_D1Ev"
 "_ZThn40_N5boost16exception_detail10clone_implINS0_10bad_alloc_EED0Ev"
 "_ZThn40_N5boost16exception_detail10clone_implINS0_10bad_alloc_EED1Ev"
 "_ZThn40_N5boost16exception_detail10clone_implINS0_14bad_exception_EED0Ev"
 "_ZThn40_N5boost16exception_detail10clone_implINS0_14bad_exception_EED1Ev"
 "_ZThn40_N5boost16exception_detail14bad_exception_D0Ev"
 "_ZThn40_N5boost16exception_detail14bad_exception_D1Ev"
 "_ZTv0_n24_N11imagefusion13runtime_errorD0Ev"
 "_ZTv0_n24_N11imagefusion13runtime_errorD1Ev"
 "_ZTv0_n24_N11imagefusion15not_found_errorD0Ev"
 "_ZTv0_n24_N11imagefusion15not_found_errorD1Ev"
 "_ZTv0_n24_N11imagefusion16image_type_errorD0Ev"
 "_ZTv0_n24_N11imagefusion16image_type_errorD1Ev"
 "_ZTv0_n24_N11imagefusion17file_format_errorD0Ev"
 "_ZTv0_n24_N11imagefusion17file_format_errorD1Ev"
 "_ZTv0_n24_N11imagefusion22invalid_argument_errorD0Ev"
 "_ZTv0_n24_N11imagefusion22invalid_argument_errorD1Ev"
 "_ZTv0_n24_NK5boost16exception_detail10clone_implINS0_10bad_alloc_EE5cloneEv"
 "_ZTv0_n24_NK5boost16exception_detail10clone_implINS0_14bad_exception_EE5cloneEv"
 "_ZTv0_n32_NK5boost16exception_detail10clone_implINS0_10bad_alloc_EE7rethrowEv"
 "_ZTv0_n32_NK5boost16exception_detail10clone_implINS0_14bad_exception_EE7rethrowEv"
 "_ZTv0_n40_N11imagefusion15not_found_errorD0Ev"
 "_ZTv0_n40_N11imagefusion15not_found_errorD1Ev"
 "_ZTv0_n40_N11imagefusion16image_type_errorD0Ev"
 "_ZTv0_n40_N11imagefusion16image_type_errorD1Ev"
 "_ZTv0_n40_N11imagefusion17file_format_errorD0Ev"
 "_ZTv0_n40_N11imagefusion17file_format_errorD1Ev"
 "_ZTv0_n40_N11imagefusion22invalid_argument_errorD0Ev"
 "_ZTv0_n40_N11imagefusion22invalid_argument_errorD1Ev"
 "_ZTv0_n40_N5boost16exception_detail10clone_implINS0_10bad_alloc_EED0Ev"
 "_ZTv0_n40_N5boost16exception_detail10clone_implINS0_10bad_alloc_EED1Ev"
 "_ZTv0_n40_N5boost16exception_detail10clone_implINS0_14bad_exception_EED0Ev"
 "_ZTv0_n40_N5boost16exception_detail10clone_implINS0_14bad_exception_EED1Ev"
 "_ZZN5boost16exception_detail27get_static_exception_objectINS0_10bad_alloc_EEENS_13exception_ptrEvE2ep"
 "_ZZN5boost16exception_detail27get_static_exception_objectINS0_14bad_exception_EEENS_13exception_ptrEvE2ep"
 "_ZGVN5boost16exception_detail37exception_ptr_static_exception_objectINS0_10bad_alloc_EE1eE"
 "_ZGVN5boost16exception_detail37exception_ptr_static_exception_objectINS0_14bad_exception_EE1eE"
 "_ZGVZN5boost16exception_detail27get_static_exception_objectINS0_10bad_alloc_EEENS_13exception_ptrEvE2ep"
 "_ZGVZN5boost16exception_detail27get_static_exception_objectINS0_14bad_exception_EEENS_13exception_ptrEvE2ep"
 "_ZN11imagefusion10FileFormat11isSupportedERKNSt7__cxx1112basic_stringIcSt11char_traitsIcESaIcEEE"
 "_ZN11imagefusion10FileFormat11unsupportedE"
 "_ZN11imagefusion10FileFormat16supportedFormatsEv"
 "_ZN11imagefusion10FileFormat17fromFileExtensionENSt7__cxx1112basic_stringIcSt11char_traitsIcESaIcEEE"
 "_ZN11imagefusion10FileFormat8fromFileENSt7__cxx1112basic_stringIcSt11char_traitsIcESaIcEEE"
 "_ZN5boost10error_infoINS_27tag_original_exception_typeEPKSt9type_infoED0Ev"
 "_ZN5boost10error_infoINS_27tag_original_exception_typeEPKSt9type_infoED1Ev"
 "_ZN5boost16exception_detail10bad_alloc_D0Ev"
 "_ZN5boost16exception_detail10bad_alloc_D1Ev"
 "_ZN5boost16exception_detail10bad_alloc_D2Ev"
 "_ZN5boost16exception_detail10clone_implINS0_10bad_alloc_EED0Ev"
 "_ZN5boost16exception_detail10clone_implINS0_10bad_alloc_EED1Ev"
 "_ZN5boost16exception_detail10clone_implINS0_14bad_exception_EED0Ev"
 "_ZN5boost16exception_detail10clone_implINS0_14bad_exception_EED1Ev"
 "_ZN5boost16exception_detail14bad_exception_D0Ev"
 "_ZN5boost16exception_detail14bad_exception_D1Ev"
 "_ZN5boost16exception_detail14bad_exception_D2Ev"
 "_ZN5boost16exception_detail25error_info_container_impl3setERKNS_10shared_ptrINS0_15error_info_baseEEERKNS0_10type_info_E"
 "_ZN5boost16exception_detail27get_static_exception_objectINS0_10bad_alloc_EEENS_13exception_ptrEv"
 "_ZN5boost16exception_detail27get_static_exception_objectINS0_14bad_exception_EEENS_13exception_ptrEv"
 "_ZN5boost16exception_detail37exception_ptr_static_exception_objectINS0_10bad_alloc_EE1eE"
 "_ZN5boost16exception_detail37exception_ptr_static_exception_objectINS0_14bad_exception_EE1eE"
 "_ZN5boost6detail15sp_counted_base7destroyEv"
 "_ZN5boost6detail15sp_counted_base7releaseEv"
 "_ZN5boost6detail17sp_counted_impl_pINS_16exception_detail10clone_implINS2_10bad_alloc_EEEE11get_deleterERKSt9type_info"
 "_ZN5boost6detail17sp_counted_impl_pINS_16exception_detail10clone_implINS2_10bad_alloc_EEEE17get_local_deleterERKSt9type_info"
 "_ZN5boost6detail17sp_counted_impl_pINS_16exception_detail10clone_implINS2_10bad_alloc_EEEE19get_untyped_deleterEv"
 "_ZN5boost6detail17sp_counted_impl_pINS_16exception_detail10clone_implINS2_10bad_alloc_EEEE7disposeEv"
 "_ZN5boost6detail17sp_counted_impl_pINS_16exception_detail10clone_implINS2_10bad_alloc_EEEED0Ev"
 "_ZN5boost6detail17sp_counted_impl_pINS_16exception_detail10clone_implINS2_10bad_alloc_EEEED1Ev"
 "_ZN5boost6detail17sp_counted_impl_pINS_16exception_detail10clone_implINS2_14bad_exception_EEEE11get_deleterERKSt9type_info"
 "_ZN5boost6detail17sp_counted_impl_pINS_16exception_detail10clone_implINS2_14bad_exception_EEEE17get_local_deleterERKSt9type_info"
 "_ZN5boost6detail17sp_counted_impl_pINS_16exception_detail10clone_implINS2_14bad_exception_EEEE19get_untyped_deleterEv"
 "_ZN5boost6detail17sp_counted_impl_pINS_16exception_detail10clone_implINS2_14bad_exception_EEEE7disposeEv"
 "_ZN5boost6detail17sp_counted_impl_pINS_16exception_detail10clone_implINS2_14bad_exception_EEEED0Ev"
 "_ZN5boost6detail17sp_counted_impl_pINS_16exception_detail10clone_implINS2_14bad_exception_EEEED1Ev"
 "_ZN5boost6detail17sp_counted_impl_pINS_16exception_detail15error_info_baseEE11get_deleterERKSt9type_info"
 "_ZN5boost6detail17sp_counted_impl_pINS_16exception_detail15error_info_baseEE17get_local_deleterERKSt9type_info"
 "_ZN5boost6detail17sp_counted_impl_pINS_16exception_detail15error_info_baseEE19get_untyped_deleterEv"
 "_ZN5boost6detail17sp_counted_impl_pINS_16exception_detail15error_info_baseEE7disposeEv"
 "_ZN5boost6detail17sp_counted_impl_pINS_16exception_detail15error_info_baseEED0Ev"
 "_ZN5boost6detail17sp_counted_impl_pINS_16exception_detail15error_info_baseEED1Ev"
 "_ZNK11imagefusion10FileFormat13fileExtensionB5cxx11Ev"
 "_ZNK11imagefusion10FileFormat17allFileExtensionsB5cxx11Ev"
 "_ZNK11imagefusion10FileFormat8longNameB5cxx11Ev"
 "_ZNK5boost10error_infoINS_27tag_original_exception_typeEPKSt9type_infoE17name_value_stringB5cxx11Ev"
 "_ZNK5boost10error_infoINS_27tag_original_exception_typeEPKSt9type_infoE5cloneEv"
 "_ZNK5boost16exception_detail10clone_implINS0_10bad_alloc_EE5cloneEv"
 "_ZNK5boost16exception_detail10clone_implINS0_10bad_alloc_EE7rethrowEv"
 "_ZNK5boost16exception_detail10clone_implINS0_14bad_exception_EE5cloneEv"
 "_ZNK5boost16exception_detail10clone_implINS0_14bad_exception_EE7rethrowEv"
 "_ZNK5boost16exception_detail25error_info_container_impl22diagnostic_informationEPKc"
 "_ZNK5boost16exception_detail25error_info_container_impl3getERKNS0_10type_info_E"
 "_ZNK5boost16exception_detail25error_info_container_impl5cloneEv"
 "_ZNK5boost16exception_detail25error_info_container_impl7add_refEv"
 "_ZNK5boost16exception_detail25error_info_container_impl7releaseEv"
 "_ZNSt6vectorIN11imagefusion10FileFormatESaIS1_EE17_M_realloc_insertIJRKS1_EEEvN9__gnu_cxx17__normal_iteratorIPS1_S3_EEDpOT_"
 "_ZNSt7__cxx1112basic_stringIcSt11char_traitsIcESaIcEE10_M_replaceEyyPKcy"
 "_ZNSt7__cxx1112basic_stringIcSt11char_traitsIcESaIcEE12_M_constructIPKcEEvT_S8_St20forward_iterator_tag"
 "_ZNSt7__cxx1112basic_stringIcSt11char_traitsIcESaIcEE12_M_constructIPcEEvT_S7_St20forward_iterator_tag"
 "_ZNSt7__cxx1115basic_stringbufIcSt11char_traitsIcESaIcEED1Ev"
 "_ZNSt8_Rb_treeIN5boost16exception_detail10type_info_ESt4pairIKS2_NS0_10shared_ptrINS1_15error_info_baseEEEESt10_Select1stIS8_ESt4lessIS2_ESaIS8_EE14_M_insert_nodeEPSt18_Rb_tree_node_baseSG_PSt13_Rb_tree_nodeIS8_E"
 "_ZNSt8_Rb_treeIN5boost16exception_detail10type_info_ESt4pairIKS2_NS0_10shared_ptrINS1_15error_info_baseEEEESt10_Select1stIS8_ESt4lessIS2_ESaIS8_EE24_M_get_insert_unique_posERS4_"
 "_ZNSt8_Rb_treeIN5boost16exception_detail10type_info_ESt4pairIKS2_NS0_10shared_ptrINS1_15error_info_baseEEEESt10_Select1stIS8_ESt4lessIS2_ESaIS8_EE8_M_eraseEPSt13_Rb_tree_nodeIS8_E"
 "_ZTIN5boost10error_infoINS_27tag_original_exception_typeEPKSt9type_infoEE"
 "_ZTIN5boost16exception_detail10bad_alloc_E"
 "_ZTIN5boost16exception_detail10clone_baseE"
 "_ZTIN5boost16exception_detail10clone_implINS0_10bad_alloc_EEE"
 "_ZTIN5boost16exception_detail10clone_implINS0_14bad_exception_EEE"
 "_ZTIN5boost16exception_detail14bad_exception_E"
 "_ZTIN5boost16exception_detail15error_info_baseE"
 "_ZTIN5boost16exception_detail20error_info_containerE"
 "_ZTIN5boost16exception_detail25error_info_container_implE"
 "_ZTIN5boost6detail15sp_counted_baseE"
 "_ZTIN5boost6detail17sp_counted_impl_pINS_16exception_detail10clone_implINS2_10bad_alloc_EEEEE"
 "_ZTIN5boost6detail17sp_counted_impl_pINS_16exception_detail10clone_implINS2_14bad_exception_EEEEE"
 "_ZTIN5boost6detail17sp_counted_impl_pINS_16exception_detail15error_info_baseEEE"
 "_ZTIN5boost9exceptionE"
 "_ZTISt13bad_exception"
 "_ZTISt9bad_alloc"
 "_ZTISt9exception"
 "_ZTSN5boost10error_infoINS_27tag_original_exception_typeEPKSt9type_infoEE"
 "_ZTSN5boost16exception_detail10bad_alloc_E"
 "_ZTSN5boost16exception_detail10clone_baseE"
 "_ZTSN5boost16exception_detail10clone_implINS0_10bad_alloc_EEE"
 "_ZTSN5boost16exception_detail10clone_implINS0_14bad_exception_EEE"
 "_ZTSN5boost16exception_detail14bad_exception_E"
 "_ZTSN5boost16exception_detail15error_info_baseE"
 "_ZTSN5boost16exception_detail20error_info_containerE"
 "_ZTSN5boost16exception_detail25error_info_container_implE"
 "_ZTSN5boost6detail15sp_counted_baseE"
 "_ZTSN5boost6detail17sp_counted_impl_pINS_16exception_detail10clone_implINS2_10bad_alloc_EEEEE"
 "_ZTSN5boost6detail17sp_counted_impl_pINS_16exception_detail10clone_implINS2_14bad_exception_EEEEE"
 "_ZTSN5boost6detail17sp_counted_impl_pINS_16exception_detail15error_info_baseEEE"
 "_ZTSN5boost9exceptionE"
 "_ZTSSt13bad_exception"
 "_ZTSSt9bad_alloc"
 "_ZTSSt9exception"
 "_ZTTN5boost16exception_detail10clone_implINS0_10bad_alloc_EEE"
 "_ZTTN5boost16exception_detail10clone_implINS0_14bad_exception_EEE"
 "_ZTVN5boost10error_infoINS_27tag_original_exception_typeEPKSt9type_infoEE"
 "_ZTVN5boost16exception_detail10bad_alloc_E"
 "_ZTVN5boost16exception_detail10clone_baseE"
 "_ZTVN5boost16exception_detail10clone_implINS0_10bad_alloc_EEE"
 "_ZTVN5boost16exception_detail10clone_implINS0_14bad_exception_EEE"
 "_ZTVN5boost16exception_detail14bad_exception_E"
 "_ZTVN5boost16exception_detail25error_info_container_implE"
 "_ZTVN5boost6detail17sp_counted_impl_pINS_16exception_detail10clone_implINS2_10bad_alloc_EEEEE"
 "_ZTVN5boost6detail17sp_counted_impl_pINS_16exception_detail10clone_implINS2_14bad_exception_EEEEE"
 "_ZTVN5boost6detail17sp_counted_impl_pINS_16exception_detail15error_info_baseEEE"
 "_ZTVN5boost9exceptionE"
 "_ZThn40_N5boost16exception_detail10bad_alloc_D0Ev"
 "_ZThn40_N5boost16exception_detail10bad_alloc_D1Ev"
 "_ZThn40_N5boost16exception_detail10clone_implINS0_10bad_alloc_EED0Ev"
 "_ZThn40_N5boost16exception_detail10clone_implINS0_10bad_alloc_EED1Ev"
 "_ZThn40_N5boost16exception_detail10clone_implINS0_14bad_exception_EED0Ev"
 "_ZThn40_N5boost16exception_detail10clone_implINS0_14bad_exception_EED1Ev"
 "_ZThn40_N5boost16exception_detail14bad_exception_D0Ev"
 "_ZThn40_N5boost16exception_detail14bad_exception_D1Ev"
 "_ZTv0_n24_NK5boost16exception_detail10clone_implINS0_10bad_alloc_EE5cloneEv"
 "_ZTv0_n24_NK5boost16exception_detail10clone_implINS0_14bad_exception_EE5cloneEv"
 "_ZTv0_n32_NK5boost16exception_detail10clone_implINS0_10bad_alloc_EE7rethrowEv"
 "_ZTv0_n32_NK5boost16exception_detail10clone_implINS0_14bad_exception_EE7rethrowEv"
 "_ZTv0_n40_N5boost16exception_detail10clone_implINS0_10bad_alloc_EED0Ev"
 "_ZTv0_n40_N5boost16exception_detail10clone_implINS0_10bad_alloc_EED1Ev"
 "_ZTv0_n40_N5boost16exception_detail10clone_implINS0_14bad_exception_EED0Ev"
 "_ZTv0_n40_N5boost16exception_detail10clone_implINS0_14bad_exception_EED1Ev"
 "_ZZN5boost16exception_detail27get_static_exception_objectINS0_10bad_alloc_EEENS_13exception_ptrEvE2ep"
 "_ZZN5boost16exception_detail27get_static_exception_objectINS0_14bad_exception_EEENS_13exception_ptrEvE2ep"
 "_ZGVN5boost16exception_detail37exception_ptr_static_exception_objectINS0_10bad_alloc_EE1eE"
 "_ZGVN5boost16exception_detail37exception_ptr_static_exception_objectINS0_14bad_exception_EE1eE"
 "_ZGVN7cvflann7anyimpl12SinglePolicyINS0_9empty_anyEE6policyE"
 "_ZGVN7cvflann7anyimpl12SinglePolicyINS_17flann_algorithm_tEE6policyE"
 "_ZGVN7cvflann7anyimpl12SinglePolicyINS_20flann_centers_init_tEE6policyE"
 "_ZGVN7cvflann7anyimpl12SinglePolicyINSt7__cxx1112basic_stringIcSt11char_traitsIcESaIcEEEE6policyE"
 "_ZGVN7cvflann7anyimpl12SinglePolicyIPKcE6policyE"
 "_ZGVN7cvflann7anyimpl12SinglePolicyIbE6policyE"
 "_ZGVN7cvflann7anyimpl12SinglePolicyIfE6policyE"
 "_ZGVN7cvflann7anyimpl12SinglePolicyIiE6policyE"
 "_ZGVN7cvflann7anyimpl12SinglePolicyIjE6policyE"
 "_ZGVZN5boost16exception_detail27get_static_exception_objectINS0_10bad_alloc_EEENS_13exception_ptrEvE2ep"
 "_ZGVZN5boost16exception_detail27get_static_exception_objectINS0_14bad_exception_EEENS_13exception_ptrEvE2ep"
 "_ZN11imagefusion10ConstImageC2EiiNS_4TypeE"
 "_ZN11imagefusion10ConstImageD0Ev"
 "_ZN11imagefusion10ConstImageD1Ev"
 "_ZN11imagefusion10size_errorC1ERKS0_"
 "_ZN11imagefusion10size_errorD0Ev"
 "_ZN11imagefusion10size_errorD1Ev"
 "_ZN11imagefusion10toFullTypeEi"
 "_ZN11imagefusion11getFullTypeENS_4TypeEh"
 "_ZN11imagefusion11logic_errorC1ERKS0_"
 "_ZN11imagefusion11logic_errorD0Ev"
 "_ZN11imagefusion11logic_errorD1Ev"
 "_ZN11imagefusion12ParallelizerINS_11StarfmFusorENS_13StarfmOptionsEE14processOptionsERKNS_7OptionsE"
 "_ZN11imagefusion12ParallelizerINS_11StarfmFusorENS_13StarfmOptionsEE7predictEiRKNS_10ConstImageES6_"
 "_ZN11imagefusion12ParallelizerINS_11StarfmFusorENS_13StarfmOptionsEED0Ev"
 "_ZN11imagefusion12ParallelizerINS_11StarfmFusorENS_13StarfmOptionsEED1Ev"
 "_ZN11imagefusion12StaarchFusor14processOptionsERKNS_7OptionsE"
 "_ZN11imagefusion12StaarchFusor15extractChannelsERKNSt7__cxx1112basic_stringIcSt11char_traitsIcESaIcEEEiNS_14StaarchOptions10SensorTypeE"
 "_ZN11imagefusion12StaarchFusor16generateDODImageERKNS_10ConstImageE"
 "_ZN11imagefusion12StaarchFusor34extractChannelsForPredictionImagesEi"
 "_ZN11imagefusion12StaarchFusor7predictEiRKNS_10ConstImageES3_"
 "_ZN11imagefusion12StaarchFusor9srcImagesESt10shared_ptrIKNS_14MultiResImagesEE"
 "_ZN11imagefusion12StaarchFusorD0Ev"
 "_ZN11imagefusion12StaarchFusorD1Ev"
 "_ZN11imagefusion13StarfmOptionsC1ERKS0_"
 "_ZN11imagefusion13StarfmOptionsD0Ev"
 "_ZN11imagefusion13StarfmOptionsD1Ev"
 "_ZN11imagefusion13StarfmOptionsaSERKS0_"
 "_ZN11imagefusion13runtime_errorC1ERKS0_"
 "_ZN11imagefusion13runtime_errorD0Ev"
 "_ZN11imagefusion13runtime_errorD1Ev"
 "_ZN11imagefusion14MultiResImagesD0Ev"
 "_ZN11imagefusion14MultiResImagesD1Ev"
 "_ZN11imagefusion14StaarchOptionsD0Ev"
 "_ZN11imagefusion14StaarchOptionsD1Ev"
 "_ZN11imagefusion14find_chan_implILh1EJEE14find_type_implIvLNS_4TypeE255EJEE3runINS_19staarch_impl_detail16AveragingFunctorEEEvOT_RKhRKS3_"
 "_ZN11imagefusion15not_found_errorC1ERKS0_"
 "_ZN11imagefusion15not_found_errorD0Ev"
 "_ZN11imagefusion15not_found_errorD1Ev"
 "_ZN11imagefusion16image_type_errorC1ERKS0_"
 "_ZN11imagefusion16image_type_errorD0Ev"
 "_ZN11imagefusion16image_type_errorD1Ev"
 "_ZN11imagefusion18MultiResCollectionINS_5ImageEED0Ev"
 "_ZN11imagefusion18MultiResCollectionINS_5ImageEED1Ev"
 "_ZN11imagefusion19ParallelizerOptionsINS_13StarfmOptionsEED0Ev"
 "_ZN11imagefusion19ParallelizerOptionsINS_13StarfmOptionsEED1Ev"
 "_ZN11imagefusion19staarch_impl_detail11standardizeENS_5ImageERKNS_10ConstImageE"
 "_ZN11imagefusion19staarch_impl_detail16AveragingFunctorclILNS_4TypeE5EEEvv"
 "_ZN11imagefusion19staarch_impl_detail16AveragingFunctorclILNS_4TypeE6EEEvv"
 "_ZN11imagefusion19staarch_impl_detail16diNeighborFilterERKNS_10ConstImageEb"
 "_ZN11imagefusion19staarch_impl_detail20exceedDIWithNeighborERKNS_10ConstImageES3_RKN5boost3icl19continuous_intervalIdSt4lessEEb"
 "_ZN11imagefusion19staarch_impl_detail20getUniqueLandClassesERKNS_10ConstImageE"
 "_ZN11imagefusion19staarch_impl_detail7clusterENS_5ImageERKNS_10ConstImageEj"
 "_ZN11imagefusion21not_implemented_errorD0Ev"
 "_ZN11imagefusion21not_implemented_errorD1Ev"
 "_ZN11imagefusion22invalid_argument_errorC1ERKS0_"
 "_ZN11imagefusion22invalid_argument_errorD0Ev"
 "_ZN11imagefusion22invalid_argument_errorD1Ev"
 "_ZN11imagefusion5Image10sharedCopyERKN2cv5Rect_IiEE"
 "_ZN11imagefusion5ImageC1EN2cv3MatE"
 "_ZN11imagefusion5ImageC1EOS0_"
 "_ZN11imagefusion5ImageC1ERKS0_"
 "_ZN11imagefusion5ImageD0Ev"
 "_ZN11imagefusion5ImageD1Ev"
 "_ZN11imagefusion9DataFusor11outputImageEv"
 "_ZN11imagefusion9DataFusor9srcImagesESt10shared_ptrIKNS_14MultiResImagesEE"
 "_ZN11imagefusion9DataFusorD2Ev"
 "_ZN11imagefusion9to_stringB5cxx11ENS_4TypeE"
 "_ZN11imagefusion9to_stringB5cxx11ERKN2cv5Size_IiEE"
 "_ZN2cv3MatC1EOS0_"
 "_ZN2cv3MatC1ERKS0_"
 "_ZN2cv3MatD1Ev"
 "_ZN5boost10error_infoIN11imagefusion14tag_image_typeENS1_4TypeEED0Ev"
 "_ZN5boost10error_infoIN11imagefusion14tag_image_typeENS1_4TypeEED1Ev"
 "_ZN5boost10error_infoIN11imagefusion18tag_resolution_tagENSt7__cxx1112basic_stringIcSt11char_traitsIcESaIcEEEED0Ev"
 "_ZN5boost10error_infoIN11imagefusion18tag_resolution_tagENSt7__cxx1112basic_stringIcSt11char_traitsIcESaIcEEEED1Ev"
 "_ZN5boost10error_infoIN11imagefusion8tag_dateEiED0Ev"
 "_ZN5boost10error_infoIN11imagefusion8tag_dateEiED1Ev"
 "_ZN5boost10error_infoIN11imagefusion8tag_sizeEN2cv5Size_IiEEED0Ev"
 "_ZN5boost10error_infoIN11imagefusion8tag_sizeEN2cv5Size_IiEEED1Ev"
 "_ZN5boost16exception_detail10bad_alloc_D0Ev"
 "_ZN5boost16exception_detail10bad_alloc_D1Ev"
 "_ZN5boost16exception_detail10bad_alloc_D2Ev"
 "_ZN5boost16exception_detail10clone_implINS0_10bad_alloc_EED0Ev"
 "_ZN5boost16exception_detail10clone_implINS0_10bad_alloc_EED1Ev"
 "_ZN5boost16exception_detail10clone_implINS0_14bad_exception_EED0Ev"
 "_ZN5boost16exception_detail10clone_implINS0_14bad_exception_EED1Ev"
 "_ZN5boost16exception_detail11set_info_rvINS_10error_infoIN11imagefusion14tag_image_typeENS3_4TypeEEEE3setINS3_11logic_errorEEERKT_SC_OS6_"
 "_ZN5boost16exception_detail11set_info_rvINS_10error_infoIN11imagefusion14tag_image_typeENS3_4TypeEEEE3setINS3_16image_type_errorEEERKT_SC_OS6_"
 "_ZN5boost16exception_detail11set_info_rvINS_10error_infoIN11imagefusion18tag_resolution_tagENSt7__cxx1112basic_stringIcSt11char_traitsIcESaIcEEEEEE3setINS3_15not_found_errorEEERKT_SH_OSB_"
 "_ZN5boost16exception_detail11set_info_rvINS_10error_infoIN11imagefusion8tag_dateEiEEE3setINS3_15not_found_errorEEERKT_SB_OS5_"
 "_ZN5boost16exception_detail11set_info_rvINS_10error_infoIN11imagefusion8tag_sizeEN2cv5Size_IiEEEEE3setINS3_10size_errorEEERKT_SE_OS8_"
 "_ZN5boost16exception_detail14bad_exception_D0Ev"
 "_ZN5boost16exception_detail14bad_exception_D1Ev"
 "_ZN5boost16exception_detail14bad_exception_D2Ev"
 "_ZN5boost16exception_detail20copy_boost_exceptionEPNS_9exceptionEPKS1_"
 "_ZN5boost16exception_detail25error_info_container_impl3setERKNS_10shared_ptrINS0_15error_info_baseEEERKNS0_10type_info_E"
 "_ZN5boost16exception_detail27get_static_exception_objectINS0_10bad_alloc_EEENS_13exception_ptrEv"
 "_ZN5boost16exception_detail27get_static_exception_objectINS0_14bad_exception_EEENS_13exception_ptrEv"
 "_ZN5boost16exception_detail37exception_ptr_static_exception_objectINS0_10bad_alloc_EE1eE"
 "_ZN5boost16exception_detail37exception_ptr_static_exception_objectINS0_14bad_exception_EE1eE"
 "_ZN5boost6detail15sp_counted_base7destroyEv"
 "_ZN5boost6detail15sp_counted_base7releaseEv"
 "_ZN5boost6detail17sp_counted_impl_pINS_10error_infoIN11imagefusion14tag_image_typeENS3_4TypeEEEE11get_deleterERKSt9type_info"
 "_ZN5boost6detail17sp_counted_impl_pINS_10error_infoIN11imagefusion14tag_image_typeENS3_4TypeEEEE17get_local_deleterERKSt9type_info"
 "_ZN5boost6detail17sp_counted_impl_pINS_10error_infoIN11imagefusion14tag_image_typeENS3_4TypeEEEE19get_untyped_deleterEv"
 "_ZN5boost6detail17sp_counted_impl_pINS_10error_infoIN11imagefusion14tag_image_typeENS3_4TypeEEEE7disposeEv"
 "_ZN5boost6detail17sp_counted_impl_pINS_10error_infoIN11imagefusion14tag_image_typeENS3_4TypeEEEED0Ev"
 "_ZN5boost6detail17sp_counted_impl_pINS_10error_infoIN11imagefusion14tag_image_typeENS3_4TypeEEEED1Ev"
 "_ZN5boost6detail17sp_counted_impl_pINS_10error_infoIN11imagefusion18tag_resolution_tagENSt7__cxx1112basic_stringIcSt11char_traitsIcESaIcEEEEEE11get_deleterERKSt9type_info"
 "_ZN5boost6detail17sp_counted_impl_pINS_10error_infoIN11imagefusion18tag_resolution_tagENSt7__cxx1112basic_stringIcSt11char_traitsIcESaIcEEEEEE17get_local_deleterERKSt9type_info"
 "_ZN5boost6detail17sp_counted_impl_pINS_10error_infoIN11imagefusion18tag_resolution_tagENSt7__cxx1112basic_stringIcSt11char_traitsIcESaIcEEEEEE19get_untyped_deleterEv"
 "_ZN5boost6detail17sp_counted_impl_pINS_10error_infoIN11imagefusion18tag_resolution_tagENSt7__cxx1112basic_stringIcSt11char_traitsIcESaIcEEEEEE7disposeEv"
 "_ZN5boost6detail17sp_counted_impl_pINS_10error_infoIN11imagefusion18tag_resolution_tagENSt7__cxx1112basic_stringIcSt11char_traitsIcESaIcEEEEEED0Ev"
 "_ZN5boost6detail17sp_counted_impl_pINS_10error_infoIN11imagefusion18tag_resolution_tagENSt7__cxx1112basic_stringIcSt11char_traitsIcESaIcEEEEEED1Ev"
 "_ZN5boost6detail17sp_counted_impl_pINS_10error_infoIN11imagefusion8tag_dateEiEEE11get_deleterERKSt9type_info"
 "_ZN5boost6detail17sp_counted_impl_pINS_10error_infoIN11imagefusion8tag_dateEiEEE17get_local_deleterERKSt9type_info"
 "_ZN5boost6detail17sp_counted_impl_pINS_10error_infoIN11imagefusion8tag_dateEiEEE19get_untyped_deleterEv"
 "_ZN5boost6detail17sp_counted_impl_pINS_10error_infoIN11imagefusion8tag_dateEiEEE7disposeEv"
 "_ZN5boost6detail17sp_counted_impl_pINS_10error_infoIN11imagefusion8tag_dateEiEEED0Ev"
 "_ZN5boost6detail17sp_counted_impl_pINS_10error_infoIN11imagefusion8tag_dateEiEEED1Ev"
 "_ZN5boost6detail17sp_counted_impl_pINS_10error_infoIN11imagefusion8tag_sizeEN2cv5Size_IiEEEEE11get_deleterERKSt9type_info"
 "_ZN5boost6detail17sp_counted_impl_pINS_10error_infoIN11imagefusion8tag_sizeEN2cv5Size_IiEEEEE17get_local_deleterERKSt9type_info"
 "_ZN5boost6detail17sp_counted_impl_pINS_10error_infoIN11imagefusion8tag_sizeEN2cv5Size_IiEEEEE19get_untyped_deleterEv"
 "_ZN5boost6detail17sp_counted_impl_pINS_10error_infoIN11imagefusion8tag_sizeEN2cv5Size_IiEEEEE7disposeEv"
 "_ZN5boost6detail17sp_counted_impl_pINS_10error_infoIN11imagefusion8tag_sizeEN2cv5Size_IiEEEEED0Ev"
 "_ZN5boost6detail17sp_counted_impl_pINS_10error_infoIN11imagefusion8tag_sizeEN2cv5Size_IiEEEEED1Ev"
 "_ZN5boost6detail17sp_counted_impl_pINS_16exception_detail10clone_implINS2_10bad_alloc_EEEE11get_deleterERKSt9type_info"
 "_ZN5boost6detail17sp_counted_impl_pINS_16exception_detail10clone_implINS2_10bad_alloc_EEEE17get_local_deleterERKSt9type_info"
 "_ZN5boost6detail17sp_counted_impl_pINS_16exception_detail10clone_implINS2_10bad_alloc_EEEE19get_untyped_deleterEv"
 "_ZN5boost6detail17sp_counted_impl_pINS_16exception_detail10clone_implINS2_10bad_alloc_EEEE7disposeEv"
 "_ZN5boost6detail17sp_counted_impl_pINS_16exception_detail10clone_implINS2_10bad_alloc_EEEED0Ev"
 "_ZN5boost6detail17sp_counted_impl_pINS_16exception_detail10clone_implINS2_10bad_alloc_EEEED1Ev"
 "_ZN5boost6detail17sp_counted_impl_pINS_16exception_detail10clone_implINS2_14bad_exception_EEEE11get_deleterERKSt9type_info"
 "_ZN5boost6detail17sp_counted_impl_pINS_16exception_detail10clone_implINS2_14bad_exception_EEEE17get_local_deleterERKSt9type_info"
 "_ZN5boost6detail17sp_counted_impl_pINS_16exception_detail10clone_implINS2_14bad_exception_EEEE19get_untyped_deleterEv"
 "_ZN5boost6detail17sp_counted_impl_pINS_16exception_detail10clone_implINS2_14bad_exception_EEEE7disposeEv"
 "_ZN5boost6detail17sp_counted_impl_pINS_16exception_detail10clone_implINS2_14bad_exception_EEEED0Ev"
 "_ZN5boost6detail17sp_counted_impl_pINS_16exception_detail10clone_implINS2_14bad_exception_EEEED1Ev"
 "_ZN5boost6detail17sp_counted_impl_pINS_16exception_detail15error_info_baseEE11get_deleterERKSt9type_info"
 "_ZN5boost6detail17sp_counted_impl_pINS_16exception_detail15error_info_baseEE17get_local_deleterERKSt9type_info"
 "_ZN5boost6detail17sp_counted_impl_pINS_16exception_detail15error_info_baseEE19get_untyped_deleterEv"
 "_ZN5boost6detail17sp_counted_impl_pINS_16exception_detail15error_info_baseEE7disposeEv"
 "_ZN5boost6detail17sp_counted_impl_pINS_16exception_detail15error_info_baseEED0Ev"
 "_ZN5boost6detail17sp_counted_impl_pINS_16exception_detail15error_info_baseEED1Ev"
 "_ZN5boost9to_stringIN11imagefusion18tag_resolution_tagENSt7__cxx1112basic_stringIcSt11char_traitsIcESaIcEEEEES8_RKNS_10error_infoIT_T0_EE"
 "_ZN5boost9to_stringIN11imagefusion8tag_dateEiEENSt7__cxx1112basic_stringIcSt11char_traitsIcESaIcEEERKNS_10error_infoIT_T0_EE"
 "_ZN5boost9to_stringIN11imagefusion8tag_sizeEN2cv5Size_IiEEEENSt7__cxx1112basic_stringIcSt11char_traitsIcESaIcEEERKNS_10error_infoIT_T0_EE"
 "_ZN9__gnu_cxx12__to_xstringINSt7__cxx1112basic_stringIcSt11char_traitsIcESaIcEEEcEET_PFiPT0_yPKS8_PcEySB_z"
 "_ZNK11imagefusion10ConstImage8doubleAtEjjj"
 "_ZNK11imagefusion11StarfmFusor10getOptionsEv"
 "_ZNK11imagefusion12ParallelizerINS_11StarfmFusorENS_13StarfmOptionsEE10getOptionsEv"
 "_ZNK11imagefusion12StaarchFusor10getOptionsEv"
 "_ZNK11imagefusion12StaarchFusor11getLowDatesEv"
 "_ZNK11imagefusion12StaarchFusor11getLowStdDIERKN2cv5Rect_IiEERKNS_10ConstImageE"
 "_ZNK11imagefusion12StaarchFusor12getLowThreshERKSt6vectorINS_5ImageESaIS2_EES6_"
 "_ZNK11imagefusion12StaarchFusor16checkInputImagesERKNS_10ConstImageE"
 "_ZNK11imagefusion12StaarchFusor18generateChangeMaskERKN2cv5Rect_IiEERKNS_10ConstImageE"
 "_ZNK11imagefusion12StaarchFusor29checkInputImagesForPredictionERKNS_10ConstImageES3_"
 "_ZNK11imagefusion12StaarchFusor9averageDIESt6vectorINS_5ImageESaIS2_EERKN2cv5Rect_IiEE"
 "_ZNK11imagefusion13StarfmOptions17getSinglePairDateEv"
 "_ZNK11imagefusion14StaarchOptions16getIntervalDatesEv"
 "_ZNK11imagefusion18MultiResCollectionINS_5ImageEE3getERKNSt7__cxx1112basic_stringIcSt11char_traitsIcESaIcEEEi"
 "_ZNK11imagefusion18MultiResCollectionINS_5ImageEE3hasERKNSt7__cxx1112basic_stringIcSt11char_traitsIcESaIcEEEi"
 "_ZNK11imagefusion18MultiResCollectionINS_5ImageEE6getAnyEv"
 "_ZNK11imagefusion9DataFusor11outputImageEv"
 "_ZNK11imagefusion9DataFusor9srcImagesEv"
 "_ZNK2cv3Mat5emptyEv"
 "_ZNK5boost10error_infoIN11imagefusion14tag_image_typeENS1_4TypeEE17name_value_stringB5cxx11Ev"
 "_ZNK5boost10error_infoIN11imagefusion14tag_image_typeENS1_4TypeEE5cloneEv"
 "_ZNK5boost10error_infoIN11imagefusion18tag_resolution_tagENSt7__cxx1112basic_stringIcSt11char_traitsIcESaIcEEEE17name_value_stringEv"
 "_ZNK5boost10error_infoIN11imagefusion18tag_resolution_tagENSt7__cxx1112basic_stringIcSt11char_traitsIcESaIcEEEE5cloneEv"
 "_ZNK5boost10error_infoIN11imagefusion8tag_dateEiE17name_value_stringB5cxx11Ev"
 "_ZNK5boost10error_infoIN11imagefusion8tag_dateEiE5cloneEv"
 "_ZNK5boost10error_infoIN11imagefusion8tag_sizeEN2cv5Size_IiEEE17name_value_stringB5cxx11Ev"
 "_ZNK5boost10error_infoIN11imagefusion8tag_sizeEN2cv5Size_IiEEE5cloneEv"
 "_ZNK5boost16exception_detail10clone_implINS0_10bad_alloc_EE5cloneEv"
 "_ZNK5boost16exception_detail10clone_implINS0_10bad_alloc_EE7rethrowEv"
 "_ZNK5boost16exception_detail10clone_implINS0_14bad_exception_EE5cloneEv"
 "_ZNK5boost16exception_detail10clone_implINS0_14bad_exception_EE7rethrowEv"
 "_ZNK5boost16exception_detail25error_info_container_impl22diagnostic_informationEPKc"
 "_ZNK5boost16exception_detail25error_info_container_impl3getERKNS0_10type_info_E"
 "_ZNK5boost16exception_detail25error_info_container_impl5cloneEv"
 "_ZNK5boost16exception_detail25error_info_container_impl7add_refEv"
 "_ZNK5boost16exception_detail25error_info_container_impl7releaseEv"
 "_ZNKSt5ctypeIcE8do_widenEc"
 "_ZNKSt7__cxx1112basic_stringIcSt11char_traitsIcESaIcEE7compareERKS4_"
 "_ZNKSt8_Rb_treeINSt7__cxx1112basic_stringIcSt11char_traitsIcESaIcEEESt4pairIKS5_St3mapIiN11imagefusion5ImageESt4lessIiESaIS6_IKiSA_EEEESt10_Select1stISH_ESB_IS5_ESaISH_EE4findERS7_"
 "_ZNSt16_Sp_counted_baseILN9__gnu_cxx12_Lock_policyE2EE10_M_releaseEv"
 "_ZNSt22__uninitialized_fill_nILb0EE15__uninit_fill_nIPN11imagefusion11StarfmFusorEyS3_EET_S5_T0_RKT1_"
 "_ZNSt6vectorIN11imagefusion10ConstImageESaIS1_EE12emplace_backIJNS0_5ImageEEEERS1_DpOT_"
 "_ZNSt6vectorIN11imagefusion10ConstImageESaIS1_EE17_M_realloc_insertIJNS0_5ImageEEEEvN9__gnu_cxx17__normal_iteratorIPS1_S3_EEDpOT_"
 "_ZNSt6vectorIN11imagefusion10ConstImageESaIS1_EED1Ev"
 "_ZNSt6vectorIN11imagefusion11StarfmFusorESaIS1_EE14_M_fill_insertEN9__gnu_cxx17__normal_iteratorIPS1_S3_EEyRKS1_"
 "_ZNSt6vectorIN11imagefusion5ImageESaIS1_EE12emplace_backIJS1_EEERS1_DpOT_"
 "_ZNSt6vectorIN11imagefusion5ImageESaIS1_EE17_M_realloc_insertIJS1_EEEvN9__gnu_cxx17__normal_iteratorIPS1_S3_EEDpOT_"
 "_ZNSt6vectorIN11imagefusion5ImageESaIS1_EE7reserveEy"
 "_ZNSt6vectorIN11imagefusion5ImageESaIS1_EED1Ev"
 "_ZNSt6vectorINSt7__cxx1112basic_stringIcSt11char_traitsIcESaIcEEESaIS5_EEaSERKS7_"
 "_ZNSt6vectorIiSaIiEE17_M_default_appendEy"
 "_ZNSt6vectorIiSaIiEE17_M_realloc_insertIJRKiEEEvN9__gnu_cxx17__normal_iteratorIPiS1_EEDpOT_"
 "_ZNSt6vectorIjSaIjEE17_M_realloc_insertIJRKjEEEvN9__gnu_cxx17__normal_iteratorIPjS1_EEDpOT_"
 "_ZNSt6vectorIjSaIjEEC1ERKS1_"
 "_ZNSt6vectorIjSaIjEEaSERKS1_"
 "_ZNSt7__cxx1112basic_stringIcSt11char_traitsIcESaIcEE10_M_replaceEyyPKcy"
 "_ZNSt7__cxx1112basic_stringIcSt11char_traitsIcESaIcEE12_M_constructIPKcEEvT_S8_St20forward_iterator_tag"
 "_ZNSt7__cxx1112basic_stringIcSt11char_traitsIcESaIcEE12_M_constructIPcEEvT_S7_St20forward_iterator_tag"
 "_ZNSt7__cxx1112basic_stringIcSt11char_traitsIcESaIcEE14_M_replace_auxEyyyc"
 "_ZNSt7__cxx1112basic_stringIcSt11char_traitsIcESaIcEE9_M_appendEPKcy"
 "_ZNSt7__cxx1112basic_stringIcSt11char_traitsIcESaIcEE9_M_assignERKS4_"
 "_ZNSt7__cxx1112basic_stringIcSt11char_traitsIcESaIcEE9_M_mutateEyyPKcy"
 "_ZNSt8_Rb_treeIN5boost16exception_detail10type_info_ESt4pairIKS2_NS0_10shared_ptrINS1_15error_info_baseEEEESt10_Select1stIS8_ESt4lessIS2_ESaIS8_EE14_M_insert_nodeEPSt18_Rb_tree_node_baseSG_PSt13_Rb_tree_nodeIS8_E"
 "_ZNSt8_Rb_treeIN5boost16exception_detail10type_info_ESt4pairIKS2_NS0_10shared_ptrINS1_15error_info_baseEEEESt10_Select1stIS8_ESt4lessIS2_ESaIS8_EE24_M_get_insert_unique_posERS4_"
 "_ZNSt8_Rb_treeIN5boost16exception_detail10type_info_ESt4pairIKS2_NS0_10shared_ptrINS1_15error_info_baseEEEESt10_Select1stIS8_ESt4lessIS2_ESaIS8_EE8_M_eraseEPSt13_Rb_tree_nodeIS8_E"
 "_ZNSt8_Rb_treeINSt7__cxx1112basic_stringIcSt11char_traitsIcESaIcEEESt4pairIKS5_St3mapIiN11imagefusion5ImageESt4lessIiESaIS6_IKiSA_EEEESt10_Select1stISH_ESB_IS5_ESaISH_EE22_M_emplace_hint_uniqueIJRKSt21piecewise_construct_tSt5tupleIJRS7_EESR_IJEEEEESt17_Rb_tree_iteratorISH_ESt23_Rb_tree_const_iteratorISH_EDpOT_"
 "_ZNSt8_Rb_treeINSt7__cxx1112basic_stringIcSt11char_traitsIcESaIcEEESt4pairIKS5_St3mapIiN11imagefusion5ImageESt4lessIiESaIS6_IKiSA_EEEESt10_Select1stISH_ESB_IS5_ESaISH_EE24_M_get_insert_unique_posERS7_"
 "_ZNSt8_Rb_treeINSt7__cxx1112basic_stringIcSt11char_traitsIcESaIcEEESt4pairIKS5_St3mapIiN11imagefusion5ImageESt4lessIiESaIS6_IKiSA_EEEESt10_Select1stISH_ESB_IS5_ESaISH_EE7_M_copyINSM_20_Reuse_or_alloc_nodeEEEPSt13_Rb_tree_nodeISH_EPKSQ_PSt18_Rb_tree_node_baseRT_"
 "_ZNSt8_Rb_treeINSt7__cxx1112basic_stringIcSt11char_traitsIcESaIcEEESt4pairIKS5_St3mapIiN11imagefusion5ImageESt4lessIiESaIS6_IKiSA_EEEESt10_Select1stISH_ESB_IS5_ESaISH_EE8_M_eraseEPSt13_Rb_tree_nodeISH_E"
 "_ZNSt8_Rb_treeINSt7__cxx1112basic_stringIcSt11char_traitsIcESaIcEEESt4pairIKS5_St3mapIiN11imagefusion5ImageESt4lessIiESaIS6_IKiSA_EEEESt10_Select1stISH_ESB_IS5_ESaISH_EEaSERKSM_"
 "_ZNSt8_Rb_treeINSt7__cxx1112basic_stringIcSt11char_traitsIcESaIcEEESt4pairIKS5_jESt10_Select1stIS8_ESt4lessIS5_ESaIS8_EE22_M_emplace_hint_uniqueIJRKSt21piecewise_construct_tSt5tupleIJRS7_EESJ_IJEEEEESt17_Rb_tree_iteratorIS8_ESt23_Rb_tree_const_iteratorIS8_EDpOT_"
 "_ZNSt8_Rb_treeINSt7__cxx1112basic_stringIcSt11char_traitsIcESaIcEEESt4pairIKS5_jESt10_Select1stIS8_ESt4lessIS5_ESaIS8_EE24_M_get_insert_unique_posERS7_"
 "_ZNSt8_Rb_treeINSt7__cxx1112basic_stringIcSt11char_traitsIcESaIcEEESt4pairIKS5_jESt10_Select1stIS8_ESt4lessIS5_ESaIS8_EE8_M_eraseEPSt13_Rb_tree_nodeIS8_E"
 "_ZNSt8_Rb_treeIiSt4pairIKiN11imagefusion5ImageEESt10_Select1stIS4_ESt4lessIiESaIS4_EE22_M_emplace_hint_uniqueIJRKSt21piecewise_construct_tSt5tupleIJRS1_EESF_IJEEEEESt17_Rb_tree_iteratorIS4_ESt23_Rb_tree_const_iteratorIS4_EDpOT_"
 "_ZNSt8_Rb_treeIiSt4pairIKiN11imagefusion5ImageEESt10_Select1stIS4_ESt4lessIiESaIS4_EE24_M_get_insert_unique_posERS1_"
 "_ZNSt8_Rb_treeIiSt4pairIKiN11imagefusion5ImageEESt10_Select1stIS4_ESt4lessIiESaIS4_EE7_M_copyINSA_11_Alloc_nodeEEEPSt13_Rb_tree_nodeIS4_EPKSE_PSt18_Rb_tree_node_baseRT_"
 "_ZNSt8_Rb_treeIiSt4pairIKiN11imagefusion5ImageEESt10_Select1stIS4_ESt4lessIiESaIS4_EE8_M_eraseEPSt13_Rb_tree_nodeIS4_E"
 "_ZNSt8_Rb_treeIiiSt9_IdentityIiESt4lessIiESaIiEE8_M_eraseEPSt13_Rb_tree_nodeIiE"
 "_ZSt19piecewise_construct"
 "_ZStplIcSt11char_traitsIcESaIcEENSt7__cxx1112basic_stringIT_T0_T1_EEOS8_PKS5_"
 "_ZStplIcSt11char_traitsIcESaIcEENSt7__cxx1112basic_stringIT_T0_T1_EEOS8_RKS8_"
 "_ZStplIcSt11char_traitsIcESaIcEENSt7__cxx1112basic_stringIT_T0_T1_EEOS8_S9_"
 "_ZStplIcSt11char_traitsIcESaIcEENSt7__cxx1112basic_stringIT_T0_T1_EEPKS5_OS8_"
 "_ZStplIcSt11char_traitsIcESaIcEENSt7__cxx1112basic_stringIT_T0_T1_EEPKS5_RKS8_"
 "_ZTCN11imagefusion10size_errorE0_NS_13runtime_errorE"
 "_ZTCN11imagefusion15not_found_errorE0_NS_13runtime_errorE"
 "_ZTCN11imagefusion16image_type_errorE0_NS_13runtime_errorE"
 "_ZTCN11imagefusion21not_implemented_errorE0_NS_13runtime_errorE"
 "_ZTCN11imagefusion22invalid_argument_errorE0_NS_13runtime_errorE"
 "_ZTIN11imagefusion10ConstImageE"
 "_ZTIN11imagefusion10size_errorE"
 "_ZTIN11imagefusion11logic_errorE"
 "_ZTIN11imagefusion12ParallelizerINS_11StarfmFusorENS_13StarfmOptionsEEE"
 "_ZTIN11imagefusion12StaarchFusorE"
 "_ZTIN11imagefusion13StarfmOptionsE"
 "_ZTIN11imagefusion13runtime_errorE"
 "_ZTIN11imagefusion14MultiResImagesE"
 "_ZTIN11imagefusion14StaarchOptionsE"
 "_ZTIN11imagefusion15not_found_errorE"
 "_ZTIN11imagefusion16image_type_errorE"
 "_ZTIN11imagefusion18MultiResCollectionINS_5ImageEEE"
 "_ZTIN11imagefusion19ParallelizerOptionsINS_13StarfmOptionsEEE"
 "_ZTIN11imagefusion21not_implemented_errorE"
 "_ZTIN11imagefusion22invalid_argument_errorE"
 "_ZTIN11imagefusion5ImageE"
 "_ZTIN11imagefusion7OptionsE"
 "_ZTIN11imagefusion9DataFusorE"
 "_ZTIN5boost10error_infoIN11imagefusion14tag_image_typeENS1_4TypeEEE"
 "_ZTIN5boost10error_infoIN11imagefusion18tag_resolution_tagENSt7__cxx1112basic_stringIcSt11char_traitsIcESaIcEEEEE"
 "_ZTIN5boost10error_infoIN11imagefusion8tag_dateEiEE"
 "_ZTIN5boost10error_infoIN11imagefusion8tag_sizeEN2cv5Size_IiEEEE"
 "_ZTIN5boost16exception_detail10bad_alloc_E"
 "_ZTIN5boost16exception_detail10clone_baseE"
 "_ZTIN5boost16exception_detail10clone_implINS0_10bad_alloc_EEE"
 "_ZTIN5boost16exception_detail10clone_implINS0_14bad_exception_EEE"
 "_ZTIN5boost16exception_detail14bad_exception_E"
 "_ZTIN5boost16exception_detail15error_info_baseE"
 "_ZTIN5boost16exception_detail20error_info_containerE"
 "_ZTIN5boost16exception_detail25error_info_container_implE"
 "_ZTIN5boost6detail15sp_counted_baseE"
 "_ZTIN5boost6detail17sp_counted_impl_pINS_10error_infoIN11imagefusion14tag_image_typeENS3_4TypeEEEEE"
 "_ZTIN5boost6detail17sp_counted_impl_pINS_10error_infoIN11imagefusion18tag_resolution_tagENSt7__cxx1112basic_stringIcSt11char_traitsIcESaIcEEEEEEE"
 "_ZTIN5boost6detail17sp_counted_impl_pINS_10error_infoIN11imagefusion8tag_dateEiEEEE"
 "_ZTIN5boost6detail17sp_counted_impl_pINS_10error_infoIN11imagefusion8tag_sizeEN2cv5Size_IiEEEEEE"
 "_ZTIN5boost6detail17sp_counted_impl_pINS_16exception_detail10clone_implINS2_10bad_alloc_EEEEE"
 "_ZTIN5boost6detail17sp_counted_impl_pINS_16exception_detail10clone_implINS2_14bad_exception_EEEEE"
 "_ZTIN5boost6detail17sp_counted_impl_pINS_16exception_detail15error_info_baseEEE"
 "_ZTIN5boost9exceptionE"
 "_ZTISt11logic_error"
 "_ZTISt13bad_exception"
 "_ZTISt13runtime_error"
 "_ZTISt23enable_shared_from_thisIN11imagefusion18MultiResCollectionINS0_5ImageEEEE"
 "_ZTISt9bad_alloc"
 "_ZTISt9exception"
 "_ZTSN11imagefusion10ConstImageE"
 "_ZTSN11imagefusion10size_errorE"
 "_ZTSN11imagefusion11logic_errorE"
 "_ZTSN11imagefusion12ParallelizerINS_11StarfmFusorENS_13StarfmOptionsEEE"
 "_ZTSN11imagefusion12StaarchFusorE"
 "_ZTSN11imagefusion13StarfmOptionsE"
 "_ZTSN11imagefusion13runtime_errorE"
 "_ZTSN11imagefusion14MultiResImagesE"
 "_ZTSN11imagefusion14StaarchOptionsE"
 "_ZTSN11imagefusion15not_found_errorE"
 "_ZTSN11imagefusion16image_type_errorE"
 "_ZTSN11imagefusion18MultiResCollectionINS_5ImageEEE"
 "_ZTSN11imagefusion19ParallelizerOptionsINS_13StarfmOptionsEEE"
 "_ZTSN11imagefusion21not_implemented_errorE"
 "_ZTSN11imagefusion22invalid_argument_errorE"
 "_ZTSN11imagefusion5ImageE"
 "_ZTSN11imagefusion7OptionsE"
 "_ZTSN11imagefusion9DataFusorE"
 "_ZTSN5boost10error_infoIN11imagefusion14tag_image_typeENS1_4TypeEEE"
 "_ZTSN5boost10error_infoIN11imagefusion18tag_resolution_tagENSt7__cxx1112basic_stringIcSt11char_traitsIcESaIcEEEEE"
 "_ZTSN5boost10error_infoIN11imagefusion8tag_dateEiEE"
 "_ZTSN5boost10error_infoIN11imagefusion8tag_sizeEN2cv5Size_IiEEEE"
 "_ZTSN5boost16exception_detail10bad_alloc_E"
 "_ZTSN5boost16exception_detail10clone_baseE"
 "_ZTSN5boost16exception_detail10clone_implINS0_10bad_alloc_EEE"
 "_ZTSN5boost16exception_detail10clone_implINS0_14bad_exception_EEE"
 "_ZTSN5boost16exception_detail14bad_exception_E"
 "_ZTSN5boost16exception_detail15error_info_baseE"
 "_ZTSN5boost16exception_detail20error_info_containerE"
 "_ZTSN5boost16exception_detail25error_info_container_implE"
 "_ZTSN5boost6detail15sp_counted_baseE"
 "_ZTSN5boost6detail17sp_counted_impl_pINS_10error_infoIN11imagefusion14tag_image_typeENS3_4TypeEEEEE"
 "_ZTSN5boost6detail17sp_counted_impl_pINS_10error_infoIN11imagefusion18tag_resolution_tagENSt7__cxx1112basic_stringIcSt11char_traitsIcESaIcEEEEEEE"
 "_ZTSN5boost6detail17sp_counted_impl_pINS_10error_infoIN11imagefusion8tag_dateEiEEEE"
 "_ZTSN5boost6detail17sp_counted_impl_pINS_10error_infoIN11imagefusion8tag_sizeEN2cv5Size_IiEEEEEE"
 "_ZTSN5boost6detail17sp_counted_impl_pINS_16exception_detail10clone_implINS2_10bad_alloc_EEEEE"
 "_ZTSN5boost6detail17sp_counted_impl_pINS_16exception_detail10clone_implINS2_14bad_exception_EEEEE"
 "_ZTSN5boost6detail17sp_counted_impl_pINS_16exception_detail15error_info_baseEEE"
 "_ZTSN5boost9exceptionE"
 "_ZTSPN11imagefusion14tag_image_typeE"
 "_ZTSPN11imagefusion18tag_resolution_tagE"
 "_ZTSPN11imagefusion8tag_dateE"
 "_ZTSPN11imagefusion8tag_sizeE"
 "_ZTSSt11logic_error"
 "_ZTSSt13bad_exception"
 "_ZTSSt13runtime_error"
 "_ZTSSt23enable_shared_from_thisIN11imagefusion18MultiResCollectionINS0_5ImageEEEE"
 "_ZTSSt9bad_alloc"
 "_ZTSSt9exception"
 "_ZTTN11imagefusion10size_errorE"
 "_ZTTN11imagefusion11logic_errorE"
 "_ZTTN11imagefusion13runtime_errorE"
 "_ZTTN11imagefusion15not_found_errorE"
 "_ZTTN11imagefusion16image_type_errorE"
 "_ZTTN11imagefusion21not_implemented_errorE"
 "_ZTTN11imagefusion22invalid_argument_errorE"
 "_ZTTN5boost16exception_detail10clone_implINS0_10bad_alloc_EEE"
 "_ZTTN5boost16exception_detail10clone_implINS0_14bad_exception_EEE"
 "_ZTVN11imagefusion10ConstImageE"
 "_ZTVN11imagefusion10size_errorE"
 "_ZTVN11imagefusion11logic_errorE"
 "_ZTVN11imagefusion12ParallelizerINS_11StarfmFusorENS_13StarfmOptionsEEE"
 "_ZTVN11imagefusion12StaarchFusorE"
 "_ZTVN11imagefusion13StarfmOptionsE"
 "_ZTVN11imagefusion13runtime_errorE"
 "_ZTVN11imagefusion14MultiResImagesE"
 "_ZTVN11imagefusion14StaarchOptionsE"
 "_ZTVN11imagefusion15not_found_errorE"
 "_ZTVN11imagefusion16image_type_errorE"
 "_ZTVN11imagefusion18MultiResCollectionINS_5ImageEEE"
 "_ZTVN11imagefusion19ParallelizerOptionsINS_13StarfmOptionsEEE"
 "_ZTVN11imagefusion21not_implemented_errorE"
 "_ZTVN11imagefusion22invalid_argument_errorE"
 "_ZTVN11imagefusion5ImageE"
 "_ZTVN11imagefusion9DataFusorE"
 "_ZTVN5boost10error_infoIN11imagefusion14tag_image_typeENS1_4TypeEEE"
 "_ZTVN5boost10error_infoIN11imagefusion18tag_resolution_tagENSt7__cxx1112basic_stringIcSt11char_traitsIcESaIcEEEEE"
 "_ZTVN5boost10error_infoIN11imagefusion8tag_dateEiEE"
 "_ZTVN5boost10error_infoIN11imagefusion8tag_sizeEN2cv5Size_IiEEEE"
 "_ZTVN5boost16exception_detail10bad_alloc_E"
 "_ZTVN5boost16exception_detail10clone_baseE"
 "_ZTVN5boost16exception_detail10clone_implINS0_10bad_alloc_EEE"
 "_ZTVN5boost16exception_detail10clone_implINS0_14bad_exception_EEE"
 "_ZTVN5boost16exception_detail14bad_exception_E"
 "_ZTVN5boost16exception_detail25error_info_container_implE"
 "_ZTVN5boost6detail17sp_counted_impl_pINS_10error_infoIN11imagefusion14tag_image_typeENS3_4TypeEEEEE"
 "_ZTVN5boost6detail17sp_counted_impl_pINS_10error_infoIN11imagefusion18tag_resolution_tagENSt7__cxx1112basic_stringIcSt11char_traitsIcESaIcEEEEEEE"
 "_ZTVN5boost6detail17sp_counted_impl_pINS_10error_infoIN11imagefusion8tag_dateEiEEEE"
 "_ZTVN5boost6detail17sp_counted_impl_pINS_10error_infoIN11imagefusion8tag_sizeEN2cv5Size_IiEEEEEE"
 "_ZTVN5boost6detail17sp_counted_impl_pINS_16exception_detail10clone_implINS2_10bad_alloc_EEEEE"
 "_ZTVN5boost6detail17sp_counted_impl_pINS_16exception_detail10clone_implINS2_14bad_exception_EEEEE"
 "_ZTVN5boost6detail17sp_counted_impl_pINS_16exception_detail15error_info_baseEEE"
 "_ZTVN5boost9exceptionE"
 "_ZThn40_N5boost16exception_detail10bad_alloc_D0Ev"
 "_ZThn40_N5boost16exception_detail10bad_alloc_D1Ev"
 "_ZThn40_N5boost16exception_detail10clone_implINS0_10bad_alloc_EED0Ev"
 "_ZThn40_N5boost16exception_detail10clone_implINS0_10bad_alloc_EED1Ev"
 "_ZThn40_N5boost16exception_detail10clone_implINS0_14bad_exception_EED0Ev"
 "_ZThn40_N5boost16exception_detail10clone_implINS0_14bad_exception_EED1Ev"
 "_ZThn40_N5boost16exception_detail14bad_exception_D0Ev"
 "_ZThn40_N5boost16exception_detail14bad_exception_D1Ev"
 "_ZTv0_n24_N11imagefusion10size_errorD0Ev"
 "_ZTv0_n24_N11imagefusion10size_errorD1Ev"
 "_ZTv0_n24_N11imagefusion11logic_errorD0Ev"
 "_ZTv0_n24_N11imagefusion11logic_errorD1Ev"
 "_ZTv0_n24_N11imagefusion13runtime_errorD0Ev"
 "_ZTv0_n24_N11imagefusion13runtime_errorD1Ev"
 "_ZTv0_n24_N11imagefusion15not_found_errorD0Ev"
 "_ZTv0_n24_N11imagefusion15not_found_errorD1Ev"
 "_ZTv0_n24_N11imagefusion16image_type_errorD0Ev"
 "_ZTv0_n24_N11imagefusion16image_type_errorD1Ev"
 "_ZTv0_n24_N11imagefusion21not_implemented_errorD0Ev"
 "_ZTv0_n24_N11imagefusion21not_implemented_errorD1Ev"
 "_ZTv0_n24_N11imagefusion22invalid_argument_errorD0Ev"
 "_ZTv0_n24_N11imagefusion22invalid_argument_errorD1Ev"
 "_ZTv0_n24_NK5boost16exception_detail10clone_implINS0_10bad_alloc_EE5cloneEv"
 "_ZTv0_n24_NK5boost16exception_detail10clone_implINS0_14bad_exception_EE5cloneEv"
 "_ZTv0_n32_NK5boost16exception_detail10clone_implINS0_10bad_alloc_EE7rethrowEv"
 "_ZTv0_n32_NK5boost16exception_detail10clone_implINS0_14bad_exception_EE7rethrowEv"
 "_ZTv0_n40_N11imagefusion10size_errorD0Ev"
 "_ZTv0_n40_N11imagefusion10size_errorD1Ev"
 "_ZTv0_n40_N11imagefusion15not_found_errorD0Ev"
 "_ZTv0_n40_N11imagefusion15not_found_errorD1Ev"
 "_ZTv0_n40_N11imagefusion16image_type_errorD0Ev"
 "_ZTv0_n40_N11imagefusion16image_type_errorD1Ev"
 "_ZTv0_n40_N11imagefusion21not_implemented_errorD0Ev"
 "_ZTv0_n40_N11imagefusion21not_implemented_errorD1Ev"
 "_ZTv0_n40_N11imagefusion22invalid_argument_errorD0Ev"
 "_ZTv0_n40_N11imagefusion22invalid_argument_errorD1Ev"
 "_ZTv0_n40_N5boost16exception_detail10clone_implINS0_10bad_alloc_EED0Ev"
 "_ZTv0_n40_N5boost16exception_detail10clone_implINS0_10bad_alloc_EED1Ev"
 "_ZTv0_n40_N5boost16exception_detail10clone_implINS0_14bad_exception_EED0Ev"
 "_ZTv0_n40_N5boost16exception_detail10clone_implINS0_14bad_exception_EED1Ev"
 "_ZZN5boost16exception_detail27get_static_exception_objectINS0_10bad_alloc_EEENS_13exception_ptrEvE2ep"
 "_ZZN5boost16exception_detail27get_static_exception_objectINS0_14bad_exception_EEENS_13exception_ptrEvE2ep"
 "_ZGVN4arma5DatumIdE3nanE"
 "_ZGVN4arma5DatumIxE3nanE"
 "_ZGVN5boost16exception_detail37exception_ptr_static_exception_objectINS0_10bad_alloc_EE1eE"
 "_ZGVN5boost16exception_detail37exception_ptr_static_exception_objectINS0_14bad_exception_EE1eE"
 "_ZGVN7cvflann7anyimpl12SinglePolicyINS0_9empty_anyEE6policyE"
 "_ZGVN7cvflann7anyimpl12SinglePolicyINS_17flann_algorithm_tEE6policyE"
 "_ZGVN7cvflann7anyimpl12SinglePolicyINS_20flann_centers_init_tEE6policyE"
 "_ZGVN7cvflann7anyimpl12SinglePolicyINSt7__cxx1112basic_stringIcSt11char_traitsIcESaIcEEEE6policyE"
 "_ZGVN7cvflann7anyimpl12SinglePolicyIPKcE6policyE"
 "_ZGVN7cvflann7anyimpl12SinglePolicyIbE6policyE"
 "_ZGVN7cvflann7anyimpl12SinglePolicyIfE6policyE"
 "_ZGVN7cvflann7anyimpl12SinglePolicyIiE6policyE"
 "_ZGVN7cvflann7anyimpl12SinglePolicyIjE6policyE"
 "_ZGVZN5boost16exception_detail27get_static_exception_objectINS0_10bad_alloc_EEENS_13exception_ptrEvE2ep"
 "_ZGVZN5boost16exception_detail27get_static_exception_objectINS0_14bad_exception_EEENS_13exception_ptrEvE2ep"
 "_ZN11imagefusion10ConstImageC2EiiNS_4TypeE"
 "_ZN11imagefusion10ConstImageD0Ev"
 "_ZN11imagefusion10ConstImageD1Ev"
 "_ZN11imagefusion10size_errorC1ERKS0_"
 "_ZN11imagefusion10size_errorD0Ev"
 "_ZN11imagefusion10size_errorD1Ev"
 "_ZN11imagefusion10toFullTypeEi"
 "_ZN11imagefusion11getFullTypeENS_4TypeEh"
 "_ZN11imagefusion11logic_errorC1ERKS0_"
 "_ZN11imagefusion11logic_errorD0Ev"
 "_ZN11imagefusion11logic_errorD1Ev"
 "_ZN11imagefusion14find_chan_implILh1EJEE14find_type_implIN4arma3MatIdEELNS_4TypeE255EJEE3runINS_18spstfm_impl_detail15GetPatchFunctorEEES5_OT_RKhRKS6_"
 "_ZN11imagefusion16image_type_errorD0Ev"
 "_ZN11imagefusion16image_type_errorD1Ev"
 "_ZN11imagefusion18spstfm_impl_detail10doubleKSVDERKN4arma3MatIdEES5_S5_S5_RS3_NS_13SpstfmOptions18TrainingResolutionEbNS7_23DictionaryNormalizationE"
 "_ZN11imagefusion18spstfm_impl_detail11drawWeightsERKN4arma3MatIdEERKNSt7__cxx1112basic_stringIcSt11char_traitsIcESaIcEEE"
 "_ZN11imagefusion18spstfm_impl_detail12extractPatchERKNS_10ConstImageES3_iijjN2cv5Rect_IiEEj"
 "_ZN11imagefusion18spstfm_impl_detail12extractPatchERKNS_10ConstImageEiijjN2cv5Rect_IiEEj"
 "_ZN11imagefusion18spstfm_impl_detail12mostVarianceERKNS_10ConstImageES3_S3_jjN2cv5Rect_IiEEj"
 "_ZN11imagefusion18spstfm_impl_detail12mostVarianceERKNS_10ConstImageES3_jjN2cv5Rect_IiEEj"
 "_ZN11imagefusion18spstfm_impl_detail12testSetErrorERKN4arma3MatIdEES5_S5_RKNS_13SpstfmOptions11GPSROptionsEd"
 "_ZN11imagefusion18spstfm_impl_detail14drawDictionaryERKN4arma3MatIdEERKNSt7__cxx1112basic_stringIcSt11char_traitsIcESaIcEEE"
 "_ZN11imagefusion18spstfm_impl_detail14ksvd_iterationEjRKN4arma3MatIdEES5_RS3_S6_bNS_13SpstfmOptions23DictionaryNormalizationE"
 "_ZN11imagefusion18spstfm_impl_detail15GetPatchFunctorclILNS_4TypeE0EEEN4arma3MatIdEEv"
 "_ZN11imagefusion18spstfm_impl_detail15GetPatchFunctorclILNS_4TypeE1EEEN4arma3MatIdEEv"
 "_ZN11imagefusion18spstfm_impl_detail15GetPatchFunctorclILNS_4TypeE2EEEN4arma3MatIdEEv"
 "_ZN11imagefusion18spstfm_impl_detail15GetPatchFunctorclILNS_4TypeE3EEEN4arma3MatIdEEv"
 "_ZN11imagefusion18spstfm_impl_detail15GetPatchFunctorclILNS_4TypeE4EEEN4arma3MatIdEEv"
 "_ZN11imagefusion18spstfm_impl_detail15GetPatchFunctorclILNS_4TypeE5EEEN4arma3MatIdEEv"
 "_ZN11imagefusion18spstfm_impl_detail15GetPatchFunctorclILNS_4TypeE6EEEN4arma3MatIdEEv"
 "_ZN11imagefusion18spstfm_impl_detail16calcRequiredAreaEN2cv5Rect_IiEEjj"
 "_ZN11imagefusion18spstfm_impl_detail16objective_simpleERKN4arma3MatIdEES5_S5_d"
 "_ZN11imagefusion18spstfm_impl_detail17duplicatesPatchesERKNS_10ConstImageES3_jjN2cv5Rect_IiEEj"
 "_ZN11imagefusion18spstfm_impl_detail17initSingleSamplesIN4arma7subviewIdEEEEvRKNS_10ConstImageERT_S7_dRKSt6vectorIySaIyEEjjN2cv5Rect_IiEEj"
 "_ZN11imagefusion18spstfm_impl_detail18objective_improvedERKN4arma3MatIdEES5_S5_RKSt6vectorIdSaIdEE"
 "_ZN11imagefusion18spstfm_impl_detail18uniqueRandomVectorEj"
 "_ZN11imagefusion18spstfm_impl_detail19doubleKSVDIterationEjRKN4arma3MatIdEES5_RS3_S5_S5_S6_S6_NS_13SpstfmOptions18TrainingResolutionEbNS7_23DictionaryNormalizationE"
 "_ZN11imagefusion18spstfm_impl_detail20mostlyInvalidPatchesERKNS_10ConstImageEdjjN2cv5Rect_IiEEj"
 "_ZN11imagefusion18spstfm_impl_detail22getOrderedPatchIndicesENS_13SpstfmOptions16SamplingStrategyERKNS_10ConstImageES5_S5_djjN2cv5Rect_IiEEj"
 "_ZN11imagefusion18spstfm_impl_detail4gpsrERKN4arma3MatIdEES5_RKNS_13SpstfmOptions11GPSROptionsEPd"
 "_ZN11imagefusion18spstfm_impl_detail4ksvdERKN4arma3MatIdEES5_RS3_bNS_13SpstfmOptions23DictionaryNormalizationE"
 "_ZN11imagefusion18spstfm_impl_detail7samplesERKNS_10ConstImageES3_S3_St6vectorIySaIyEEddddddjjN2cv5Rect_IiEEj"
 "_ZN11imagefusion5ImageD0Ev"
 "_ZN11imagefusion5ImageD1Ev"
 "_ZN11imagefusion7GeoInfoC1Ev"
 "_ZN11imagefusion7GeoInfoD1Ev"
 "_ZN11imagefusion8toCVTypeENS_4TypeE"
 "_ZN11imagefusion9DataFusor11outputImageEv"
 "_ZN11imagefusion9DataFusor9srcImagesESt10shared_ptrIKNS_14MultiResImagesEE"
 "_ZN11imagefusion9to_stringB5cxx11ENS_4TypeE"
 "_ZN11imagefusion9to_stringB5cxx11ERKN2cv5Size_IiEE"
 "_ZN2cv3MatD1Ev"
 "_ZN4arma10eglue_coreINS_10eglue_plusEE5applyINS_3MatIdEENS_3eOpINS_11subview_colIdEENS_16eop_scalar_timesEEESA_EEvRT_RKNS_5eGlueIT0_T1_S1_EE"
 "_ZN4arma10eglue_coreINS_11eglue_minusEE5applyINS_3MatIdEENS_13subview_elem2IdNS4_IyEES7_EENS_4GlueIS8_S8_NS_10glue_timesEEEEEvRT_RKNS_5eGlueIT0_T1_S1_EE"
 "_ZN4arma10eglue_coreINS_11eglue_minusEE5applyINS_3MatIdEENS_3ColIdEENS_3eOpIS7_NS_16eop_scalar_timesEEEEEvRT_RKNS_5eGlueIT0_T1_S1_EE"
 "_ZN4arma10glue_times5applyIdLb0ELb0ELb0ENS_3MatIdEENS_3ColIdEEEEvRNS2_IT_EERKT3_RKT4_S6_"
 "_ZN4arma10glue_times5applyIdLb0ELb0ELb0ENS_3MatIdEES3_EEvRNS2_IT_EERKT3_RKT4_S4_"
 "_ZN4arma10glue_times5applyIdLb1ELb0ELb0ENS_3MatIdEES3_EEvRNS2_IT_EERKT3_RKT4_S4_"
 "_ZN4arma11op_nonzeros13apply_noaliasINS_3MatIdEEEEvRNS2_INT_9elem_typeEEERKNS_5ProxyIS4_EE"
 "_ZN4arma12arma_ostream10print_elemIdEEvRSoRKT_b"
 "_ZN4arma12arma_ostream13modify_streamIdEExRSoPKT_y"
 "_ZN4arma12arma_ostream5printIdEEvRSoRKNS_3MatIT_EEb"
 "_ZN4arma12unwrap_checkINS_3MatIdEEED1Ev"
 "_ZN4arma13subview_elem1IdNS_3MatIyEEE10inplace_opINS_15op_internal_equEEEvd"
 "_ZN4arma13subview_elem1IdNS_4mtOpIyNS1_IyNS_3MatIdEENS_9op_rel_eqEEENS_14op_find_simpleEEEE10inplace_opINS_15op_internal_equEEEvd"
 "_ZN4arma13subview_elem2IdNS_3MatIyEES2_E7extractERNS1_IdEERKS3_"
 "_ZN4arma16gemv_emul_tinysqILb0ELb0ELb0EE5applyIdNS_3MatIdEEEEvPT_RKT0_PKS5_S5_S5_"
 "_ZN4arma16gemv_emul_tinysqILb1ELb0ELb0EE5applyIdNS_3ColIdEEEEvPT_RKT0_PKS5_S5_S5_"
 "_ZN4arma16gemv_emul_tinysqILb1ELb0ELb0EE5applyIdNS_3MatIdEEEEvPT_RKT0_PKS5_S5_S5_"
 "_ZN4arma18unwrap_check_mixedINS_3MatIyEEEC1IdEERKS2_RKNS1_IT_EE"
 "_ZN4arma18unwrap_check_mixedINS_3MatIyEEED1Ev"
 "_ZN4arma19Proxy_xtrans_vectorINS_2OpINS_4GlueINS1_INS_3ColIdEENS_9op_htransEEENS_3MatIdEENS_10glue_timesEEES5_EEED2Ev"
 "_ZN4arma27glue_times_redirect2_helperILb0EE5applyINS_2OpINS_3ColIdEENS_9op_htransEEENS_3MatIdEEEEvRNS8_INT_9elem_typeEEERKNS_4GlueISA_T0_NS_10glue_timesEEE"
 "_ZN4arma27glue_times_redirect2_helperILb0EE5applyINS_3MatIdEENS_3ColIdEEEEvRNS3_INT_9elem_typeEEERKNS_4GlueIS7_T0_NS_10glue_timesEEE"
 "_ZN4arma3ColIdEC1INS_2OpINS_4GlueINS3_IS1_NS_9op_htransEEENS_3MatIdEENS_10glue_timesEEES5_EEEERKNS_4BaseIdT_EE"
 "_ZN4arma3MatIdE10soft_resetEv"
 "_ZN4arma3MatIdE3eyeEv"
 "_ZN4arma3MatIdE5resetEv"
 "_ZN4arma3MatIdE9init_coldEv"
 "_ZN4arma3MatIdE9init_warmEyy"
 "_ZN4arma3MatIdE9steal_memERS1_"
 "_ZN4arma3MatIdEC1ERKNS_7subviewIdEE"
 "_ZN4arma3MatIdEC1ERKS1_"
 "_ZN4arma3MatIdEaSINS_11subview_colIdEENS_16eop_scalar_timesEEERS1_RKNS_3eOpIT_T0_EE"
 "_ZN4arma3MatIdEaSINS_3eOpINS_2OpIS1_NS_9op_htransEEENS_15eop_scalar_plusEEENS_16eop_scalar_timesEEERS1_RKNS3_IT_T0_EE"
 "_ZN4arma3MatIdEmIERKS1_"
 "_ZN4arma3MatIyE13steal_mem_colERS1_y"
 "_ZN4arma3MatIyE5resetEv"
 "_ZN4arma3MatIyE9init_coldEv"
 "_ZN4arma3MatIyE9init_warmEyy"
 "_ZN4arma3MatIyE9steal_memERS1_"
 "_ZN4arma4gemvILb1ELb0ELb0EE15apply_blas_typeIdNS_3MatIdEEEEvPT_RKT0_PKS5_S5_S5_"
 "_ZN4arma4normINS_5eGlueINS_3MatIdEENS_4GlueIS3_S3_NS_10glue_timesEEENS_11eglue_minusEEEEENS_10enable_if2IXsrNS_12is_arma_typeIT_EE5valueENSB_8pod_typeEE6resultERKSB_PKcPKNS_20arma_real_or_cx_onlyINSB_9elem_typeEE6resultE"
 "_ZN4arma5DatumIdE3nanE"
 "_ZN4arma5DatumIxE3nanE"
 "_ZN4arma5ProxyINS_13subview_elem2IdNS_3MatIyEES3_EEED1Ev"
 "_ZN4arma5ProxyINS_4GlueINS_13subview_elem2IdNS_3MatIyEES4_EES5_NS_10glue_timesEEEED1Ev"
 "_ZN4arma5ProxyINS_4mtOpIdNS_5eGlueINS_3ColIdEENS_3eOpIS4_NS_16eop_scalar_timesEEENS_11eglue_minusEEENS_8op_clampEEEED1Ev"
 "_ZN4arma6auxlib11svd_dc_econIdNS_3MatIdEEEEbRNS2_IT_EERNS_3ColIS4_EES6_RKNS_4BaseIS4_T0_EE"
 "_ZN4arma6auxlib8svd_econIdNS_3MatIdEEEEbRNS2_IT_EERNS_3ColIS4_EES6_RKNS_4BaseIS4_T0_EEc"
 "_ZN4arma6memory7acquireIdEEPT_y"
 "_ZN4arma6op_dot10direct_dotIdEENS_14arma_real_onlyIT_E6resultEyPKS3_S7_"
 "_ZN4arma6op_dot5applyINS_3ColIdEES3_EENT_9elem_typeERKS4_RKT0_"
 "_ZN4arma6op_max3maxINS_3MatIdEEEENS_11arma_not_cxINT_9elem_typeEE6resultERKNS_4BaseIS6_S5_EE"
 "_ZN4arma6op_min3minINS_3MatIdEEEENS_11arma_not_cxINT_9elem_typeEE6resultERKNS_4BaseIS6_S5_EE"
 "_ZN4arma6op_sum19apply_noalias_proxyINS_3eOpINS_5eGlueINS_3MatIdEENS_4GlueIS5_S5_NS_10glue_timesEEENS_11eglue_minusEEENS_7eop_absEEEEEvRNS4_INT_9elem_typeEEERKNS_5ProxyISD_EEy"
 "_ZN4arma7op_norm10vec_norm_2INS_5eGlueINS_3MatIdEENS_4GlueIS4_S4_NS_10glue_timesEEENS_11eglue_minusEEEEENT_8pod_typeERKNS_5ProxyISA_EEPKNS_11arma_not_cxINSA_9elem_typeEE6resultE"
 "_ZN4arma7op_norm21vec_norm_2_direct_stdIdEET_RKNS_3MatIS2_EE"
 "_ZN4arma7op_norm24vec_norm_2_direct_robustIdEET_RKNS_3MatIS2_EE"
 "_ZN4arma7subviewIdE10inplace_opINS_15op_internal_equEEEvRKS1_PKc"
 "_ZN4arma7subviewIdE10inplace_opINS_15op_internal_equENS_3MatIdEEEEvRKNS_4BaseIdT0_EEPKc"
 "_ZN4arma7subviewIdE10inplace_opINS_15op_internal_equENS_3eOpINS_11subview_colIdEENS_16eop_scalar_timesEEEEEvRKNS_4BaseIdT0_EEPKc"
 "_ZN4arma7subviewIdE10inplace_opINS_17op_internal_minusEEEvd"
 "_ZN4arma7subviewIdE10inplace_opINS_17op_internal_schurEEEvd"
 "_ZN4arma8arrayops10copy_smallIdEEvPT_PKS2_y"
 "_ZN4arma8arrayops10copy_smallIyEEvPT_PKS2_y"
 "_ZN4arma8arrayops11inplace_mulIdEEvPT_S2_y"
 "_ZN4arma8arrayops11inplace_setIdEEvPT_S2_y"
 "_ZN4arma8arrayops17inplace_set_smallIdEEvPT_S2_y"
 "_ZN4arma8arrayops18inplace_minus_baseIdEEvPT_PKS2_y"
 "_ZN4arma8eop_coreINS_16eop_scalar_timesEE18apply_inplace_plusINS_3ColIdEEEEvRNS_3MatINT_9elem_typeEEERKNS_3eOpIS7_S1_EE"
 "_ZN4arma8eop_coreINS_16eop_scalar_timesEE5applyINS_3MatIdEENS_11subview_colIdEEEEvRT_RKNS_3eOpIT0_S1_EE"
 "_ZN4arma8eop_coreINS_16eop_scalar_timesEE5applyINS_3MatIdEENS_3eOpINS_2OpIS5_NS_9op_htransEEENS_15eop_scalar_plusEEEEEvRT_RKNS6_IT0_S1_EE"
 "_ZN4arma8eop_coreINS_7eop_negEE5applyINS_3MatIdEENS_3ColIdEEEEvRT_RKNS_3eOpIT0_S1_EE"
 "_ZN4arma8linspaceINS_3ColIyEEEENS_10enable_if2IXsrNS_6is_MatIT_EE5valueES5_E6resultENS5_8pod_typeES9_y"
 "_ZN4arma8op_clamp5applyINS_5eGlueINS_3ColIdEENS_3eOpIS4_NS_16eop_scalar_timesEEENS_11eglue_minusEEEEEvRNS_3MatINT_9elem_typeEEERKNS_4mtOpISC_SB_S0_EE"
 "_ZN4arma8svd_econINS_3MatIdEEEEbRNS1_INT_9elem_typeEEERNS_3ColINS3_8pod_typeEEES6_RKNS_4BaseIS4_S3_EEcPKcPKNS_19arma_blas_type_onlyIS4_E6resultE"
 "_ZN4arma9op_strans12apply_directINS_4GlueINS_2OpINS_3ColIdEENS_9op_htransEEENS_3MatIdEENS_10glue_timesEEEEEvRNS8_INT_9elem_typeEEERKSC_"
 "_ZN4arma9op_strans17apply_mat_inplaceIdEEvRNS_3MatIT_EE"
 "_ZN4arma9op_strans17apply_mat_noaliasIdNS_3MatIdEEEEvRNS2_IT_EERKT0_"
 "_ZN4arma9op_strans23apply_mat_noalias_largeIdEEvRNS_3MatIT_EERKS4_"
 "_ZN4arma9op_strans24apply_mat_noalias_tinysqIdNS_3MatIdEEEEvRNS2_IT_EERKT0_"
 "_ZN5boost10error_infoIN11imagefusion14tag_image_typeENS1_4TypeEED0Ev"
 "_ZN5boost10error_infoIN11imagefusion14tag_image_typeENS1_4TypeEED1Ev"
 "_ZN5boost10error_infoIN11imagefusion8tag_sizeEN2cv5Size_IiEEED0Ev"
 "_ZN5boost10error_infoIN11imagefusion8tag_sizeEN2cv5Size_IiEEED1Ev"
 "_ZN5boost16exception_detail10bad_alloc_D0Ev"
 "_ZN5boost16exception_detail10bad_alloc_D1Ev"
 "_ZN5boost16exception_detail10bad_alloc_D2Ev"
 "_ZN5boost16exception_detail10clone_implINS0_10bad_alloc_EED0Ev"
 "_ZN5boost16exception_detail10clone_implINS0_10bad_alloc_EED1Ev"
 "_ZN5boost16exception_detail10clone_implINS0_14bad_exception_EED0Ev"
 "_ZN5boost16exception_detail10clone_implINS0_14bad_exception_EED1Ev"
 "_ZN5boost16exception_detail11set_info_rvINS_10error_infoIN11imagefusion14tag_image_typeENS3_4TypeEEEE3setINS3_11logic_errorEEERKT_SC_OS6_"
 "_ZN5boost16exception_detail11set_info_rvINS_10error_infoIN11imagefusion14tag_image_typeENS3_4TypeEEEE3setINS3_16image_type_errorEEERKT_SC_OS6_"
 "_ZN5boost16exception_detail11set_info_rvINS_10error_infoIN11imagefusion8tag_sizeEN2cv5Size_IiEEEEE3setINS3_10size_errorEEERKT_SE_OS8_"
 "_ZN5boost16exception_detail14bad_exception_D0Ev"
 "_ZN5boost16exception_detail14bad_exception_D1Ev"
 "_ZN5boost16exception_detail14bad_exception_D2Ev"
 "_ZN5boost16exception_detail20copy_boost_exceptionEPNS_9exceptionEPKS1_"
 "_ZN5boost16exception_detail25error_info_container_impl3setERKNS_10shared_ptrINS0_15error_info_baseEEERKNS0_10type_info_E"
 "_ZN5boost16exception_detail27get_static_exception_objectINS0_10bad_alloc_EEENS_13exception_ptrEv"
 "_ZN5boost16exception_detail27get_static_exception_objectINS0_14bad_exception_EEENS_13exception_ptrEv"
 "_ZN5boost16exception_detail37exception_ptr_static_exception_objectINS0_10bad_alloc_EE1eE"
 "_ZN5boost16exception_detail37exception_ptr_static_exception_objectINS0_14bad_exception_EE1eE"
 "_ZN5boost6detail15sp_counted_base7destroyEv"
 "_ZN5boost6detail15sp_counted_base7releaseEv"
 "_ZN5boost6detail17sp_counted_impl_pINS_10error_infoIN11imagefusion14tag_image_typeENS3_4TypeEEEE11get_deleterERKSt9type_info"
 "_ZN5boost6detail17sp_counted_impl_pINS_10error_infoIN11imagefusion14tag_image_typeENS3_4TypeEEEE17get_local_deleterERKSt9type_info"
 "_ZN5boost6detail17sp_counted_impl_pINS_10error_infoIN11imagefusion14tag_image_typeENS3_4TypeEEEE19get_untyped_deleterEv"
 "_ZN5boost6detail17sp_counted_impl_pINS_10error_infoIN11imagefusion14tag_image_typeENS3_4TypeEEEE7disposeEv"
 "_ZN5boost6detail17sp_counted_impl_pINS_10error_infoIN11imagefusion14tag_image_typeENS3_4TypeEEEED0Ev"
 "_ZN5boost6detail17sp_counted_impl_pINS_10error_infoIN11imagefusion14tag_image_typeENS3_4TypeEEEED1Ev"
 "_ZN5boost6detail17sp_counted_impl_pINS_10error_infoIN11imagefusion8tag_sizeEN2cv5Size_IiEEEEE11get_deleterERKSt9type_info"
 "_ZN5boost6detail17sp_counted_impl_pINS_10error_infoIN11imagefusion8tag_sizeEN2cv5Size_IiEEEEE17get_local_deleterERKSt9type_info"
 "_ZN5boost6detail17sp_counted_impl_pINS_10error_infoIN11imagefusion8tag_sizeEN2cv5Size_IiEEEEE19get_untyped_deleterEv"
 "_ZN5boost6detail17sp_counted_impl_pINS_10error_infoIN11imagefusion8tag_sizeEN2cv5Size_IiEEEEE7disposeEv"
 "_ZN5boost6detail17sp_counted_impl_pINS_10error_infoIN11imagefusion8tag_sizeEN2cv5Size_IiEEEEED0Ev"
 "_ZN5boost6detail17sp_counted_impl_pINS_10error_infoIN11imagefusion8tag_sizeEN2cv5Size_IiEEEEED1Ev"
 "_ZN5boost6detail17sp_counted_impl_pINS_16exception_detail10clone_implINS2_10bad_alloc_EEEE11get_deleterERKSt9type_info"
 "_ZN5boost6detail17sp_counted_impl_pINS_16exception_detail10clone_implINS2_10bad_alloc_EEEE17get_local_deleterERKSt9type_info"
 "_ZN5boost6detail17sp_counted_impl_pINS_16exception_detail10clone_implINS2_10bad_alloc_EEEE19get_untyped_deleterEv"
 "_ZN5boost6detail17sp_counted_impl_pINS_16exception_detail10clone_implINS2_10bad_alloc_EEEE7disposeEv"
 "_ZN5boost6detail17sp_counted_impl_pINS_16exception_detail10clone_implINS2_10bad_alloc_EEEED0Ev"
 "_ZN5boost6detail17sp_counted_impl_pINS_16exception_detail10clone_implINS2_10bad_alloc_EEEED1Ev"
 "_ZN5boost6detail17sp_counted_impl_pINS_16exception_detail10clone_implINS2_14bad_exception_EEEE11get_deleterERKSt9type_info"
 "_ZN5boost6detail17sp_counted_impl_pINS_16exception_detail10clone_implINS2_14bad_exception_EEEE17get_local_deleterERKSt9type_info"
 "_ZN5boost6detail17sp_counted_impl_pINS_16exception_detail10clone_implINS2_14bad_exception_EEEE19get_untyped_deleterEv"
 "_ZN5boost6detail17sp_counted_impl_pINS_16exception_detail10clone_implINS2_14bad_exception_EEEE7disposeEv"
 "_ZN5boost6detail17sp_counted_impl_pINS_16exception_detail10clone_implINS2_14bad_exception_EEEED0Ev"
 "_ZN5boost6detail17sp_counted_impl_pINS_16exception_detail10clone_implINS2_14bad_exception_EEEED1Ev"
 "_ZN5boost6detail17sp_counted_impl_pINS_16exception_detail15error_info_baseEE11get_deleterERKSt9type_info"
 "_ZN5boost6detail17sp_counted_impl_pINS_16exception_detail15error_info_baseEE17get_local_deleterERKSt9type_info"
 "_ZN5boost6detail17sp_counted_impl_pINS_16exception_detail15error_info_baseEE19get_untyped_deleterEv"
 "_ZN5boost6detail17sp_counted_impl_pINS_16exception_detail15error_info_baseEE7disposeEv"
 "_ZN5boost6detail17sp_counted_impl_pINS_16exception_detail15error_info_baseEED0Ev"
 "_ZN5boost6detail17sp_counted_impl_pINS_16exception_detail15error_info_baseEED1Ev"
 "_ZN5boost9to_stringIN11imagefusion8tag_sizeEN2cv5Size_IiEEEENSt7__cxx1112basic_stringIcSt11char_traitsIcESaIcEEERKNS_10error_infoIT_T0_EE"
 "_ZN9__gnu_cxx12__to_xstringINSt7__cxx1112basic_stringIcSt11char_traitsIcESaIcEEEcEET_PFiPT0_yPKS8_PcEySB_z"
 "_ZNK11imagefusion9DataFusor11outputImageEv"
 "_ZNK11imagefusion9DataFusor9srcImagesEv"
 "_ZNK5boost10error_infoIN11imagefusion14tag_image_typeENS1_4TypeEE17name_value_stringB5cxx11Ev"
 "_ZNK5boost10error_infoIN11imagefusion14tag_image_typeENS1_4TypeEE5cloneEv"
 "_ZNK5boost10error_infoIN11imagefusion8tag_sizeEN2cv5Size_IiEEE17name_value_stringB5cxx11Ev"
 "_ZNK5boost10error_infoIN11imagefusion8tag_sizeEN2cv5Size_IiEEE5cloneEv"
 "_ZNK5boost16exception_detail10clone_implINS0_10bad_alloc_EE5cloneEv"
 "_ZNK5boost16exception_detail10clone_implINS0_10bad_alloc_EE7rethrowEv"
 "_ZNK5boost16exception_detail10clone_implINS0_14bad_exception_EE5cloneEv"
 "_ZNK5boost16exception_detail10clone_implINS0_14bad_exception_EE7rethrowEv"
 "_ZNK5boost16exception_detail25error_info_container_impl22diagnostic_informationEPKc"
 "_ZNK5boost16exception_detail25error_info_container_impl3getERKNS0_10type_info_E"
 "_ZNK5boost16exception_detail25error_info_container_impl5cloneEv"
 "_ZNK5boost16exception_detail25error_info_container_impl7add_refEv"
 "_ZNK5boost16exception_detail25error_info_container_impl7releaseEv"
 "_ZNKSt5ctypeIcE8do_widenEc"
 "_ZNSt11char_traitsIcE6lengthEPKc"
 "_ZNSt24uniform_int_distributionIyEclISt26linear_congruential_engineIjLj48271ELj0ELj2147483647EEEEyRT_RKNS0_10param_typeE"
 "_ZNSt6vectorIySaIyEE12emplace_backIJyEEERyDpOT_"
 "_ZNSt6vectorIySaIyEE17_M_realloc_insertIJyEEEvN9__gnu_cxx17__normal_iteratorIPyS1_EEDpOT_"
 "_ZNSt6vectorIySaIyEE8_M_eraseEN9__gnu_cxx17__normal_iteratorIPyS1_EES5_"
 "_ZNSt7__cxx1112basic_stringIcSt11char_traitsIcESaIcEE10_M_replaceEyyPKcy"
 "_ZNSt7__cxx1112basic_stringIcSt11char_traitsIcESaIcEE12_M_constructIPKcEEvT_S8_St20forward_iterator_tag"
 "_ZNSt7__cxx1112basic_stringIcSt11char_traitsIcESaIcEE12_M_constructIPcEEvT_S7_St20forward_iterator_tag"
 "_ZNSt7__cxx1112basic_stringIcSt11char_traitsIcESaIcEE14_M_replace_auxEyyyc"
 "_ZNSt7__cxx1112basic_stringIcSt11char_traitsIcESaIcEE9_M_appendEPKcy"
 "_ZNSt7__cxx1112basic_stringIcSt11char_traitsIcESaIcEE9_M_mutateEyyPKcy"
 "_ZNSt7__cxx1112basic_stringIcSt11char_traitsIcESaIcEED1Ev"
 "_ZNSt8_Rb_treeIN5boost16exception_detail10type_info_ESt4pairIKS2_NS0_10shared_ptrINS1_15error_info_baseEEEESt10_Select1stIS8_ESt4lessIS2_ESaIS8_EE14_M_insert_nodeEPSt18_Rb_tree_node_baseSG_PSt13_Rb_tree_nodeIS8_E"
 "_ZNSt8_Rb_treeIN5boost16exception_detail10type_info_ESt4pairIKS2_NS0_10shared_ptrINS1_15error_info_baseEEEESt10_Select1stIS8_ESt4lessIS2_ESaIS8_EE24_M_get_insert_unique_posERS4_"
 "_ZNSt8_Rb_treeIN5boost16exception_detail10type_info_ESt4pairIKS2_NS0_10shared_ptrINS1_15error_info_baseEEEESt10_Select1stIS8_ESt4lessIS2_ESaIS8_EE8_M_eraseEPSt13_Rb_tree_nodeIS8_E"
 "_ZNSt8_Rb_treeINSt7__cxx1112basic_stringIcSt11char_traitsIcESaIcEEESt4pairIKS5_S5_ESt10_Select1stIS8_ESt4lessIS5_ESaIS8_EE8_M_eraseEPSt13_Rb_tree_nodeIS8_E"
 "_ZNSt8_Rb_treeINSt7__cxx1112basic_stringIcSt11char_traitsIcESaIcEEESt4pairIKS5_St3mapIS5_S5_St4lessIS5_ESaIS6_IS7_S5_EEEESt10_Select1stISE_ESA_SaISE_EE8_M_eraseEPSt13_Rb_tree_nodeISE_E"
 "_ZNSt8_Rb_treeIiSt4pairIKiN2cv6Point_IiEEESt10_Select1stIS5_ESt4lessIiESaIS5_EE8_M_eraseEPSt13_Rb_tree_nodeIS5_E"
 "_ZSt11__remove_ifIN9__gnu_cxx17__normal_iteratorIPySt6vectorIySaIyEEEENS0_5__ops16_Iter_equals_valIKyEEET_SB_SB_T0_"
 "_ZSt13__adjust_heapIN9__gnu_cxx17__normal_iteratorIPySt6vectorIySaIyEEEExyNS0_5__ops15_Iter_comp_iterIZN11imagefusion18spstfm_impl_detail12sort_indicesIdEES5_RKS3_IT_SaISC_EEEUlyyE_EEEvSC_T0_SJ_T1_T2_"
 "_ZSt16__insertion_sortIN9__gnu_cxx17__normal_iteratorIPySt6vectorIySaIyEEEENS0_5__ops15_Iter_comp_iterIZN11imagefusion18spstfm_impl_detail12sort_indicesIdEES5_RKS3_IT_SaISC_EEEUlyyE_EEEvSC_SC_T0_"
 "_ZSt16__introsort_loopIN9__gnu_cxx17__normal_iteratorIPySt6vectorIySaIyEEEExNS0_5__ops15_Iter_comp_iterIZN11imagefusion18spstfm_impl_detail12sort_indicesIdEES5_RKS3_IT_SaISC_EEEUlyyE_EEEvSC_SC_T0_T1_"
 "_ZSt7shuffleIN9__gnu_cxx17__normal_iteratorIPySt6vectorIySaIyEEEERSt26linear_congruential_engineIjLj48271ELj0ELj2147483647EEEvT_SA_OT0_"
 "_ZStplIcSt11char_traitsIcESaIcEENSt7__cxx1112basic_stringIT_T0_T1_EEOS8_PKS5_"
 "_ZStplIcSt11char_traitsIcESaIcEENSt7__cxx1112basic_stringIT_T0_T1_EEOS8_S9_"
 "_ZStplIcSt11char_traitsIcESaIcEENSt7__cxx1112basic_stringIT_T0_T1_EEPKS5_OS8_"
 "_ZTCN11imagefusion10size_errorE0_NS_13runtime_errorE"
 "_ZTCN11imagefusion16image_type_errorE0_NS_13runtime_errorE"
 "_ZTIN11imagefusion10ConstImageE"
 "_ZTIN11imagefusion10size_errorE"
 "_ZTIN11imagefusion11logic_errorE"
 "_ZTIN11imagefusion13runtime_errorE"
 "_ZTIN11imagefusion16image_type_errorE"
 "_ZTIN11imagefusion5ImageE"
 "_ZTIN11imagefusion9DataFusorE"
 "_ZTIN5boost10error_infoIN11imagefusion14tag_image_typeENS1_4TypeEEE"
 "_ZTIN5boost10error_infoIN11imagefusion8tag_sizeEN2cv5Size_IiEEEE"
 "_ZTIN5boost16exception_detail10bad_alloc_E"
 "_ZTIN5boost16exception_detail10clone_baseE"
 "_ZTIN5boost16exception_detail10clone_implINS0_10bad_alloc_EEE"
 "_ZTIN5boost16exception_detail10clone_implINS0_14bad_exception_EEE"
 "_ZTIN5boost16exception_detail14bad_exception_E"
 "_ZTIN5boost16exception_detail15error_info_baseE"
 "_ZTIN5boost16exception_detail20error_info_containerE"
 "_ZTIN5boost16exception_detail25error_info_container_implE"
 "_ZTIN5boost6detail15sp_counted_baseE"
 "_ZTIN5boost6detail17sp_counted_impl_pINS_10error_infoIN11imagefusion14tag_image_typeENS3_4TypeEEEEE"
 "_ZTIN5boost6detail17sp_counted_impl_pINS_10error_infoIN11imagefusion8tag_sizeEN2cv5Size_IiEEEEEE"
 "_ZTIN5boost6detail17sp_counted_impl_pINS_16exception_detail10clone_implINS2_10bad_alloc_EEEEE"
 "_ZTIN5boost6detail17sp_counted_impl_pINS_16exception_detail10clone_implINS2_14bad_exception_EEEEE"
 "_ZTIN5boost6detail17sp_counted_impl_pINS_16exception_detail15error_info_baseEEE"
 "_ZTIN5boost9exceptionE"
 "_ZTISt11logic_error"
 "_ZTISt13bad_exception"
 "_ZTISt13runtime_error"
 "_ZTISt9bad_alloc"
 "_ZTISt9exception"
 "_ZTSN11imagefusion10ConstImageE"
 "_ZTSN11imagefusion10size_errorE"
 "_ZTSN11imagefusion11logic_errorE"
 "_ZTSN11imagefusion13runtime_errorE"
 "_ZTSN11imagefusion16image_type_errorE"
 "_ZTSN11imagefusion5ImageE"
 "_ZTSN11imagefusion9DataFusorE"
 "_ZTSN5boost10error_infoIN11imagefusion14tag_image_typeENS1_4TypeEEE"
 "_ZTSN5boost10error_infoIN11imagefusion8tag_sizeEN2cv5Size_IiEEEE"
 "_ZTSN5boost16exception_detail10bad_alloc_E"
 "_ZTSN5boost16exception_detail10clone_baseE"
 "_ZTSN5boost16exception_detail10clone_implINS0_10bad_alloc_EEE"
 "_ZTSN5boost16exception_detail10clone_implINS0_14bad_exception_EEE"
 "_ZTSN5boost16exception_detail14bad_exception_E"
 "_ZTSN5boost16exception_detail15error_info_baseE"
 "_ZTSN5boost16exception_detail20error_info_containerE"
 "_ZTSN5boost16exception_detail25error_info_container_implE"
 "_ZTSN5boost6detail15sp_counted_baseE"
 "_ZTSN5boost6detail17sp_counted_impl_pINS_10error_infoIN11imagefusion14tag_image_typeENS3_4TypeEEEEE"
 "_ZTSN5boost6detail17sp_counted_impl_pINS_10error_infoIN11imagefusion8tag_sizeEN2cv5Size_IiEEEEEE"
 "_ZTSN5boost6detail17sp_counted_impl_pINS_16exception_detail10clone_implINS2_10bad_alloc_EEEEE"
 "_ZTSN5boost6detail17sp_counted_impl_pINS_16exception_detail10clone_implINS2_14bad_exception_EEEEE"
 "_ZTSN5boost6detail17sp_counted_impl_pINS_16exception_detail15error_info_baseEEE"
 "_ZTSN5boost9exceptionE"
 "_ZTSPN11imagefusion14tag_image_typeE"
 "_ZTSPN11imagefusion8tag_sizeE"
 "_ZTSSt11logic_error"
 "_ZTSSt13bad_exception"
 "_ZTSSt13runtime_error"
 "_ZTSSt9bad_alloc"
 "_ZTSSt9exception"
 "_ZTTN11imagefusion10size_errorE"
 "_ZTTN11imagefusion11logic_errorE"
 "_ZTTN11imagefusion16image_type_errorE"
 "_ZTTN5boost16exception_detail10clone_implINS0_10bad_alloc_EEE"
 "_ZTTN5boost16exception_detail10clone_implINS0_14bad_exception_EEE"
 "_ZTVN11imagefusion10ConstImageE"
 "_ZTVN11imagefusion10size_errorE"
 "_ZTVN11imagefusion11logic_errorE"
 "_ZTVN11imagefusion16image_type_errorE"
 "_ZTVN11imagefusion5ImageE"
 "_ZTVN11imagefusion9DataFusorE"
 "_ZTVN5boost10error_infoIN11imagefusion14tag_image_typeENS1_4TypeEEE"
 "_ZTVN5boost10error_infoIN11imagefusion8tag_sizeEN2cv5Size_IiEEEE"
 "_ZTVN5boost16exception_detail10bad_alloc_E"
 "_ZTVN5boost16exception_detail10clone_baseE"
 "_ZTVN5boost16exception_detail10clone_implINS0_10bad_alloc_EEE"
 "_ZTVN5boost16exception_detail10clone_implINS0_14bad_exception_EEE"
 "_ZTVN5boost16exception_detail14bad_exception_E"
 "_ZTVN5boost16exception_detail25error_info_container_implE"
 "_ZTVN5boost6detail17sp_counted_impl_pINS_10error_infoIN11imagefusion14tag_image_typeENS3_4TypeEEEEE"
 "_ZTVN5boost6detail17sp_counted_impl_pINS_10error_infoIN11imagefusion8tag_sizeEN2cv5Size_IiEEEEEE"
 "_ZTVN5boost6detail17sp_counted_impl_pINS_16exception_detail10clone_implINS2_10bad_alloc_EEEEE"
 "_ZTVN5boost6detail17sp_counted_impl_pINS_16exception_detail10clone_implINS2_14bad_exception_EEEEE"
 "_ZTVN5boost6detail17sp_counted_impl_pINS_16exception_detail15error_info_baseEEE"
 "_ZTVN5boost9exceptionE"
 "_ZThn40_N5boost16exception_detail10bad_alloc_D0Ev"
 "_ZThn40_N5boost16exception_detail10bad_alloc_D1Ev"
 "_ZThn40_N5boost16exception_detail10clone_implINS0_10bad_alloc_EED0Ev"
 "_ZThn40_N5boost16exception_detail10clone_implINS0_10bad_alloc_EED1Ev"
 "_ZThn40_N5boost16exception_detail10clone_implINS0_14bad_exception_EED0Ev"
 "_ZThn40_N5boost16exception_detail10clone_implINS0_14bad_exception_EED1Ev"
 "_ZThn40_N5boost16exception_detail14bad_exception_D0Ev"
 "_ZThn40_N5boost16exception_detail14bad_exception_D1Ev"
 "_ZTv0_n24_N11imagefusion10size_errorD0Ev"
 "_ZTv0_n24_N11imagefusion10size_errorD1Ev"
 "_ZTv0_n24_N11imagefusion11logic_errorD0Ev"
 "_ZTv0_n24_N11imagefusion11logic_errorD1Ev"
 "_ZTv0_n24_N11imagefusion16image_type_errorD0Ev"
 "_ZTv0_n24_N11imagefusion16image_type_errorD1Ev"
 "_ZTv0_n24_NK5boost16exception_detail10clone_implINS0_10bad_alloc_EE5cloneEv"
 "_ZTv0_n24_NK5boost16exception_detail10clone_implINS0_14bad_exception_EE5cloneEv"
 "_ZTv0_n32_NK5boost16exception_detail10clone_implINS0_10bad_alloc_EE7rethrowEv"
 "_ZTv0_n32_NK5boost16exception_detail10clone_implINS0_14bad_exception_EE7rethrowEv"
 "_ZTv0_n40_N11imagefusion10size_errorD0Ev"
 "_ZTv0_n40_N11imagefusion10size_errorD1Ev"
 "_ZTv0_n40_N11imagefusion16image_type_errorD0Ev"
 "_ZTv0_n40_N11imagefusion16image_type_errorD1Ev"
 "_ZTv0_n40_N5boost16exception_detail10clone_implINS0_10bad_alloc_EED0Ev"
 "_ZTv0_n40_N5boost16exception_detail10clone_implINS0_10bad_alloc_EED1Ev"
 "_ZTv0_n40_N5boost16exception_detail10clone_implINS0_14bad_exception_EED0Ev"
 "_ZTv0_n40_N5boost16exception_detail10clone_implINS0_14bad_exception_EED1Ev"
 "_ZZN4arma16arma_cerr_streamIcEERSoPSoE11cerr_stream"
 "_ZZN5boost16exception_detail27get_static_exception_objectINS0_10bad_alloc_EEENS_13exception_ptrEvE2ep"
 "_ZZN5boost16exception_detail27get_static_exception_objectINS0_14bad_exception_EEENS_13exception_ptrEvE2ep"
 "_ZGVN5boost16exception_detail37exception_ptr_static_exception_objectINS0_10bad_alloc_EE1eE"
 "_ZGVN5boost16exception_detail37exception_ptr_static_exception_objectINS0_14bad_exception_EE1eE"
 "_ZGVN7cvflann7anyimpl12SinglePolicyINS0_9empty_anyEE6policyE"
 "_ZGVN7cvflann7anyimpl12SinglePolicyINS_17flann_algorithm_tEE6policyE"
 "_ZGVN7cvflann7anyimpl12SinglePolicyINS_20flann_centers_init_tEE6policyE"
 "_ZGVN7cvflann7anyimpl12SinglePolicyINSt7__cxx1112basic_stringIcSt11char_traitsIcESaIcEEEE6policyE"
 "_ZGVN7cvflann7anyimpl12SinglePolicyIPKcE6policyE"
 "_ZGVN7cvflann7anyimpl12SinglePolicyIbE6policyE"
 "_ZGVN7cvflann7anyimpl12SinglePolicyIfE6policyE"
 "_ZGVN7cvflann7anyimpl12SinglePolicyIiE6policyE"
 "_ZGVN7cvflann7anyimpl12SinglePolicyIjE6policyE"
 "_ZGVZN5boost16exception_detail27get_static_exception_objectINS0_10bad_alloc_EEENS_13exception_ptrEvE2ep"
 "_ZGVZN5boost16exception_detail27get_static_exception_objectINS0_14bad_exception_EEENS_13exception_ptrEvE2ep"
 "_ZN11imagefusion10ConstImageC2EiiNS_4TypeE"
 "_ZN11imagefusion10ConstImageD0Ev"
 "_ZN11imagefusion10ConstImageD1Ev"
 "_ZN11imagefusion10size_errorC1ERKS0_"
 "_ZN11imagefusion10size_errorD0Ev"
 "_ZN11imagefusion10size_errorD1Ev"
 "_ZN11imagefusion10toFullTypeEi"
 "_ZN11imagefusion11StarfmFusor14processOptionsERKNS_7OptionsE"
 "_ZN11imagefusion11StarfmFusor7predictEiRKNS_10ConstImageES3_"
 "_ZN11imagefusion11StarfmFusorD0Ev"
 "_ZN11imagefusion11StarfmFusorD1Ev"
 "_ZN11imagefusion11getFullTypeENS_4TypeEh"
 "_ZN11imagefusion11logic_errorC1ERKS0_"
 "_ZN11imagefusion11logic_errorD0Ev"
 "_ZN11imagefusion11logic_errorD1Ev"
 "_ZN11imagefusion13StarfmOptionsD0Ev"
 "_ZN11imagefusion13StarfmOptionsD1Ev"
 "_ZN11imagefusion13runtime_errorD0Ev"
 "_ZN11imagefusion13runtime_errorD1Ev"
 "_ZN11imagefusion14find_chan_implILh1EJEE14find_type_implIvLNS_4TypeE255EJEE3runINS_18starfm_impl_detail12PredictPixelEEEvOT_RKhRKS3_"
 "_ZN11imagefusion15not_found_errorC1ERKS0_"
 "_ZN11imagefusion15not_found_errorD0Ev"
 "_ZN11imagefusion15not_found_errorD1Ev"
 "_ZN11imagefusion16image_type_errorC1ERKS0_"
 "_ZN11imagefusion16image_type_errorD0Ev"
 "_ZN11imagefusion16image_type_errorD1Ev"
 "_ZN11imagefusion22invalid_argument_errorD0Ev"
 "_ZN11imagefusion22invalid_argument_errorD1Ev"
 "_ZN11imagefusion5ImageC1EN2cv3MatE"
 "_ZN11imagefusion5ImageD0Ev"
 "_ZN11imagefusion5ImageD1Ev"
 "_ZN11imagefusion9DataFusor11outputImageEv"
 "_ZN11imagefusion9DataFusor9srcImagesESt10shared_ptrIKNS_14MultiResImagesEE"
 "_ZN11imagefusion9to_stringB5cxx11ENS_4TypeE"
 "_ZN11imagefusion9to_stringB5cxx11ERKN2cv5Size_IiEE"
 "_ZN2cv3MatD1Ev"
 "_ZN2cv7MatExprD1Ev"
 "_ZN5boost10error_infoIN11imagefusion14tag_image_typeENS1_4TypeEED0Ev"
 "_ZN5boost10error_infoIN11imagefusion14tag_image_typeENS1_4TypeEED1Ev"
 "_ZN5boost10error_infoIN11imagefusion18tag_resolution_tagENSt7__cxx1112basic_stringIcSt11char_traitsIcESaIcEEEED0Ev"
 "_ZN5boost10error_infoIN11imagefusion18tag_resolution_tagENSt7__cxx1112basic_stringIcSt11char_traitsIcESaIcEEEED1Ev"
 "_ZN5boost10error_infoIN11imagefusion8tag_dateEiED0Ev"
 "_ZN5boost10error_infoIN11imagefusion8tag_dateEiED1Ev"
 "_ZN5boost10error_infoIN11imagefusion8tag_sizeEN2cv5Size_IiEEED0Ev"
 "_ZN5boost10error_infoIN11imagefusion8tag_sizeEN2cv5Size_IiEEED1Ev"
 "_ZN5boost16exception_detail10bad_alloc_D0Ev"
 "_ZN5boost16exception_detail10bad_alloc_D1Ev"
 "_ZN5boost16exception_detail10bad_alloc_D2Ev"
 "_ZN5boost16exception_detail10clone_implINS0_10bad_alloc_EED0Ev"
 "_ZN5boost16exception_detail10clone_implINS0_10bad_alloc_EED1Ev"
 "_ZN5boost16exception_detail10clone_implINS0_14bad_exception_EED0Ev"
 "_ZN5boost16exception_detail10clone_implINS0_14bad_exception_EED1Ev"
 "_ZN5boost16exception_detail11set_info_rvINS_10error_infoIN11imagefusion14tag_image_typeENS3_4TypeEEEE3setINS3_11logic_errorEEERKT_SC_OS6_"
 "_ZN5boost16exception_detail11set_info_rvINS_10error_infoIN11imagefusion14tag_image_typeENS3_4TypeEEEE3setINS3_16image_type_errorEEERKT_SC_OS6_"
 "_ZN5boost16exception_detail11set_info_rvINS_10error_infoIN11imagefusion18tag_resolution_tagENSt7__cxx1112basic_stringIcSt11char_traitsIcESaIcEEEEEE3setINS3_15not_found_errorEEERKT_SH_OSB_"
 "_ZN5boost16exception_detail11set_info_rvINS_10error_infoIN11imagefusion8tag_dateEiEEE3setINS3_15not_found_errorEEERKT_SB_OS5_"
 "_ZN5boost16exception_detail11set_info_rvINS_10error_infoIN11imagefusion8tag_sizeEN2cv5Size_IiEEEEE3setINS3_10size_errorEEERKT_SE_OS8_"
 "_ZN5boost16exception_detail14bad_exception_D0Ev"
 "_ZN5boost16exception_detail14bad_exception_D1Ev"
 "_ZN5boost16exception_detail14bad_exception_D2Ev"
 "_ZN5boost16exception_detail20copy_boost_exceptionEPNS_9exceptionEPKS1_"
 "_ZN5boost16exception_detail25error_info_container_impl3setERKNS_10shared_ptrINS0_15error_info_baseEEERKNS0_10type_info_E"
 "_ZN5boost16exception_detail27get_static_exception_objectINS0_10bad_alloc_EEENS_13exception_ptrEv"
 "_ZN5boost16exception_detail27get_static_exception_objectINS0_14bad_exception_EEENS_13exception_ptrEv"
 "_ZN5boost16exception_detail37exception_ptr_static_exception_objectINS0_10bad_alloc_EE1eE"
 "_ZN5boost16exception_detail37exception_ptr_static_exception_objectINS0_14bad_exception_EE1eE"
 "_ZN5boost6detail15sp_counted_base7destroyEv"
 "_ZN5boost6detail15sp_counted_base7releaseEv"
 "_ZN5boost6detail17sp_counted_impl_pINS_10error_infoIN11imagefusion14tag_image_typeENS3_4TypeEEEE11get_deleterERKSt9type_info"
 "_ZN5boost6detail17sp_counted_impl_pINS_10error_infoIN11imagefusion14tag_image_typeENS3_4TypeEEEE17get_local_deleterERKSt9type_info"
 "_ZN5boost6detail17sp_counted_impl_pINS_10error_infoIN11imagefusion14tag_image_typeENS3_4TypeEEEE19get_untyped_deleterEv"
 "_ZN5boost6detail17sp_counted_impl_pINS_10error_infoIN11imagefusion14tag_image_typeENS3_4TypeEEEE7disposeEv"
 "_ZN5boost6detail17sp_counted_impl_pINS_10error_infoIN11imagefusion14tag_image_typeENS3_4TypeEEEED0Ev"
 "_ZN5boost6detail17sp_counted_impl_pINS_10error_infoIN11imagefusion14tag_image_typeENS3_4TypeEEEED1Ev"
 "_ZN5boost6detail17sp_counted_impl_pINS_10error_infoIN11imagefusion18tag_resolution_tagENSt7__cxx1112basic_stringIcSt11char_traitsIcESaIcEEEEEE11get_deleterERKSt9type_info"
 "_ZN5boost6detail17sp_counted_impl_pINS_10error_infoIN11imagefusion18tag_resolution_tagENSt7__cxx1112basic_stringIcSt11char_traitsIcESaIcEEEEEE17get_local_deleterERKSt9type_info"
 "_ZN5boost6detail17sp_counted_impl_pINS_10error_infoIN11imagefusion18tag_resolution_tagENSt7__cxx1112basic_stringIcSt11char_traitsIcESaIcEEEEEE19get_untyped_deleterEv"
 "_ZN5boost6detail17sp_counted_impl_pINS_10error_infoIN11imagefusion18tag_resolution_tagENSt7__cxx1112basic_stringIcSt11char_traitsIcESaIcEEEEEE7disposeEv"
 "_ZN5boost6detail17sp_counted_impl_pINS_10error_infoIN11imagefusion18tag_resolution_tagENSt7__cxx1112basic_stringIcSt11char_traitsIcESaIcEEEEEED0Ev"
 "_ZN5boost6detail17sp_counted_impl_pINS_10error_infoIN11imagefusion18tag_resolution_tagENSt7__cxx1112basic_stringIcSt11char_traitsIcESaIcEEEEEED1Ev"
 "_ZN5boost6detail17sp_counted_impl_pINS_10error_infoIN11imagefusion8tag_dateEiEEE11get_deleterERKSt9type_info"
 "_ZN5boost6detail17sp_counted_impl_pINS_10error_infoIN11imagefusion8tag_dateEiEEE17get_local_deleterERKSt9type_info"
 "_ZN5boost6detail17sp_counted_impl_pINS_10error_infoIN11imagefusion8tag_dateEiEEE19get_untyped_deleterEv"
 "_ZN5boost6detail17sp_counted_impl_pINS_10error_infoIN11imagefusion8tag_dateEiEEE7disposeEv"
 "_ZN5boost6detail17sp_counted_impl_pINS_10error_infoIN11imagefusion8tag_dateEiEEED0Ev"
 "_ZN5boost6detail17sp_counted_impl_pINS_10error_infoIN11imagefusion8tag_dateEiEEED1Ev"
 "_ZN5boost6detail17sp_counted_impl_pINS_10error_infoIN11imagefusion8tag_sizeEN2cv5Size_IiEEEEE11get_deleterERKSt9type_info"
 "_ZN5boost6detail17sp_counted_impl_pINS_10error_infoIN11imagefusion8tag_sizeEN2cv5Size_IiEEEEE17get_local_deleterERKSt9type_info"
 "_ZN5boost6detail17sp_counted_impl_pINS_10error_infoIN11imagefusion8tag_sizeEN2cv5Size_IiEEEEE19get_untyped_deleterEv"
 "_ZN5boost6detail17sp_counted_impl_pINS_10error_infoIN11imagefusion8tag_sizeEN2cv5Size_IiEEEEE7disposeEv"
 "_ZN5boost6detail17sp_counted_impl_pINS_10error_infoIN11imagefusion8tag_sizeEN2cv5Size_IiEEEEED0Ev"
 "_ZN5boost6detail17sp_counted_impl_pINS_10error_infoIN11imagefusion8tag_sizeEN2cv5Size_IiEEEEED1Ev"
 "_ZN5boost6detail17sp_counted_impl_pINS_16exception_detail10clone_implINS2_10bad_alloc_EEEE11get_deleterERKSt9type_info"
 "_ZN5boost6detail17sp_counted_impl_pINS_16exception_detail10clone_implINS2_10bad_alloc_EEEE17get_local_deleterERKSt9type_info"
 "_ZN5boost6detail17sp_counted_impl_pINS_16exception_detail10clone_implINS2_10bad_alloc_EEEE19get_untyped_deleterEv"
 "_ZN5boost6detail17sp_counted_impl_pINS_16exception_detail10clone_implINS2_10bad_alloc_EEEE7disposeEv"
 "_ZN5boost6detail17sp_counted_impl_pINS_16exception_detail10clone_implINS2_10bad_alloc_EEEED0Ev"
 "_ZN5boost6detail17sp_counted_impl_pINS_16exception_detail10clone_implINS2_10bad_alloc_EEEED1Ev"
 "_ZN5boost6detail17sp_counted_impl_pINS_16exception_detail10clone_implINS2_14bad_exception_EEEE11get_deleterERKSt9type_info"
 "_ZN5boost6detail17sp_counted_impl_pINS_16exception_detail10clone_implINS2_14bad_exception_EEEE17get_local_deleterERKSt9type_info"
 "_ZN5boost6detail17sp_counted_impl_pINS_16exception_detail10clone_implINS2_14bad_exception_EEEE19get_untyped_deleterEv"
 "_ZN5boost6detail17sp_counted_impl_pINS_16exception_detail10clone_implINS2_14bad_exception_EEEE7disposeEv"
 "_ZN5boost6detail17sp_counted_impl_pINS_16exception_detail10clone_implINS2_14bad_exception_EEEED0Ev"
 "_ZN5boost6detail17sp_counted_impl_pINS_16exception_detail10clone_implINS2_14bad_exception_EEEED1Ev"
 "_ZN5boost6detail17sp_counted_impl_pINS_16exception_detail15error_info_baseEE11get_deleterERKSt9type_info"
 "_ZN5boost6detail17sp_counted_impl_pINS_16exception_detail15error_info_baseEE17get_local_deleterERKSt9type_info"
 "_ZN5boost6detail17sp_counted_impl_pINS_16exception_detail15error_info_baseEE19get_untyped_deleterEv"
 "_ZN5boost6detail17sp_counted_impl_pINS_16exception_detail15error_info_baseEE7disposeEv"
 "_ZN5boost6detail17sp_counted_impl_pINS_16exception_detail15error_info_baseEED0Ev"
 "_ZN5boost6detail17sp_counted_impl_pINS_16exception_detail15error_info_baseEED1Ev"
 "_ZN5boost9to_stringIN11imagefusion18tag_resolution_tagENSt7__cxx1112basic_stringIcSt11char_traitsIcESaIcEEEEES8_RKNS_10error_infoIT_T0_EE"
 "_ZN5boost9to_stringIN11imagefusion8tag_dateEiEENSt7__cxx1112basic_stringIcSt11char_traitsIcESaIcEEERKNS_10error_infoIT_T0_EE"
 "_ZN5boost9to_stringIN11imagefusion8tag_sizeEN2cv5Size_IiEEEENSt7__cxx1112basic_stringIcSt11char_traitsIcESaIcEEERKNS_10error_infoIT_T0_EE"
 "_ZN9__gnu_cxx12__to_xstringINSt7__cxx1112basic_stringIcSt11char_traitsIcESaIcEEEcEET_PFiPT0_yPKS8_PcEySB_z"
 "_ZNK11imagefusion10ConstImage10sharedCopyEN2cv5Rect_IiEE"
 "_ZNK11imagefusion10ConstImage10sharedCopyEv"
 "_ZNK11imagefusion11StarfmFusor10getOptionsEv"
 "_ZNK11imagefusion11StarfmFusor14findSampleAreaERKN2cv5Size_IiEERKNS1_5Rect_IiEE"
 "_ZNK11imagefusion11StarfmFusor16checkInputImagesERKNS_10ConstImageES3_i"
 "_ZNK11imagefusion11StarfmFusor22computeDistanceWeightsEv"
 "_ZNK11imagefusion18MultiResCollectionINS_5ImageEE3getERKNSt7__cxx1112basic_stringIcSt11char_traitsIcESaIcEEEi"
 "_ZNK11imagefusion18MultiResCollectionINS_5ImageEE3hasERKNSt7__cxx1112basic_stringIcSt11char_traitsIcESaIcEEEi"
 "_ZNK11imagefusion18MultiResCollectionINS_5ImageEE6getAnyEv"
 "_ZNK11imagefusion18starfm_impl_detail12PredictPixelclILNS_4TypeE0EEEvv"
 "_ZNK11imagefusion18starfm_impl_detail12PredictPixelclILNS_4TypeE1EEEvv"
 "_ZNK11imagefusion18starfm_impl_detail12PredictPixelclILNS_4TypeE2EEEvv"
 "_ZNK11imagefusion18starfm_impl_detail12PredictPixelclILNS_4TypeE3EEEvv"
 "_ZNK11imagefusion18starfm_impl_detail12PredictPixelclILNS_4TypeE4EEEvv"
 "_ZNK11imagefusion18starfm_impl_detail12PredictPixelclILNS_4TypeE5EEEvv"
 "_ZNK11imagefusion18starfm_impl_detail12PredictPixelclILNS_4TypeE6EEEvv"
 "_ZNK11imagefusion9DataFusor11outputImageEv"
 "_ZNK11imagefusion9DataFusor9srcImagesEv"
 "_ZNK2cv3Mat5emptyEv"
 "_ZNK2cv7MatExprcvNS_3MatEEv"
 "_ZNK5boost10error_infoIN11imagefusion14tag_image_typeENS1_4TypeEE17name_value_stringB5cxx11Ev"
 "_ZNK5boost10error_infoIN11imagefusion14tag_image_typeENS1_4TypeEE5cloneEv"
 "_ZNK5boost10error_infoIN11imagefusion18tag_resolution_tagENSt7__cxx1112basic_stringIcSt11char_traitsIcESaIcEEEE17name_value_stringEv"
 "_ZNK5boost10error_infoIN11imagefusion18tag_resolution_tagENSt7__cxx1112basic_stringIcSt11char_traitsIcESaIcEEEE5cloneEv"
 "_ZNK5boost10error_infoIN11imagefusion8tag_dateEiE17name_value_stringB5cxx11Ev"
 "_ZNK5boost10error_infoIN11imagefusion8tag_dateEiE5cloneEv"
 "_ZNK5boost10error_infoIN11imagefusion8tag_sizeEN2cv5Size_IiEEE17name_value_stringB5cxx11Ev"
 "_ZNK5boost10error_infoIN11imagefusion8tag_sizeEN2cv5Size_IiEEE5cloneEv"
 "_ZNK5boost16exception_detail10clone_implINS0_10bad_alloc_EE5cloneEv"
 "_ZNK5boost16exception_detail10clone_implINS0_10bad_alloc_EE7rethrowEv"
 "_ZNK5boost16exception_detail10clone_implINS0_14bad_exception_EE5cloneEv"
 "_ZNK5boost16exception_detail10clone_implINS0_14bad_exception_EE7rethrowEv"
 "_ZNK5boost16exception_detail25error_info_container_impl22diagnostic_informationEPKc"
 "_ZNK5boost16exception_detail25error_info_container_impl3getERKNS0_10type_info_E"
 "_ZNK5boost16exception_detail25error_info_container_impl5cloneEv"
 "_ZNK5boost16exception_detail25error_info_container_impl7add_refEv"
 "_ZNK5boost16exception_detail25error_info_container_impl7releaseEv"
 "_ZNKSt8_Rb_treeINSt7__cxx1112basic_stringIcSt11char_traitsIcESaIcEEESt4pairIKS5_St3mapIiN11imagefusion5ImageESt4lessIiESaIS6_IKiSA_EEEESt10_Select1stISH_ESB_IS5_ESaISH_EE4findERS7_"
 "_ZNSt6vectorIN11imagefusion10ConstImageESaIS1_EE12emplace_backIJS1_EEERS1_DpOT_"
 "_ZNSt6vectorIN11imagefusion10ConstImageESaIS1_EE17_M_realloc_insertIJS1_EEEvN9__gnu_cxx17__normal_iteratorIPS1_S3_EEDpOT_"
 "_ZNSt6vectorIN11imagefusion10ConstImageESaIS1_EED1Ev"
 "_ZNSt6vectorIN11imagefusion5ImageESaIS1_EE12emplace_backIJS1_EEERS1_DpOT_"
 "_ZNSt6vectorIN11imagefusion5ImageESaIS1_EE17_M_realloc_insertIJS1_EEEvN9__gnu_cxx17__normal_iteratorIPS1_S3_EEDpOT_"
 "_ZNSt6vectorIN11imagefusion5ImageESaIS1_EED1Ev"
 "_ZNSt6vectorIS_IdSaIdEESaIS1_EE17_M_realloc_insertIJS1_EEEvN9__gnu_cxx17__normal_iteratorIPS1_S3_EEDpOT_"
 "_ZNSt6vectorIS_IdSaIdEESaIS1_EED1Ev"
 "_ZNSt7__cxx1112basic_stringIcSt11char_traitsIcESaIcEE10_M_replaceEyyPKcy"
 "_ZNSt7__cxx1112basic_stringIcSt11char_traitsIcESaIcEE12_M_constructIPKcEEvT_S8_St20forward_iterator_tag"
 "_ZNSt7__cxx1112basic_stringIcSt11char_traitsIcESaIcEE12_M_constructIPcEEvT_S7_St20forward_iterator_tag"
 "_ZNSt7__cxx1112basic_stringIcSt11char_traitsIcESaIcEE14_M_replace_auxEyyyc"
 "_ZNSt7__cxx1112basic_stringIcSt11char_traitsIcESaIcEE9_M_appendEPKcy"
 "_ZNSt7__cxx1112basic_stringIcSt11char_traitsIcESaIcEE9_M_assignERKS4_"
 "_ZNSt7__cxx1112basic_stringIcSt11char_traitsIcESaIcEE9_M_mutateEyyPKcy"
 "_ZNSt8_Rb_treeIN5boost16exception_detail10type_info_ESt4pairIKS2_NS0_10shared_ptrINS1_15error_info_baseEEEESt10_Select1stIS8_ESt4lessIS2_ESaIS8_EE14_M_insert_nodeEPSt18_Rb_tree_node_baseSG_PSt13_Rb_tree_nodeIS8_E"
 "_ZNSt8_Rb_treeIN5boost16exception_detail10type_info_ESt4pairIKS2_NS0_10shared_ptrINS1_15error_info_baseEEEESt10_Select1stIS8_ESt4lessIS2_ESaIS8_EE24_M_get_insert_unique_posERS4_"
 "_ZNSt8_Rb_treeIN5boost16exception_detail10type_info_ESt4pairIKS2_NS0_10shared_ptrINS1_15error_info_baseEEEESt10_Select1stIS8_ESt4lessIS2_ESaIS8_EE8_M_eraseEPSt13_Rb_tree_nodeIS8_E"
 "_ZStplIcSt11char_traitsIcESaIcEENSt7__cxx1112basic_stringIT_T0_T1_EEOS8_PKS5_"
 "_ZStplIcSt11char_traitsIcESaIcEENSt7__cxx1112basic_stringIT_T0_T1_EEOS8_RKS8_"
 "_ZStplIcSt11char_traitsIcESaIcEENSt7__cxx1112basic_stringIT_T0_T1_EEOS8_S9_"
 "_ZStplIcSt11char_traitsIcESaIcEENSt7__cxx1112basic_stringIT_T0_T1_EEPKS5_OS8_"
 "_ZStplIcSt11char_traitsIcESaIcEENSt7__cxx1112basic_stringIT_T0_T1_EEPKS5_RKS8_"
 "_ZTCN11imagefusion10size_errorE0_NS_13runtime_errorE"
 "_ZTCN11imagefusion15not_found_errorE0_NS_13runtime_errorE"
 "_ZTCN11imagefusion16image_type_errorE0_NS_13runtime_errorE"
 "_ZTCN11imagefusion22invalid_argument_errorE0_NS_13runtime_errorE"
 "_ZTIN11imagefusion10ConstImageE"
 "_ZTIN11imagefusion10size_errorE"
 "_ZTIN11imagefusion11StarfmFusorE"
 "_ZTIN11imagefusion11logic_errorE"
 "_ZTIN11imagefusion13StarfmOptionsE"
 "_ZTIN11imagefusion13runtime_errorE"
 "_ZTIN11imagefusion15not_found_errorE"
 "_ZTIN11imagefusion16image_type_errorE"
 "_ZTIN11imagefusion22invalid_argument_errorE"
 "_ZTIN11imagefusion5ImageE"
 "_ZTIN11imagefusion7OptionsE"
 "_ZTIN11imagefusion9DataFusorE"
 "_ZTIN5boost10error_infoIN11imagefusion14tag_image_typeENS1_4TypeEEE"
 "_ZTIN5boost10error_infoIN11imagefusion18tag_resolution_tagENSt7__cxx1112basic_stringIcSt11char_traitsIcESaIcEEEEE"
 "_ZTIN5boost10error_infoIN11imagefusion8tag_dateEiEE"
 "_ZTIN5boost10error_infoIN11imagefusion8tag_sizeEN2cv5Size_IiEEEE"
 "_ZTIN5boost16exception_detail10bad_alloc_E"
 "_ZTIN5boost16exception_detail10clone_baseE"
 "_ZTIN5boost16exception_detail10clone_implINS0_10bad_alloc_EEE"
 "_ZTIN5boost16exception_detail10clone_implINS0_14bad_exception_EEE"
 "_ZTIN5boost16exception_detail14bad_exception_E"
 "_ZTIN5boost16exception_detail15error_info_baseE"
 "_ZTIN5boost16exception_detail20error_info_containerE"
 "_ZTIN5boost16exception_detail25error_info_container_implE"
 "_ZTIN5boost6detail15sp_counted_baseE"
 "_ZTIN5boost6detail17sp_counted_impl_pINS_10error_infoIN11imagefusion14tag_image_typeENS3_4TypeEEEEE"
 "_ZTIN5boost6detail17sp_counted_impl_pINS_10error_infoIN11imagefusion18tag_resolution_tagENSt7__cxx1112basic_stringIcSt11char_traitsIcESaIcEEEEEEE"
 "_ZTIN5boost6detail17sp_counted_impl_pINS_10error_infoIN11imagefusion8tag_dateEiEEEE"
 "_ZTIN5boost6detail17sp_counted_impl_pINS_10error_infoIN11imagefusion8tag_sizeEN2cv5Size_IiEEEEEE"
 "_ZTIN5boost6detail17sp_counted_impl_pINS_16exception_detail10clone_implINS2_10bad_alloc_EEEEE"
 "_ZTIN5boost6detail17sp_counted_impl_pINS_16exception_detail10clone_implINS2_14bad_exception_EEEEE"
 "_ZTIN5boost6detail17sp_counted_impl_pINS_16exception_detail15error_info_baseEEE"
 "_ZTIN5boost9exceptionE"
 "_ZTISt11logic_error"
 "_ZTISt13bad_exception"
 "_ZTISt13runtime_error"
 "_ZTISt9bad_alloc"
 "_ZTISt9exception"
 "_ZTSN11imagefusion10ConstImageE"
 "_ZTSN11imagefusion10size_errorE"
 "_ZTSN11imagefusion11StarfmFusorE"
 "_ZTSN11imagefusion11logic_errorE"
 "_ZTSN11imagefusion13StarfmOptionsE"
 "_ZTSN11imagefusion13runtime_errorE"
 "_ZTSN11imagefusion15not_found_errorE"
 "_ZTSN11imagefusion16image_type_errorE"
 "_ZTSN11imagefusion22invalid_argument_errorE"
 "_ZTSN11imagefusion5ImageE"
 "_ZTSN11imagefusion7OptionsE"
 "_ZTSN11imagefusion9DataFusorE"
 "_ZTSN5boost10error_infoIN11imagefusion14tag_image_typeENS1_4TypeEEE"
 "_ZTSN5boost10error_infoIN11imagefusion18tag_resolution_tagENSt7__cxx1112basic_stringIcSt11char_traitsIcESaIcEEEEE"
 "_ZTSN5boost10error_infoIN11imagefusion8tag_dateEiEE"
 "_ZTSN5boost10error_infoIN11imagefusion8tag_sizeEN2cv5Size_IiEEEE"
 "_ZTSN5boost16exception_detail10bad_alloc_E"
 "_ZTSN5boost16exception_detail10clone_baseE"
 "_ZTSN5boost16exception_detail10clone_implINS0_10bad_alloc_EEE"
 "_ZTSN5boost16exception_detail10clone_implINS0_14bad_exception_EEE"
 "_ZTSN5boost16exception_detail14bad_exception_E"
 "_ZTSN5boost16exception_detail15error_info_baseE"
 "_ZTSN5boost16exception_detail20error_info_containerE"
 "_ZTSN5boost16exception_detail25error_info_container_implE"
 "_ZTSN5boost6detail15sp_counted_baseE"
 "_ZTSN5boost6detail17sp_counted_impl_pINS_10error_infoIN11imagefusion14tag_image_typeENS3_4TypeEEEEE"
 "_ZTSN5boost6detail17sp_counted_impl_pINS_10error_infoIN11imagefusion18tag_resolution_tagENSt7__cxx1112basic_stringIcSt11char_traitsIcESaIcEEEEEEE"
 "_ZTSN5boost6detail17sp_counted_impl_pINS_10error_infoIN11imagefusion8tag_dateEiEEEE"
 "_ZTSN5boost6detail17sp_counted_impl_pINS_10error_infoIN11imagefusion8tag_sizeEN2cv5Size_IiEEEEEE"
 "_ZTSN5boost6detail17sp_counted_impl_pINS_16exception_detail10clone_implINS2_10bad_alloc_EEEEE"
 "_ZTSN5boost6detail17sp_counted_impl_pINS_16exception_detail10clone_implINS2_14bad_exception_EEEEE"
 "_ZTSN5boost6detail17sp_counted_impl_pINS_16exception_detail15error_info_baseEEE"
 "_ZTSN5boost9exceptionE"
 "_ZTSPN11imagefusion14tag_image_typeE"
 "_ZTSPN11imagefusion18tag_resolution_tagE"
 "_ZTSPN11imagefusion8tag_dateE"
 "_ZTSPN11imagefusion8tag_sizeE"
 "_ZTSSt11logic_error"
 "_ZTSSt13bad_exception"
 "_ZTSSt13runtime_error"
 "_ZTSSt9bad_alloc"
 "_ZTSSt9exception"
 "_ZTTN11imagefusion10size_errorE"
 "_ZTTN11imagefusion11logic_errorE"
 "_ZTTN11imagefusion13runtime_errorE"
 "_ZTTN11imagefusion15not_found_errorE"
 "_ZTTN11imagefusion16image_type_errorE"
 "_ZTTN11imagefusion22invalid_argument_errorE"
 "_ZTTN5boost16exception_detail10clone_implINS0_10bad_alloc_EEE"
 "_ZTTN5boost16exception_detail10clone_implINS0_14bad_exception_EEE"
 "_ZTVN11imagefusion10ConstImageE"
 "_ZTVN11imagefusion10size_errorE"
 "_ZTVN11imagefusion11StarfmFusorE"
 "_ZTVN11imagefusion11logic_errorE"
 "_ZTVN11imagefusion13StarfmOptionsE"
 "_ZTVN11imagefusion13runtime_errorE"
 "_ZTVN11imagefusion15not_found_errorE"
 "_ZTVN11imagefusion16image_type_errorE"
 "_ZTVN11imagefusion22invalid_argument_errorE"
 "_ZTVN11imagefusion5ImageE"
 "_ZTVN11imagefusion9DataFusorE"
 "_ZTVN5boost10error_infoIN11imagefusion14tag_image_typeENS1_4TypeEEE"
 "_ZTVN5boost10error_infoIN11imagefusion18tag_resolution_tagENSt7__cxx1112basic_stringIcSt11char_traitsIcESaIcEEEEE"
 "_ZTVN5boost10error_infoIN11imagefusion8tag_dateEiEE"
 "_ZTVN5boost10error_infoIN11imagefusion8tag_sizeEN2cv5Size_IiEEEE"
 "_ZTVN5boost16exception_detail10bad_alloc_E"
 "_ZTVN5boost16exception_detail10clone_baseE"
 "_ZTVN5boost16exception_detail10clone_implINS0_10bad_alloc_EEE"
 "_ZTVN5boost16exception_detail10clone_implINS0_14bad_exception_EEE"
 "_ZTVN5boost16exception_detail14bad_exception_E"
 "_ZTVN5boost16exception_detail25error_info_container_implE"
 "_ZTVN5boost6detail17sp_counted_impl_pINS_10error_infoIN11imagefusion14tag_image_typeENS3_4TypeEEEEE"
 "_ZTVN5boost6detail17sp_counted_impl_pINS_10error_infoIN11imagefusion18tag_resolution_tagENSt7__cxx1112basic_stringIcSt11char_traitsIcESaIcEEEEEEE"
 "_ZTVN5boost6detail17sp_counted_impl_pINS_10error_infoIN11imagefusion8tag_dateEiEEEE"
 "_ZTVN5boost6detail17sp_counted_impl_pINS_10error_infoIN11imagefusion8tag_sizeEN2cv5Size_IiEEEEEE"
 "_ZTVN5boost6detail17sp_counted_impl_pINS_16exception_detail10clone_implINS2_10bad_alloc_EEEEE"
 "_ZTVN5boost6detail17sp_counted_impl_pINS_16exception_detail10clone_implINS2_14bad_exception_EEEEE"
 "_ZTVN5boost6detail17sp_counted_impl_pINS_16exception_detail15error_info_baseEEE"
 "_ZTVN5boost9exceptionE"
 "_ZThn40_N5boost16exception_detail10bad_alloc_D0Ev"
 "_ZThn40_N5boost16exception_detail10bad_alloc_D1Ev"
 "_ZThn40_N5boost16exception_detail10clone_implINS0_10bad_alloc_EED0Ev"
 "_ZThn40_N5boost16exception_detail10clone_implINS0_10bad_alloc_EED1Ev"
 "_ZThn40_N5boost16exception_detail10clone_implINS0_14bad_exception_EED0Ev"
 "_ZThn40_N5boost16exception_detail10clone_implINS0_14bad_exception_EED1Ev"
 "_ZThn40_N5boost16exception_detail14bad_exception_D0Ev"
 "_ZThn40_N5boost16exception_detail14bad_exception_D1Ev"
 "_ZTv0_n24_N11imagefusion10size_errorD0Ev"
 "_ZTv0_n24_N11imagefusion10size_errorD1Ev"
 "_ZTv0_n24_N11imagefusion11logic_errorD0Ev"
 "_ZTv0_n24_N11imagefusion11logic_errorD1Ev"
 "_ZTv0_n24_N11imagefusion13runtime_errorD0Ev"
 "_ZTv0_n24_N11imagefusion13runtime_errorD1Ev"
 "_ZTv0_n24_N11imagefusion15not_found_errorD0Ev"
 "_ZTv0_n24_N11imagefusion15not_found_errorD1Ev"
 "_ZTv0_n24_N11imagefusion16image_type_errorD0Ev"
 "_ZTv0_n24_N11imagefusion16image_type_errorD1Ev"
 "_ZTv0_n24_N11imagefusion22invalid_argument_errorD0Ev"
 "_ZTv0_n24_N11imagefusion22invalid_argument_errorD1Ev"
 "_ZTv0_n24_NK5boost16exception_detail10clone_implINS0_10bad_alloc_EE5cloneEv"
 "_ZTv0_n24_NK5boost16exception_detail10clone_implINS0_14bad_exception_EE5cloneEv"
 "_ZTv0_n32_NK5boost16exception_detail10clone_implINS0_10bad_alloc_EE7rethrowEv"
 "_ZTv0_n32_NK5boost16exception_detail10clone_implINS0_14bad_exception_EE7rethrowEv"
 "_ZTv0_n40_N11imagefusion10size_errorD0Ev"
 "_ZTv0_n40_N11imagefusion10size_errorD1Ev"
 "_ZTv0_n40_N11imagefusion15not_found_errorD0Ev"
 "_ZTv0_n40_N11imagefusion15not_found_errorD1Ev"
 "_ZTv0_n40_N11imagefusion16image_type_errorD0Ev"
 "_ZTv0_n40_N11imagefusion16image_type_errorD1Ev"
 "_ZTv0_n40_N11imagefusion22invalid_argument_errorD0Ev"
 "_ZTv0_n40_N11imagefusion22invalid_argument_errorD1Ev"
 "_ZTv0_n40_N5boost16exception_detail10clone_implINS0_10bad_alloc_EED0Ev"
 "_ZTv0_n40_N5boost16exception_detail10clone_implINS0_10bad_alloc_EED1Ev"
 "_ZTv0_n40_N5boost16exception_detail10clone_implINS0_14bad_exception_EED0Ev"
 "_ZTv0_n40_N5boost16exception_detail10clone_implINS0_14bad_exception_EED1Ev"
 "_ZZN5boost16exception_detail27get_static_exception_objectINS0_10bad_alloc_EEENS_13exception_ptrEvE2ep"
 "_ZZN5boost16exception_detail27get_static_exception_objectINS0_14bad_exception_EEENS_13exception_ptrEvE2ep"
 "_ZGVN4arma5DatumIdE3nanE"
 "_ZGVN4arma5DatumIxE3nanE"
 "_ZGVN5boost16exception_detail37exception_ptr_static_exception_objectINS0_10bad_alloc_EE1eE"
 "_ZGVN5boost16exception_detail37exception_ptr_static_exception_objectINS0_14bad_exception_EE1eE"
 "_ZGVN7cvflann7anyimpl12SinglePolicyINS0_9empty_anyEE6policyE"
 "_ZGVN7cvflann7anyimpl12SinglePolicyINS_17flann_algorithm_tEE6policyE"
 "_ZGVN7cvflann7anyimpl12SinglePolicyINS_20flann_centers_init_tEE6policyE"
 "_ZGVN7cvflann7anyimpl12SinglePolicyINSt7__cxx1112basic_stringIcSt11char_traitsIcESaIcEEEE6policyE"
 "_ZGVN7cvflann7anyimpl12SinglePolicyIPKcE6policyE"
 "_ZGVN7cvflann7anyimpl12SinglePolicyIbE6policyE"
 "_ZGVN7cvflann7anyimpl12SinglePolicyIfE6policyE"
 "_ZGVN7cvflann7anyimpl12SinglePolicyIiE6policyE"
 "_ZGVN7cvflann7anyimpl12SinglePolicyIjE6policyE"
 "_ZGVZN5boost16exception_detail27get_static_exception_objectINS0_10bad_alloc_EEENS_13exception_ptrEvE2ep"
 "_ZGVZN5boost16exception_detail27get_static_exception_objectINS0_14bad_exception_EEENS_13exception_ptrEvE2ep"
 "_ZN11imagefusion10ConstImageC2EiiNS_4TypeE"
 "_ZN11imagefusion10ConstImageD0Ev"
 "_ZN11imagefusion10ConstImageD1Ev"
 "_ZN11imagefusion10size_errorC1ERKS0_"
 "_ZN11imagefusion10size_errorD0Ev"
 "_ZN11imagefusion10size_errorD1Ev"
 "_ZN11imagefusion10toFullTypeEi"
 "_ZN11imagefusion11SpstfmFusor14processOptionsERKNS_7OptionsE"
 "_ZN11imagefusion11SpstfmFusor5trainERKNS_10ConstImageES3_"
 "_ZN11imagefusion11SpstfmFusor7predictEiRKNS_10ConstImageES3_"
 "_ZN11imagefusion11SpstfmFusorD0Ev"
 "_ZN11imagefusion11SpstfmFusorD1Ev"
 "_ZN11imagefusion11getFullTypeENS_4TypeEh"
 "_ZN11imagefusion11logic_errorC1ERKS0_"
 "_ZN11imagefusion11logic_errorD0Ev"
 "_ZN11imagefusion11logic_errorD1Ev"
 "_ZN11imagefusion13SpstfmOptionsD0Ev"
 "_ZN11imagefusion13SpstfmOptionsD1Ev"
 "_ZN11imagefusion13getResultTypeENS_4TypeE"
 "_ZN11imagefusion13runtime_errorC1ERKS0_"
 "_ZN11imagefusion13runtime_errorD0Ev"
 "_ZN11imagefusion13runtime_errorD1Ev"
 "_ZN11imagefusion14find_chan_implILh1EJEE14find_type_implIvLNS_4TypeE0EJLS3_1ELS3_2ELS3_3ELS3_4ELS3_5ELS3_6ELS3_255EEE3runINS_18spstfm_impl_detail17CopyFromToFunctorIN4arma7subviewIdEEEEEEvOT_RKhRKS3_"
 "_ZN11imagefusion14find_chan_implILh1EJEE14find_type_implIvLNS_4TypeE255EJEE3runINS_18spstfm_impl_detail17CopyFromToFunctorIN4arma7subviewIdEEEEEEvOT_RKhRKS3_"
 "_ZN11imagefusion15not_found_errorC1ERKS0_"
 "_ZN11imagefusion15not_found_errorD0Ev"
 "_ZN11imagefusion15not_found_errorD1Ev"
 "_ZN11imagefusion16image_type_errorC1ERKS0_"
 "_ZN11imagefusion16image_type_errorD0Ev"
 "_ZN11imagefusion16image_type_errorD1Ev"
 "_ZN11imagefusion18spstfm_impl_detail10lowMatViewIN4arma3MatIdEEEENS2_7subviewIdEERT_"
 "_ZN11imagefusion18spstfm_impl_detail11DictTrainer11initWeightsERKNS_10ConstImageES4_S4_S4_S4_N2cv5Rect_IiEERKSt6vectorIjSaIjEE"
 "_ZN11imagefusion18spstfm_impl_detail11DictTrainer16reconstructImageERKNS_10ConstImageES4_S4_S4_S4_ddN2cv5Rect_IiEES7_j"
 "_ZN11imagefusion18spstfm_impl_detail11DictTrainer20initDictsFromSamplesERKN4arma3MatIdEEj"
 "_ZN11imagefusion18spstfm_impl_detail11DictTrainer22outputAveragedPatchRowERKSt6vectorIN4arma3MatIdEESaIS5_EERS7_jN2cv5Rect_IiEEjjj"
 "_ZN11imagefusion18spstfm_impl_detail11DictTrainer5trainERN4arma3MatIdEES5_j"
 "_ZN11imagefusion22invalid_argument_errorC1ERKS0_"
 "_ZN11imagefusion22invalid_argument_errorD0Ev"
 "_ZN11imagefusion22invalid_argument_errorD1Ev"
 "_ZN11imagefusion5ImageD0Ev"
 "_ZN11imagefusion5ImageD1Ev"
 "_ZN11imagefusion9DataFusor11outputImageEv"
 "_ZN11imagefusion9DataFusor9srcImagesESt10shared_ptrIKNS_14MultiResImagesEE"
 "_ZN11imagefusion9to_stringB5cxx11ENS_4TypeE"
 "_ZN11imagefusion9to_stringB5cxx11ERKN2cv5Size_IiEE"
 "_ZN2cv3MatC1EOS0_"
 "_ZN2cv3MatC1ERKS0_"
 "_ZN2cv3MatD1Ev"
 "_ZN2cv3MataSEOS0_"
 "_ZN2cv7MatExprD1Ev"
 "_ZN4arma10arma_checkIA55_cEEvbRKT_"
 "_ZN4arma10eglue_coreINS_10eglue_plusEE5applyINS_3MatIdEENS_3eOpINS_3ColIdEENS_16eop_scalar_timesEEESA_EEvRT_RKNS_5eGlueIT0_T1_S1_EE"
 "_ZN4arma10eglue_coreINS_10eglue_plusEE5applyINS_3MatIdEENS_3eOpINS_5eGlueIS5_S5_S1_EENS_16eop_scalar_timesEEESA_EEvRT_RKNS7_IT0_T1_S1_EE"
 "_ZN4arma10glue_times5applyIdLb0ELb0ELb0ENS_3MatIdEENS_3ColIdEEEEvRNS2_IT_EERKT3_RKT4_S6_"
 "_ZN4arma10op_reshape12apply_unwrapIdEEvRNS_3MatIT_EERKS4_yyy"
 "_ZN4arma11op_nonzeros13apply_noaliasINS_3MatIdEEEEvRNS2_INT_9elem_typeEEERKNS_5ProxyIS4_EE"
 "_ZN4arma12unwrap_checkINS_3MatIdEEED1Ev"
 "_ZN4arma13subview_elem1IdNS_3MatIyEEE10inplace_opINS_15op_internal_equEEEvd"
 "_ZN4arma16gemv_emul_tinysqILb0ELb0ELb0EE5applyIdNS_3MatIdEEEEvPT_RKT0_PKS5_S5_S5_"
 "_ZN4arma16gemv_emul_tinysqILb1ELb0ELb0EE5applyIdNS_3ColIdEEEEvPT_RKT0_PKS5_S5_S5_"
 "_ZN4arma16op_normalise_mat5applyIdEEvRNS_3MatIT_EERKS4_yy"
 "_ZN4arma27glue_times_redirect2_helperILb0EE5applyINS_3MatIdEENS_11subview_colIdEEEEvRNS3_INT_9elem_typeEEERKNS_4GlueIS7_T0_NS_10glue_timesEEE"
 "_ZN4arma27glue_times_redirect2_helperILb0EE5applyINS_3MatIdEENS_3ColIdEEEEvRNS3_INT_9elem_typeEEERKNS_4GlueIS7_T0_NS_10glue_timesEEE"
 "_ZN4arma3ColIdEaSEOS1_"
 "_ZN4arma3ColIyEC1INS_4mtOpIyNS3_IyNS_3MatIdEENS_9op_rel_eqEEENS_14op_find_simpleEEEEERKNS_4BaseIyT_EE"
 "_ZN4arma3MatIdE5resetEv"
 "_ZN4arma3MatIdE9init_coldEv"
 "_ZN4arma3MatIdE9init_warmEyy"
 "_ZN4arma3MatIdE9steal_memERS1_"
 "_ZN4arma3MatIdEC1EOS1_"
 "_ZN4arma3MatIdEC1ERKNS_7subviewIdEE"
 "_ZN4arma3MatIdEaSEOS1_"
 "_ZN4arma3MatIdEaSERKNS_7subviewIdEE"
 "_ZN4arma3MatIyE11insert_colsIS1_EEvyRKNS_4BaseIyT_EE"
 "_ZN4arma3MatIyE5resetEv"
 "_ZN4arma3MatIyE9init_coldEv"
 "_ZN4arma3MatIyE9init_warmEyy"
 "_ZN4arma4normINS_11subview_colIdEEEENS_10enable_if2IXsrNS_12is_arma_typeIT_EE5valueENS5_8pod_typeEE6resultERKS5_yPKNS_20arma_real_or_cx_onlyINS5_9elem_typeEE6resultE"
 "_ZN4arma5DatumIdE3nanE"
 "_ZN4arma5DatumIxE3nanE"
 "_ZN4arma5ProxyINS_4GlueINS_3MatIdEENS_11subview_colIdEENS_10glue_timesEEEED1Ev"
 "_ZN4arma7op_mean11direct_meanIdEET_PKS2_y"
 "_ZN4arma7op_norm10vec_norm_kINS_5eGlueINS_11subview_colIdEENS_4GlueINS_3MatIdEES4_NS_10glue_timesEEENS_11eglue_minusEEEEENT_8pod_typeERKNS_5ProxyISC_EEi"
 "_ZN4arma7op_norm24vec_norm_2_direct_robustIdEET_RKNS_3MatIS2_EE"
 "_ZN4arma7subviewIdE10inplace_opINS_15op_internal_divEEEvd"
 "_ZN4arma7subviewIdE10inplace_opINS_15op_internal_equEEEvRKS1_PKc"
 "_ZN4arma7subviewIdE10inplace_opINS_15op_internal_equENS_2OpIS1_NS_16op_normalise_matEEEEEvRKNS_4BaseIdT0_EEPKc"
 "_ZN4arma7subviewIdE10inplace_opINS_15op_internal_equENS_3MatIdEEEEvRKNS_4BaseIdT0_EEPKc"
 "_ZN4arma7subviewIdE10inplace_opINS_16op_internal_plusEEEvRKS1_PKc"
 "_ZN4arma7subviewIdE10inplace_opINS_17op_internal_schurEEEvd"
 "_ZN4arma7subviewIdE3colEy"
 "_ZN4arma7subviewIdE4rowsEyy"
 "_ZN4arma7subviewIdE6submatEyyyy"
 "_ZN4arma7subviewIdE7extractERNS_3MatIdEERKS1_"
 "_ZN4arma7subviewIyE10inplace_opINS_15op_internal_equEEEvRKS1_PKc"
 "_ZN4arma7subviewIyE10inplace_opINS_15op_internal_equENS_3MatIyEEEEvRKNS_4BaseIyT0_EEPKc"
 "_ZN4arma8arrayops10copy_smallIdEEvPT_PKS2_y"
 "_ZN4arma8arrayops10copy_smallIyEEvPT_PKS2_y"
 "_ZN4arma8arrayops11inplace_mulIdEEvPT_S2_y"
 "_ZN4arma8arrayops17inplace_plus_baseIyEEvPT_PKS2_y"
 "_ZN4arma8arrayops17inplace_set_smallIdEEvPT_S2_y"
 "_ZN4arma8arrayops17inplace_set_smallIyEEvPT_S2_y"
 "_ZN4arma9op_resize5applyINS_3MatIdEEEEvRNS2_INT_9elem_typeEEERKNS_2OpIS4_S0_EE"
 "_ZN4arma9op_strans17apply_mat_inplaceIdEEvRNS_3MatIT_EE"
 "_ZN4arma9op_strans17apply_mat_noaliasIdNS_3MatIdEEEEvRNS2_IT_EERKT0_"
 "_ZN4arma9op_strans24apply_mat_noalias_tinysqIdNS_3MatIdEEEEvRNS2_IT_EERKT0_"
 "_ZN5boost10error_infoIN11imagefusion14tag_image_typeENS1_4TypeEED0Ev"
 "_ZN5boost10error_infoIN11imagefusion14tag_image_typeENS1_4TypeEED1Ev"
 "_ZN5boost10error_infoIN11imagefusion18tag_resolution_tagENSt7__cxx1112basic_stringIcSt11char_traitsIcESaIcEEEED0Ev"
 "_ZN5boost10error_infoIN11imagefusion18tag_resolution_tagENSt7__cxx1112basic_stringIcSt11char_traitsIcESaIcEEEED1Ev"
 "_ZN5boost10error_infoIN11imagefusion8tag_dateEiED0Ev"
 "_ZN5boost10error_infoIN11imagefusion8tag_dateEiED1Ev"
 "_ZN5boost10error_infoIN11imagefusion8tag_sizeEN2cv5Size_IiEEED0Ev"
 "_ZN5boost10error_infoIN11imagefusion8tag_sizeEN2cv5Size_IiEEED1Ev"
 "_ZN5boost16exception_detail10bad_alloc_D0Ev"
 "_ZN5boost16exception_detail10bad_alloc_D1Ev"
 "_ZN5boost16exception_detail10bad_alloc_D2Ev"
 "_ZN5boost16exception_detail10clone_implINS0_10bad_alloc_EED0Ev"
 "_ZN5boost16exception_detail10clone_implINS0_10bad_alloc_EED1Ev"
 "_ZN5boost16exception_detail10clone_implINS0_14bad_exception_EED0Ev"
 "_ZN5boost16exception_detail10clone_implINS0_14bad_exception_EED1Ev"
 "_ZN5boost16exception_detail11set_info_rvINS_10error_infoIN11imagefusion14tag_image_typeENS3_4TypeEEEE3setINS3_11logic_errorEEERKT_SC_OS6_"
 "_ZN5boost16exception_detail11set_info_rvINS_10error_infoIN11imagefusion14tag_image_typeENS3_4TypeEEEE3setINS3_16image_type_errorEEERKT_SC_OS6_"
 "_ZN5boost16exception_detail11set_info_rvINS_10error_infoIN11imagefusion18tag_resolution_tagENSt7__cxx1112basic_stringIcSt11char_traitsIcESaIcEEEEEE3setINS3_15not_found_errorEEERKT_SH_OSB_"
 "_ZN5boost16exception_detail11set_info_rvINS_10error_infoIN11imagefusion8tag_dateEiEEE3setINS3_15not_found_errorEEERKT_SB_OS5_"
 "_ZN5boost16exception_detail11set_info_rvINS_10error_infoIN11imagefusion8tag_sizeEN2cv5Size_IiEEEEE3setINS3_10size_errorEEERKT_SE_OS8_"
 "_ZN5boost16exception_detail14bad_exception_D0Ev"
 "_ZN5boost16exception_detail14bad_exception_D1Ev"
 "_ZN5boost16exception_detail14bad_exception_D2Ev"
 "_ZN5boost16exception_detail20copy_boost_exceptionEPNS_9exceptionEPKS1_"
 "_ZN5boost16exception_detail25error_info_container_impl3setERKNS_10shared_ptrINS0_15error_info_baseEEERKNS0_10type_info_E"
 "_ZN5boost16exception_detail27get_static_exception_objectINS0_10bad_alloc_EEENS_13exception_ptrEv"
 "_ZN5boost16exception_detail27get_static_exception_objectINS0_14bad_exception_EEENS_13exception_ptrEv"
 "_ZN5boost16exception_detail37exception_ptr_static_exception_objectINS0_10bad_alloc_EE1eE"
 "_ZN5boost16exception_detail37exception_ptr_static_exception_objectINS0_14bad_exception_EE1eE"
 "_ZN5boost6detail15sp_counted_base7destroyEv"
 "_ZN5boost6detail15sp_counted_base7releaseEv"
 "_ZN5boost6detail17sp_counted_impl_pINS_10error_infoIN11imagefusion14tag_image_typeENS3_4TypeEEEE11get_deleterERKSt9type_info"
 "_ZN5boost6detail17sp_counted_impl_pINS_10error_infoIN11imagefusion14tag_image_typeENS3_4TypeEEEE17get_local_deleterERKSt9type_info"
 "_ZN5boost6detail17sp_counted_impl_pINS_10error_infoIN11imagefusion14tag_image_typeENS3_4TypeEEEE19get_untyped_deleterEv"
 "_ZN5boost6detail17sp_counted_impl_pINS_10error_infoIN11imagefusion14tag_image_typeENS3_4TypeEEEE7disposeEv"
 "_ZN5boost6detail17sp_counted_impl_pINS_10error_infoIN11imagefusion14tag_image_typeENS3_4TypeEEEED0Ev"
 "_ZN5boost6detail17sp_counted_impl_pINS_10error_infoIN11imagefusion14tag_image_typeENS3_4TypeEEEED1Ev"
 "_ZN5boost6detail17sp_counted_impl_pINS_10error_infoIN11imagefusion18tag_resolution_tagENSt7__cxx1112basic_stringIcSt11char_traitsIcESaIcEEEEEE11get_deleterERKSt9type_info"
 "_ZN5boost6detail17sp_counted_impl_pINS_10error_infoIN11imagefusion18tag_resolution_tagENSt7__cxx1112basic_stringIcSt11char_traitsIcESaIcEEEEEE17get_local_deleterERKSt9type_info"
 "_ZN5boost6detail17sp_counted_impl_pINS_10error_infoIN11imagefusion18tag_resolution_tagENSt7__cxx1112basic_stringIcSt11char_traitsIcESaIcEEEEEE19get_untyped_deleterEv"
 "_ZN5boost6detail17sp_counted_impl_pINS_10error_infoIN11imagefusion18tag_resolution_tagENSt7__cxx1112basic_stringIcSt11char_traitsIcESaIcEEEEEE7disposeEv"
 "_ZN5boost6detail17sp_counted_impl_pINS_10error_infoIN11imagefusion18tag_resolution_tagENSt7__cxx1112basic_stringIcSt11char_traitsIcESaIcEEEEEED0Ev"
 "_ZN5boost6detail17sp_counted_impl_pINS_10error_infoIN11imagefusion18tag_resolution_tagENSt7__cxx1112basic_stringIcSt11char_traitsIcESaIcEEEEEED1Ev"
 "_ZN5boost6detail17sp_counted_impl_pINS_10error_infoIN11imagefusion8tag_dateEiEEE11get_deleterERKSt9type_info"
 "_ZN5boost6detail17sp_counted_impl_pINS_10error_infoIN11imagefusion8tag_dateEiEEE17get_local_deleterERKSt9type_info"
 "_ZN5boost6detail17sp_counted_impl_pINS_10error_infoIN11imagefusion8tag_dateEiEEE19get_untyped_deleterEv"
 "_ZN5boost6detail17sp_counted_impl_pINS_10error_infoIN11imagefusion8tag_dateEiEEE7disposeEv"
 "_ZN5boost6detail17sp_counted_impl_pINS_10error_infoIN11imagefusion8tag_dateEiEEED0Ev"
 "_ZN5boost6detail17sp_counted_impl_pINS_10error_infoIN11imagefusion8tag_dateEiEEED1Ev"
 "_ZN5boost6detail17sp_counted_impl_pINS_10error_infoIN11imagefusion8tag_sizeEN2cv5Size_IiEEEEE11get_deleterERKSt9type_info"
 "_ZN5boost6detail17sp_counted_impl_pINS_10error_infoIN11imagefusion8tag_sizeEN2cv5Size_IiEEEEE17get_local_deleterERKSt9type_info"
 "_ZN5boost6detail17sp_counted_impl_pINS_10error_infoIN11imagefusion8tag_sizeEN2cv5Size_IiEEEEE19get_untyped_deleterEv"
 "_ZN5boost6detail17sp_counted_impl_pINS_10error_infoIN11imagefusion8tag_sizeEN2cv5Size_IiEEEEE7disposeEv"
 "_ZN5boost6detail17sp_counted_impl_pINS_10error_infoIN11imagefusion8tag_sizeEN2cv5Size_IiEEEEED0Ev"
 "_ZN5boost6detail17sp_counted_impl_pINS_10error_infoIN11imagefusion8tag_sizeEN2cv5Size_IiEEEEED1Ev"
 "_ZN5boost6detail17sp_counted_impl_pINS_16exception_detail10clone_implINS2_10bad_alloc_EEEE11get_deleterERKSt9type_info"
 "_ZN5boost6detail17sp_counted_impl_pINS_16exception_detail10clone_implINS2_10bad_alloc_EEEE17get_local_deleterERKSt9type_info"
 "_ZN5boost6detail17sp_counted_impl_pINS_16exception_detail10clone_implINS2_10bad_alloc_EEEE19get_untyped_deleterEv"
 "_ZN5boost6detail17sp_counted_impl_pINS_16exception_detail10clone_implINS2_10bad_alloc_EEEE7disposeEv"
 "_ZN5boost6detail17sp_counted_impl_pINS_16exception_detail10clone_implINS2_10bad_alloc_EEEED0Ev"
 "_ZN5boost6detail17sp_counted_impl_pINS_16exception_detail10clone_implINS2_10bad_alloc_EEEED1Ev"
 "_ZN5boost6detail17sp_counted_impl_pINS_16exception_detail10clone_implINS2_14bad_exception_EEEE11get_deleterERKSt9type_info"
 "_ZN5boost6detail17sp_counted_impl_pINS_16exception_detail10clone_implINS2_14bad_exception_EEEE17get_local_deleterERKSt9type_info"
 "_ZN5boost6detail17sp_counted_impl_pINS_16exception_detail10clone_implINS2_14bad_exception_EEEE19get_untyped_deleterEv"
 "_ZN5boost6detail17sp_counted_impl_pINS_16exception_detail10clone_implINS2_14bad_exception_EEEE7disposeEv"
 "_ZN5boost6detail17sp_counted_impl_pINS_16exception_detail10clone_implINS2_14bad_exception_EEEED0Ev"
 "_ZN5boost6detail17sp_counted_impl_pINS_16exception_detail10clone_implINS2_14bad_exception_EEEED1Ev"
 "_ZN5boost6detail17sp_counted_impl_pINS_16exception_detail15error_info_baseEE11get_deleterERKSt9type_info"
 "_ZN5boost6detail17sp_counted_impl_pINS_16exception_detail15error_info_baseEE17get_local_deleterERKSt9type_info"
 "_ZN5boost6detail17sp_counted_impl_pINS_16exception_detail15error_info_baseEE19get_untyped_deleterEv"
 "_ZN5boost6detail17sp_counted_impl_pINS_16exception_detail15error_info_baseEE7disposeEv"
 "_ZN5boost6detail17sp_counted_impl_pINS_16exception_detail15error_info_baseEED0Ev"
 "_ZN5boost6detail17sp_counted_impl_pINS_16exception_detail15error_info_baseEED1Ev"
 "_ZN5boost9to_stringIN11imagefusion18tag_resolution_tagENSt7__cxx1112basic_stringIcSt11char_traitsIcESaIcEEEEES8_RKNS_10error_infoIT_T0_EE"
 "_ZN5boost9to_stringIN11imagefusion8tag_dateEiEENSt7__cxx1112basic_stringIcSt11char_traitsIcESaIcEEERKNS_10error_infoIT_T0_EE"
 "_ZN5boost9to_stringIN11imagefusion8tag_sizeEN2cv5Size_IiEEEENSt7__cxx1112basic_stringIcSt11char_traitsIcESaIcEEERKNS_10error_infoIT_T0_EE"
 "_ZN9__gnu_cxx12__to_xstringINSt7__cxx1112basic_stringIcSt11char_traitsIcESaIcEEEcEET_PFiPT0_yPKS8_PcEySB_z"
 "_ZNK11imagefusion10ConstImage10sharedCopyEN2cv5Rect_IiEE"
 "_ZNK11imagefusion11SpstfmFusor10getOptionsEv"
 "_ZNK11imagefusion11SpstfmFusor16checkInputImagesERKNS_10ConstImageES3_ib"
 "_ZNK11imagefusion13SpstfmOptions8getDate1Ev"
 "_ZNK11imagefusion13SpstfmOptions8getDate3Ev"
 "_ZNK11imagefusion18MultiResCollectionINS_5ImageEE3getERKNSt7__cxx1112basic_stringIcSt11char_traitsIcESaIcEEEi"
 "_ZNK11imagefusion18MultiResCollectionINS_5ImageEE3hasERKNSt7__cxx1112basic_stringIcSt11char_traitsIcESaIcEEEi"
 "_ZNK11imagefusion18MultiResCollectionINS_5ImageEE6getAnyEv"
 "_ZNK11imagefusion18spstfm_impl_detail11DictTrainer10getSamplesERKNS_10ConstImageES4_N2cv5Rect_IiEEj"
 "_ZNK11imagefusion18spstfm_impl_detail11DictTrainer19reconstructPatchRowERKNS_10ConstImageES4_S4_S4_S4_ddjN2cv5Rect_IiEEj"
 "_ZNK11imagefusion9DataFusor11outputImageEv"
 "_ZNK11imagefusion9DataFusor9srcImagesEv"
 "_ZNK2cv3Mat5emptyEv"
 "_ZNK5boost10error_infoIN11imagefusion14tag_image_typeENS1_4TypeEE17name_value_stringB5cxx11Ev"
 "_ZNK5boost10error_infoIN11imagefusion14tag_image_typeENS1_4TypeEE5cloneEv"
 "_ZNK5boost10error_infoIN11imagefusion18tag_resolution_tagENSt7__cxx1112basic_stringIcSt11char_traitsIcESaIcEEEE17name_value_stringEv"
 "_ZNK5boost10error_infoIN11imagefusion18tag_resolution_tagENSt7__cxx1112basic_stringIcSt11char_traitsIcESaIcEEEE5cloneEv"
 "_ZNK5boost10error_infoIN11imagefusion8tag_dateEiE17name_value_stringB5cxx11Ev"
 "_ZNK5boost10error_infoIN11imagefusion8tag_dateEiE5cloneEv"
 "_ZNK5boost10error_infoIN11imagefusion8tag_sizeEN2cv5Size_IiEEE17name_value_stringB5cxx11Ev"
 "_ZNK5boost10error_infoIN11imagefusion8tag_sizeEN2cv5Size_IiEEE5cloneEv"
 "_ZNK5boost16exception_detail10clone_implINS0_10bad_alloc_EE5cloneEv"
 "_ZNK5boost16exception_detail10clone_implINS0_10bad_alloc_EE7rethrowEv"
 "_ZNK5boost16exception_detail10clone_implINS0_14bad_exception_EE5cloneEv"
 "_ZNK5boost16exception_detail10clone_implINS0_14bad_exception_EE7rethrowEv"
 "_ZNK5boost16exception_detail25error_info_container_impl22diagnostic_informationEPKc"
 "_ZNK5boost16exception_detail25error_info_container_impl3getERKNS0_10type_info_E"
 "_ZNK5boost16exception_detail25error_info_container_impl5cloneEv"
 "_ZNK5boost16exception_detail25error_info_container_impl7add_refEv"
 "_ZNK5boost16exception_detail25error_info_container_impl7releaseEv"
 "_ZNKSt8_Rb_treeINSt7__cxx1112basic_stringIcSt11char_traitsIcESaIcEEESt4pairIKS5_St3mapIiN11imagefusion5ImageESt4lessIiESaIS6_IKiSA_EEEESt10_Select1stISH_ESB_IS5_ESaISH_EE4findERS7_"
 "_ZNSt11char_traitsIcE6lengthEPKc"
 "_ZNSt4pairIN4arma3MatIdEES2_ED1Ev"
 "_ZNSt4pairISt6vectorIdSaIdEES2_ED1Ev"
 "_ZNSt6vectorIN11imagefusion5ImageESaIS1_EED1Ev"
 "_ZNSt6vectorIN4arma3MatIdEESaIS2_EE17_M_default_appendEy"
 "_ZNSt6vectorIN4arma3MatIdEESaIS2_EED1Ev"
 "_ZNSt6vectorIdSaIdEE12emplace_backIJdEEERdDpOT_"
 "_ZNSt6vectorIdSaIdEE17_M_realloc_insertIJRKdEEEvN9__gnu_cxx17__normal_iteratorIPdS1_EEDpOT_"
 "_ZNSt6vectorIdSaIdEE9push_backERKd"
 "_ZNSt6vectorIdSaIdEEaSERKS1_"
 "_ZNSt6vectorIySaIyEE17_M_default_appendEy"
 "_ZNSt7__cxx1112basic_stringIcSt11char_traitsIcESaIcEE10_M_replaceEyyPKcy"
 "_ZNSt7__cxx1112basic_stringIcSt11char_traitsIcESaIcEE12_M_constructIPKcEEvT_S8_St20forward_iterator_tag"
 "_ZNSt7__cxx1112basic_stringIcSt11char_traitsIcESaIcEE12_M_constructIPcEEvT_S7_St20forward_iterator_tag"
 "_ZNSt7__cxx1112basic_stringIcSt11char_traitsIcESaIcEE14_M_replace_auxEyyyc"
 "_ZNSt7__cxx1112basic_stringIcSt11char_traitsIcESaIcEE9_M_appendEPKcy"
 "_ZNSt7__cxx1112basic_stringIcSt11char_traitsIcESaIcEE9_M_assignERKS4_"
 "_ZNSt7__cxx1112basic_stringIcSt11char_traitsIcESaIcEE9_M_mutateEyyPKcy"
 "_ZNSt7__cxx1112basic_stringIcSt11char_traitsIcESaIcEED1Ev"
 "_ZNSt8_Rb_treeIN5boost16exception_detail10type_info_ESt4pairIKS2_NS0_10shared_ptrINS1_15error_info_baseEEEESt10_Select1stIS8_ESt4lessIS2_ESaIS8_EE14_M_insert_nodeEPSt18_Rb_tree_node_baseSG_PSt13_Rb_tree_nodeIS8_E"
 "_ZNSt8_Rb_treeIN5boost16exception_detail10type_info_ESt4pairIKS2_NS0_10shared_ptrINS1_15error_info_baseEEEESt10_Select1stIS8_ESt4lessIS2_ESaIS8_EE24_M_get_insert_unique_posERS4_"
 "_ZNSt8_Rb_treeIN5boost16exception_detail10type_info_ESt4pairIKS2_NS0_10shared_ptrINS1_15error_info_baseEEEESt10_Select1stIS8_ESt4lessIS2_ESaIS8_EE8_M_eraseEPSt13_Rb_tree_nodeIS8_E"
 "_ZStplIcSt11char_traitsIcESaIcEENSt7__cxx1112basic_stringIT_T0_T1_EEOS8_PKS5_"
 "_ZStplIcSt11char_traitsIcESaIcEENSt7__cxx1112basic_stringIT_T0_T1_EEOS8_RKS8_"
 "_ZStplIcSt11char_traitsIcESaIcEENSt7__cxx1112basic_stringIT_T0_T1_EEOS8_S9_"
 "_ZStplIcSt11char_traitsIcESaIcEENSt7__cxx1112basic_stringIT_T0_T1_EEPKS5_OS8_"
 "_ZStplIcSt11char_traitsIcESaIcEENSt7__cxx1112basic_stringIT_T0_T1_EEPKS5_RKS8_"
 "_ZTCN11imagefusion10size_errorE0_NS_13runtime_errorE"
 "_ZTCN11imagefusion15not_found_errorE0_NS_13runtime_errorE"
 "_ZTCN11imagefusion16image_type_errorE0_NS_13runtime_errorE"
 "_ZTCN11imagefusion22invalid_argument_errorE0_NS_13runtime_errorE"
 "_ZTIN11imagefusion10ConstImageE"
 "_ZTIN11imagefusion10size_errorE"
 "_ZTIN11imagefusion11SpstfmFusorE"
 "_ZTIN11imagefusion11logic_errorE"
 "_ZTIN11imagefusion13SpstfmOptionsE"
 "_ZTIN11imagefusion13runtime_errorE"
 "_ZTIN11imagefusion15not_found_errorE"
 "_ZTIN11imagefusion16image_type_errorE"
 "_ZTIN11imagefusion22invalid_argument_errorE"
 "_ZTIN11imagefusion5ImageE"
 "_ZTIN11imagefusion7OptionsE"
 "_ZTIN11imagefusion9DataFusorE"
 "_ZTIN5boost10error_infoIN11imagefusion14tag_image_typeENS1_4TypeEEE"
 "_ZTIN5boost10error_infoIN11imagefusion18tag_resolution_tagENSt7__cxx1112basic_stringIcSt11char_traitsIcESaIcEEEEE"
 "_ZTIN5boost10error_infoIN11imagefusion8tag_dateEiEE"
 "_ZTIN5boost10error_infoIN11imagefusion8tag_sizeEN2cv5Size_IiEEEE"
 "_ZTIN5boost16exception_detail10bad_alloc_E"
 "_ZTIN5boost16exception_detail10clone_baseE"
 "_ZTIN5boost16exception_detail10clone_implINS0_10bad_alloc_EEE"
 "_ZTIN5boost16exception_detail10clone_implINS0_14bad_exception_EEE"
 "_ZTIN5boost16exception_detail14bad_exception_E"
 "_ZTIN5boost16exception_detail15error_info_baseE"
 "_ZTIN5boost16exception_detail20error_info_containerE"
 "_ZTIN5boost16exception_detail25error_info_container_implE"
 "_ZTIN5boost6detail15sp_counted_baseE"
 "_ZTIN5boost6detail17sp_counted_impl_pINS_10error_infoIN11imagefusion14tag_image_typeENS3_4TypeEEEEE"
 "_ZTIN5boost6detail17sp_counted_impl_pINS_10error_infoIN11imagefusion18tag_resolution_tagENSt7__cxx1112basic_stringIcSt11char_traitsIcESaIcEEEEEEE"
 "_ZTIN5boost6detail17sp_counted_impl_pINS_10error_infoIN11imagefusion8tag_dateEiEEEE"
 "_ZTIN5boost6detail17sp_counted_impl_pINS_10error_infoIN11imagefusion8tag_sizeEN2cv5Size_IiEEEEEE"
 "_ZTIN5boost6detail17sp_counted_impl_pINS_16exception_detail10clone_implINS2_10bad_alloc_EEEEE"
 "_ZTIN5boost6detail17sp_counted_impl_pINS_16exception_detail10clone_implINS2_14bad_exception_EEEEE"
 "_ZTIN5boost6detail17sp_counted_impl_pINS_16exception_detail15error_info_baseEEE"
 "_ZTIN5boost9exceptionE"
 "_ZTISt11logic_error"
 "_ZTISt13bad_exception"
 "_ZTISt13runtime_error"
 "_ZTISt9bad_alloc"
 "_ZTISt9exception"
 "_ZTSN11imagefusion10ConstImageE"
 "_ZTSN11imagefusion10size_errorE"
 "_ZTSN11imagefusion11SpstfmFusorE"
 "_ZTSN11imagefusion11logic_errorE"
 "_ZTSN11imagefusion13SpstfmOptionsE"
 "_ZTSN11imagefusion13runtime_errorE"
 "_ZTSN11imagefusion15not_found_errorE"
 "_ZTSN11imagefusion16image_type_errorE"
 "_ZTSN11imagefusion22invalid_argument_errorE"
 "_ZTSN11imagefusion5ImageE"
 "_ZTSN11imagefusion7OptionsE"
 "_ZTSN11imagefusion9DataFusorE"
 "_ZTSN5boost10error_infoIN11imagefusion14tag_image_typeENS1_4TypeEEE"
 "_ZTSN5boost10error_infoIN11imagefusion18tag_resolution_tagENSt7__cxx1112basic_stringIcSt11char_traitsIcESaIcEEEEE"
 "_ZTSN5boost10error_infoIN11imagefusion8tag_dateEiEE"
 "_ZTSN5boost10error_infoIN11imagefusion8tag_sizeEN2cv5Size_IiEEEE"
 "_ZTSN5boost16exception_detail10bad_alloc_E"
 "_ZTSN5boost16exception_detail10clone_baseE"
 "_ZTSN5boost16exception_detail10clone_implINS0_10bad_alloc_EEE"
 "_ZTSN5boost16exception_detail10clone_implINS0_14bad_exception_EEE"
 "_ZTSN5boost16exception_detail14bad_exception_E"
 "_ZTSN5boost16exception_detail15error_info_baseE"
 "_ZTSN5boost16exception_detail20error_info_containerE"
 "_ZTSN5boost16exception_detail25error_info_container_implE"
 "_ZTSN5boost6detail15sp_counted_baseE"
 "_ZTSN5boost6detail17sp_counted_impl_pINS_10error_infoIN11imagefusion14tag_image_typeENS3_4TypeEEEEE"
 "_ZTSN5boost6detail17sp_counted_impl_pINS_10error_infoIN11imagefusion18tag_resolution_tagENSt7__cxx1112basic_stringIcSt11char_traitsIcESaIcEEEEEEE"
 "_ZTSN5boost6detail17sp_counted_impl_pINS_10error_infoIN11imagefusion8tag_dateEiEEEE"
 "_ZTSN5boost6detail17sp_counted_impl_pINS_10error_infoIN11imagefusion8tag_sizeEN2cv5Size_IiEEEEEE"
 "_ZTSN5boost6detail17sp_counted_impl_pINS_16exception_detail10clone_implINS2_10bad_alloc_EEEEE"
 "_ZTSN5boost6detail17sp_counted_impl_pINS_16exception_detail10clone_implINS2_14bad_exception_EEEEE"
 "_ZTSN5boost6detail17sp_counted_impl_pINS_16exception_detail15error_info_baseEEE"
 "_ZTSN5boost9exceptionE"
 "_ZTSPN11imagefusion14tag_image_typeE"
 "_ZTSPN11imagefusion18tag_resolution_tagE"
 "_ZTSPN11imagefusion8tag_dateE"
 "_ZTSPN11imagefusion8tag_sizeE"
 "_ZTSSt11logic_error"
 "_ZTSSt13bad_exception"
 "_ZTSSt13runtime_error"
 "_ZTSSt9bad_alloc"
 "_ZTSSt9exception"
 "_ZTTN11imagefusion10size_errorE"
 "_ZTTN11imagefusion11logic_errorE"
 "_ZTTN11imagefusion13runtime_errorE"
 "_ZTTN11imagefusion15not_found_errorE"
 "_ZTTN11imagefusion16image_type_errorE"
 "_ZTTN11imagefusion22invalid_argument_errorE"
 "_ZTTN5boost16exception_detail10clone_implINS0_10bad_alloc_EEE"
 "_ZTTN5boost16exception_detail10clone_implINS0_14bad_exception_EEE"
 "_ZTVN11imagefusion10ConstImageE"
 "_ZTVN11imagefusion10size_errorE"
 "_ZTVN11imagefusion11SpstfmFusorE"
 "_ZTVN11imagefusion11logic_errorE"
 "_ZTVN11imagefusion13SpstfmOptionsE"
 "_ZTVN11imagefusion13runtime_errorE"
 "_ZTVN11imagefusion15not_found_errorE"
 "_ZTVN11imagefusion16image_type_errorE"
 "_ZTVN11imagefusion22invalid_argument_errorE"
 "_ZTVN11imagefusion5ImageE"
 "_ZTVN11imagefusion9DataFusorE"
 "_ZTVN5boost10error_infoIN11imagefusion14tag_image_typeENS1_4TypeEEE"
 "_ZTVN5boost10error_infoIN11imagefusion18tag_resolution_tagENSt7__cxx1112basic_stringIcSt11char_traitsIcESaIcEEEEE"
 "_ZTVN5boost10error_infoIN11imagefusion8tag_dateEiEE"
 "_ZTVN5boost10error_infoIN11imagefusion8tag_sizeEN2cv5Size_IiEEEE"
 "_ZTVN5boost16exception_detail10bad_alloc_E"
 "_ZTVN5boost16exception_detail10clone_baseE"
 "_ZTVN5boost16exception_detail10clone_implINS0_10bad_alloc_EEE"
 "_ZTVN5boost16exception_detail10clone_implINS0_14bad_exception_EEE"
 "_ZTVN5boost16exception_detail14bad_exception_E"
 "_ZTVN5boost16exception_detail25error_info_container_implE"
 "_ZTVN5boost6detail17sp_counted_impl_pINS_10error_infoIN11imagefusion14tag_image_typeENS3_4TypeEEEEE"
 "_ZTVN5boost6detail17sp_counted_impl_pINS_10error_infoIN11imagefusion18tag_resolution_tagENSt7__cxx1112basic_stringIcSt11char_traitsIcESaIcEEEEEEE"
 "_ZTVN5boost6detail17sp_counted_impl_pINS_10error_infoIN11imagefusion8tag_dateEiEEEE"
 "_ZTVN5boost6detail17sp_counted_impl_pINS_10error_infoIN11imagefusion8tag_sizeEN2cv5Size_IiEEEEEE"
 "_ZTVN5boost6detail17sp_counted_impl_pINS_16exception_detail10clone_implINS2_10bad_alloc_EEEEE"
 "_ZTVN5boost6detail17sp_counted_impl_pINS_16exception_detail10clone_implINS2_14bad_exception_EEEEE"
 "_ZTVN5boost6detail17sp_counted_impl_pINS_16exception_detail15error_info_baseEEE"
 "_ZTVN5boost9exceptionE"
 "_ZThn40_N5boost16exception_detail10bad_alloc_D0Ev"
 "_ZThn40_N5boost16exception_detail10bad_alloc_D1Ev"
 "_ZThn40_N5boost16exception_detail10clone_implINS0_10bad_alloc_EED0Ev"
 "_ZThn40_N5boost16exception_detail10clone_implINS0_10bad_alloc_EED1Ev"
 "_ZThn40_N5boost16exception_detail10clone_implINS0_14bad_exception_EED0Ev"
 "_ZThn40_N5boost16exception_detail10clone_implINS0_14bad_exception_EED1Ev"
 "_ZThn40_N5boost16exception_detail14bad_exception_D0Ev"
 "_ZThn40_N5boost16exception_detail14bad_exception_D1Ev"
 "_ZTv0_n24_N11imagefusion10size_errorD0Ev"
 "_ZTv0_n24_N11imagefusion10size_errorD1Ev"
 "_ZTv0_n24_N11imagefusion11logic_errorD0Ev"
 "_ZTv0_n24_N11imagefusion11logic_errorD1Ev"
 "_ZTv0_n24_N11imagefusion13runtime_errorD0Ev"
 "_ZTv0_n24_N11imagefusion13runtime_errorD1Ev"
 "_ZTv0_n24_N11imagefusion15not_found_errorD0Ev"
 "_ZTv0_n24_N11imagefusion15not_found_errorD1Ev"
 "_ZTv0_n24_N11imagefusion16image_type_errorD0Ev"
 "_ZTv0_n24_N11imagefusion16image_type_errorD1Ev"
 "_ZTv0_n24_N11imagefusion22invalid_argument_errorD0Ev"
 "_ZTv0_n24_N11imagefusion22invalid_argument_errorD1Ev"
 "_ZTv0_n24_NK5boost16exception_detail10clone_implINS0_10bad_alloc_EE5cloneEv"
 "_ZTv0_n24_NK5boost16exception_detail10clone_implINS0_14bad_exception_EE5cloneEv"
 "_ZTv0_n32_NK5boost16exception_detail10clone_implINS0_10bad_alloc_EE7rethrowEv"
 "_ZTv0_n32_NK5boost16exception_detail10clone_implINS0_14bad_exception_EE7rethrowEv"
 "_ZTv0_n40_N11imagefusion10size_errorD0Ev"
 "_ZTv0_n40_N11imagefusion10size_errorD1Ev"
 "_ZTv0_n40_N11imagefusion15not_found_errorD0Ev"
 "_ZTv0_n40_N11imagefusion15not_found_errorD1Ev"
 "_ZTv0_n40_N11imagefusion16image_type_errorD0Ev"
 "_ZTv0_n40_N11imagefusion16image_type_errorD1Ev"
 "_ZTv0_n40_N11imagefusion22invalid_argument_errorD0Ev"
 "_ZTv0_n40_N11imagefusion22invalid_argument_errorD1Ev"
 "_ZTv0_n40_N5boost16exception_detail10clone_implINS0_10bad_alloc_EED0Ev"
 "_ZTv0_n40_N5boost16exception_detail10clone_implINS0_10bad_alloc_EED1Ev"
 "_ZTv0_n40_N5boost16exception_detail10clone_implINS0_14bad_exception_EED0Ev"
 "_ZTv0_n40_N5boost16exception_detail10clone_implINS0_14bad_exception_EED1Ev"
 "_ZZN4arma16arma_cerr_streamIcEERSoPSoE11cerr_stream"
 "_ZZN5boost16exception_detail27get_static_exception_objectINS0_10bad_alloc_EEENS_13exception_ptrEvE2ep"
 "_ZZN5boost16exception_detail27get_static_exception_objectINS0_14bad_exception_EEENS_13exception_ptrEvE2ep"
 "_ZGVN5boost16exception_detail37exception_ptr_static_exception_objectINS0_10bad_alloc_EE1eE"
 "_ZGVN5boost16exception_detail37exception_ptr_static_exception_objectINS0_14bad_exception_EE1eE"
 "_ZGVN7cvflann7anyimpl12SinglePolicyINS0_9empty_anyEE6policyE"
 "_ZGVN7cvflann7anyimpl12SinglePolicyINS_17flann_algorithm_tEE6policyE"
 "_ZGVN7cvflann7anyimpl12SinglePolicyINS_20flann_centers_init_tEE6policyE"
 "_ZGVN7cvflann7anyimpl12SinglePolicyINSt7__cxx1112basic_stringIcSt11char_traitsIcESaIcEEEE6policyE"
 "_ZGVN7cvflann7anyimpl12SinglePolicyIPKcE6policyE"
 "_ZGVN7cvflann7anyimpl12SinglePolicyIbE6policyE"
 "_ZGVN7cvflann7anyimpl12SinglePolicyIfE6policyE"
 "_ZGVN7cvflann7anyimpl12SinglePolicyIiE6policyE"
 "_ZGVN7cvflann7anyimpl12SinglePolicyIjE6policyE"
 "_ZGVZN5boost16exception_detail27get_static_exception_objectINS0_10bad_alloc_EEENS_13exception_ptrEvE2ep"
 "_ZGVZN5boost16exception_detail27get_static_exception_objectINS0_14bad_exception_EEENS_13exception_ptrEvE2ep"
 "_ZGVZN5boost3icl16identity_elementINS0_19continuous_intervalIdSt4lessEEE5valueEvE6_value"
 "_ZN11imagefusion10ConstImage17adjustCropBordersEiiii"
 "_ZN11imagefusion10ConstImage4cropEN2cv5Rect_IiEE"
 "_ZN11imagefusion10ConstImage6uncropEv"
 "_ZN11imagefusion10ConstImageC2EiiNS_4TypeE"
 "_ZN11imagefusion10ConstImageD0Ev"
 "_ZN11imagefusion10ConstImageD1Ev"
 "_ZN11imagefusion10size_errorC1ERKS0_"
 "_ZN11imagefusion10size_errorD0Ev"
 "_ZN11imagefusion10size_errorD1Ev"
 "_ZN11imagefusion10toBaseTypeE12GDALDataType"
 "_ZN11imagefusion10toFullTypeEi"
 "_ZN11imagefusion11getFullTypeENS_4TypeEh"
 "_ZN11imagefusion11logic_errorC1ERKS0_"
 "_ZN11imagefusion11logic_errorD0Ev"
 "_ZN11imagefusion11logic_errorD1Ev"
 "_ZN11imagefusion13getFromStringB5cxx11ENS_12ColorMappingE"
 "_ZN11imagefusion13runtime_errorC1ERKS0_"
 "_ZN11imagefusion13runtime_errorD0Ev"
 "_ZN11imagefusion13runtime_errorD1Ev"
 "_ZN11imagefusion16discretizeBoundsEN5boost3icl12interval_setIdSt4lessNS1_19continuous_intervalIdS3_EESaEE"
 "_ZN11imagefusion16image_type_errorC1ERKS0_"
 "_ZN11imagefusion16image_type_errorD0Ev"
 "_ZN11imagefusion16image_type_errorD1Ev"
 "_ZN11imagefusion17file_format_errorC1ERKS0_"
 "_ZN11imagefusion17file_format_errorD0Ev"
 "_ZN11imagefusion17file_format_errorD1Ev"
 "_ZN11imagefusion22invalid_argument_errorC1ERKS0_"
 "_ZN11imagefusion22invalid_argument_errorD0Ev"
 "_ZN11imagefusion22invalid_argument_errorD1Ev"
 "_ZN11imagefusion5Image13asGDALDatasetEv"
 "_ZN11imagefusion5Image14copyValuesFromERKNS_10ConstImageES3_"
 "_ZN11imagefusion5Image3setERKSt6vectorIdSaIdEERKNS_10ConstImageE"
 "_ZN11imagefusion5Image3setEdRKNS_10ConstImageE"
 "_ZN11imagefusion5Image4readERKNSt7__cxx1112basic_stringIcSt11char_traitsIcESaIcEEESt6vectorIiSaIiEEN2cv5Rect_IiEEbbbNS_12InterpMethodE"
 "_ZN11imagefusion5ImageC1EOS0_"
 "_ZN11imagefusion5ImageD0Ev"
 "_ZN11imagefusion5ImageD1Ev"
 "_ZN11imagefusion5mergeERKSt6vectorINS_10ConstImageESaIS1_EE"
 "_ZN11imagefusion5mergeERKSt6vectorINS_5ImageESaIS1_EE"
 "_ZN11imagefusion7GeoInfoD1Ev"
 "_ZN11imagefusion8toCVTypeENS_4TypeE"
 "_ZN11imagefusion9to_stringB5cxx11ENS_4TypeE"
 "_ZN11imagefusion9to_stringB5cxx11ERKN2cv5Rect_IiEE"
 "_ZN11imagefusion9to_stringB5cxx11ERKN2cv5Size_IiEE"
 "_ZN2cv16MatConstIteratorC2EPKNS_3MatE"
 "_ZN2cv3MatC1ERKS0_"
 "_ZN2cv3MatD1Ev"
 "_ZN2cv7MatExprD1Ev"
 "_ZN5boost10error_infoIN11imagefusion14tag_image_typeENS1_4TypeEED0Ev"
 "_ZN5boost10error_infoIN11imagefusion14tag_image_typeENS1_4TypeEED1Ev"
 "_ZN5boost10error_infoIN11imagefusion15tag_file_formatENSt7__cxx1112basic_stringIcSt11char_traitsIcESaIcEEEED0Ev"
 "_ZN5boost10error_infoIN11imagefusion15tag_file_formatENSt7__cxx1112basic_stringIcSt11char_traitsIcESaIcEEEED1Ev"
 "_ZN5boost10error_infoIN11imagefusion8tag_sizeEN2cv5Size_IiEEED0Ev"
 "_ZN5boost10error_infoIN11imagefusion8tag_sizeEN2cv5Size_IiEEED1Ev"
 "_ZN5boost10error_infoINS_18errinfo_file_name_ENSt7__cxx1112basic_stringIcSt11char_traitsIcESaIcEEEED0Ev"
 "_ZN5boost10error_infoINS_18errinfo_file_name_ENSt7__cxx1112basic_stringIcSt11char_traitsIcESaIcEEEED1Ev"
 "_ZN5boost16exception_detail10bad_alloc_D0Ev"
 "_ZN5boost16exception_detail10bad_alloc_D1Ev"
 "_ZN5boost16exception_detail10bad_alloc_D2Ev"
 "_ZN5boost16exception_detail10clone_implINS0_10bad_alloc_EED0Ev"
 "_ZN5boost16exception_detail10clone_implINS0_10bad_alloc_EED1Ev"
 "_ZN5boost16exception_detail10clone_implINS0_14bad_exception_EED0Ev"
 "_ZN5boost16exception_detail10clone_implINS0_14bad_exception_EED1Ev"
 "_ZN5boost16exception_detail11set_info_rvINS_10error_infoIN11imagefusion14tag_image_typeENS3_4TypeEEEE3setINS3_11logic_errorEEERKT_SC_OS6_"
 "_ZN5boost16exception_detail11set_info_rvINS_10error_infoIN11imagefusion14tag_image_typeENS3_4TypeEEEE3setINS3_13runtime_errorEEERKT_SC_OS6_"
 "_ZN5boost16exception_detail11set_info_rvINS_10error_infoIN11imagefusion14tag_image_typeENS3_4TypeEEEE3setINS3_16image_type_errorEEERKT_SC_OS6_"
 "_ZN5boost16exception_detail11set_info_rvINS_10error_infoIN11imagefusion14tag_image_typeENS3_4TypeEEEE3setINS3_22invalid_argument_errorEEERKT_SC_OS6_"
 "_ZN5boost16exception_detail11set_info_rvINS_10error_infoIN11imagefusion15tag_file_formatENSt7__cxx1112basic_stringIcSt11char_traitsIcESaIcEEEEEE3setINS3_13runtime_errorEEERKT_SH_OSB_"
 "_ZN5boost16exception_detail11set_info_rvINS_10error_infoIN11imagefusion15tag_file_formatENSt7__cxx1112basic_stringIcSt11char_traitsIcESaIcEEEEEE3setINS_9exceptionEEERKT_SH_OSB_"
 "_ZN5boost16exception_detail11set_info_rvINS_10error_infoIN11imagefusion8tag_sizeEN2cv5Size_IiEEEEE3setINS3_10size_errorEEERKT_SE_OS8_"
 "_ZN5boost16exception_detail11set_info_rvINS_10error_infoINS_18errinfo_file_name_ENSt7__cxx1112basic_stringIcSt11char_traitsIcESaIcEEEEEE3setIN11imagefusion10size_errorEEERKT_SH_OSA_"
 "_ZN5boost16exception_detail11set_info_rvINS_10error_infoINS_18errinfo_file_name_ENSt7__cxx1112basic_stringIcSt11char_traitsIcESaIcEEEEEE3setIN11imagefusion13runtime_errorEEERKT_SH_OSA_"
 "_ZN5boost16exception_detail11set_info_rvINS_10error_infoINS_18errinfo_file_name_ENSt7__cxx1112basic_stringIcSt11char_traitsIcESaIcEEEEEE3setIN11imagefusion16image_type_errorEEERKT_SH_OSA_"
 "_ZN5boost16exception_detail11set_info_rvINS_10error_infoINS_18errinfo_file_name_ENSt7__cxx1112basic_stringIcSt11char_traitsIcESaIcEEEEEE3setIN11imagefusion17file_format_errorEEERKT_SH_OSA_"
 "_ZN5boost16exception_detail14bad_exception_D0Ev"
 "_ZN5boost16exception_detail14bad_exception_D1Ev"
 "_ZN5boost16exception_detail14bad_exception_D2Ev"
 "_ZN5boost16exception_detail20copy_boost_exceptionEPNS_9exceptionEPKS1_"
 "_ZN5boost16exception_detail25error_info_container_impl3setERKNS_10shared_ptrINS0_15error_info_baseEEERKNS0_10type_info_E"
 "_ZN5boost16exception_detail27get_static_exception_objectINS0_10bad_alloc_EEENS_13exception_ptrEv"
 "_ZN5boost16exception_detail27get_static_exception_objectINS0_14bad_exception_EEENS_13exception_ptrEv"
 "_ZN5boost16exception_detail37exception_ptr_static_exception_objectINS0_10bad_alloc_EE1eE"
 "_ZN5boost16exception_detail37exception_ptr_static_exception_objectINS0_14bad_exception_EE1eE"
 "_ZN5boost3icl16add_intersectionINS0_12interval_setIdSt4lessNS0_19continuous_intervalIdS3_EESaEEEENS_9enable_ifINS0_15is_interval_setIT_EEvE4typeERS9_RKS9_RKNS9_12segment_typeE"
 "_ZN5boost3icl4hullINS0_17discrete_intervalIiSt4lessEEEENS_9enable_ifINS0_18has_dynamic_boundsIT_EES7_E4typeES7_RKS7_"
 "_ZN5boost3icl4hullINS0_19continuous_intervalIdSt4lessEEEENS_9enable_ifINS0_18has_dynamic_boundsIT_EES7_E4typeES7_RKS7_"
 "_ZN5boost3icl9segmental10join_rightINS0_12interval_setIdSt4lessNS0_19continuous_intervalIdS4_EESaEEEENT_8iteratorERS8_RS9_"
 "_ZN5boost3icl9segmental10join_rightINS0_12interval_setIiSt4lessNS0_17discrete_intervalIiS4_EESaEEEENT_8iteratorERS8_RS9_"
 "_ZN5boost3icl9segmental9join_leftINS0_12interval_setIdSt4lessNS0_19continuous_intervalIdS4_EESaEEEENT_8iteratorERS8_RS9_"
 "_ZN5boost3icl9segmental9join_leftINS0_12interval_setIiSt4lessNS0_17discrete_intervalIiS4_EESaEEEENT_8iteratorERS8_RS9_"
 "_ZN5boost3iclaNINS0_12interval_setIdSt4lessNS0_19continuous_intervalIdS3_EESaEES5_EERNS_9enable_ifINS0_25is_right_inter_combinableIT_T0_EES9_E4typeERS9_RKSA_"
 "_ZN5boost3icllsIcSt11char_traitsIcENS0_19continuous_intervalIdSt4lessEEEERNS_9enable_ifINS0_11is_intervalIT1_EESt13basic_ostreamIT_T0_EE4typeERSE_RKS9_"
 "_ZN5boost6detail15sp_counted_base7destroyEv"
 "_ZN5boost6detail15sp_counted_base7releaseEv"
 "_ZN5boost6detail17sp_counted_impl_pINS_10error_infoIN11imagefusion14tag_image_typeENS3_4TypeEEEE11get_deleterERKSt9type_info"
 "_ZN5boost6detail17sp_counted_impl_pINS_10error_infoIN11imagefusion14tag_image_typeENS3_4TypeEEEE17get_local_deleterERKSt9type_info"
 "_ZN5boost6detail17sp_counted_impl_pINS_10error_infoIN11imagefusion14tag_image_typeENS3_4TypeEEEE19get_untyped_deleterEv"
 "_ZN5boost6detail17sp_counted_impl_pINS_10error_infoIN11imagefusion14tag_image_typeENS3_4TypeEEEE7disposeEv"
 "_ZN5boost6detail17sp_counted_impl_pINS_10error_infoIN11imagefusion14tag_image_typeENS3_4TypeEEEED0Ev"
 "_ZN5boost6detail17sp_counted_impl_pINS_10error_infoIN11imagefusion14tag_image_typeENS3_4TypeEEEED1Ev"
 "_ZN5boost6detail17sp_counted_impl_pINS_10error_infoIN11imagefusion15tag_file_formatENSt7__cxx1112basic_stringIcSt11char_traitsIcESaIcEEEEEE11get_deleterERKSt9type_info"
 "_ZN5boost6detail17sp_counted_impl_pINS_10error_infoIN11imagefusion15tag_file_formatENSt7__cxx1112basic_stringIcSt11char_traitsIcESaIcEEEEEE17get_local_deleterERKSt9type_info"
 "_ZN5boost6detail17sp_counted_impl_pINS_10error_infoIN11imagefusion15tag_file_formatENSt7__cxx1112basic_stringIcSt11char_traitsIcESaIcEEEEEE19get_untyped_deleterEv"
 "_ZN5boost6detail17sp_counted_impl_pINS_10error_infoIN11imagefusion15tag_file_formatENSt7__cxx1112basic_stringIcSt11char_traitsIcESaIcEEEEEE7disposeEv"
 "_ZN5boost6detail17sp_counted_impl_pINS_10error_infoIN11imagefusion15tag_file_formatENSt7__cxx1112basic_stringIcSt11char_traitsIcESaIcEEEEEED0Ev"
 "_ZN5boost6detail17sp_counted_impl_pINS_10error_infoIN11imagefusion15tag_file_formatENSt7__cxx1112basic_stringIcSt11char_traitsIcESaIcEEEEEED1Ev"
 "_ZN5boost6detail17sp_counted_impl_pINS_10error_infoIN11imagefusion8tag_sizeEN2cv5Size_IiEEEEE11get_deleterERKSt9type_info"
 "_ZN5boost6detail17sp_counted_impl_pINS_10error_infoIN11imagefusion8tag_sizeEN2cv5Size_IiEEEEE17get_local_deleterERKSt9type_info"
 "_ZN5boost6detail17sp_counted_impl_pINS_10error_infoIN11imagefusion8tag_sizeEN2cv5Size_IiEEEEE19get_untyped_deleterEv"
 "_ZN5boost6detail17sp_counted_impl_pINS_10error_infoIN11imagefusion8tag_sizeEN2cv5Size_IiEEEEE7disposeEv"
 "_ZN5boost6detail17sp_counted_impl_pINS_10error_infoIN11imagefusion8tag_sizeEN2cv5Size_IiEEEEED0Ev"
 "_ZN5boost6detail17sp_counted_impl_pINS_10error_infoIN11imagefusion8tag_sizeEN2cv5Size_IiEEEEED1Ev"
 "_ZN5boost6detail17sp_counted_impl_pINS_10error_infoINS_18errinfo_file_name_ENSt7__cxx1112basic_stringIcSt11char_traitsIcESaIcEEEEEE11get_deleterERKSt9type_info"
 "_ZN5boost6detail17sp_counted_impl_pINS_10error_infoINS_18errinfo_file_name_ENSt7__cxx1112basic_stringIcSt11char_traitsIcESaIcEEEEEE17get_local_deleterERKSt9type_info"
 "_ZN5boost6detail17sp_counted_impl_pINS_10error_infoINS_18errinfo_file_name_ENSt7__cxx1112basic_stringIcSt11char_traitsIcESaIcEEEEEE19get_untyped_deleterEv"
 "_ZN5boost6detail17sp_counted_impl_pINS_10error_infoINS_18errinfo_file_name_ENSt7__cxx1112basic_stringIcSt11char_traitsIcESaIcEEEEEE7disposeEv"
 "_ZN5boost6detail17sp_counted_impl_pINS_10error_infoINS_18errinfo_file_name_ENSt7__cxx1112basic_stringIcSt11char_traitsIcESaIcEEEEEED0Ev"
 "_ZN5boost6detail17sp_counted_impl_pINS_10error_infoINS_18errinfo_file_name_ENSt7__cxx1112basic_stringIcSt11char_traitsIcESaIcEEEEEED1Ev"
 "_ZN5boost6detail17sp_counted_impl_pINS_16exception_detail10clone_implINS2_10bad_alloc_EEEE11get_deleterERKSt9type_info"
 "_ZN5boost6detail17sp_counted_impl_pINS_16exception_detail10clone_implINS2_10bad_alloc_EEEE17get_local_deleterERKSt9type_info"
 "_ZN5boost6detail17sp_counted_impl_pINS_16exception_detail10clone_implINS2_10bad_alloc_EEEE19get_untyped_deleterEv"
 "_ZN5boost6detail17sp_counted_impl_pINS_16exception_detail10clone_implINS2_10bad_alloc_EEEE7disposeEv"
 "_ZN5boost6detail17sp_counted_impl_pINS_16exception_detail10clone_implINS2_10bad_alloc_EEEED0Ev"
 "_ZN5boost6detail17sp_counted_impl_pINS_16exception_detail10clone_implINS2_10bad_alloc_EEEED1Ev"
 "_ZN5boost6detail17sp_counted_impl_pINS_16exception_detail10clone_implINS2_14bad_exception_EEEE11get_deleterERKSt9type_info"
 "_ZN5boost6detail17sp_counted_impl_pINS_16exception_detail10clone_implINS2_14bad_exception_EEEE17get_local_deleterERKSt9type_info"
 "_ZN5boost6detail17sp_counted_impl_pINS_16exception_detail10clone_implINS2_14bad_exception_EEEE19get_untyped_deleterEv"
 "_ZN5boost6detail17sp_counted_impl_pINS_16exception_detail10clone_implINS2_14bad_exception_EEEE7disposeEv"
 "_ZN5boost6detail17sp_counted_impl_pINS_16exception_detail10clone_implINS2_14bad_exception_EEEED0Ev"
 "_ZN5boost6detail17sp_counted_impl_pINS_16exception_detail10clone_implINS2_14bad_exception_EEEED1Ev"
 "_ZN5boost6detail17sp_counted_impl_pINS_16exception_detail15error_info_baseEE11get_deleterERKSt9type_info"
 "_ZN5boost6detail17sp_counted_impl_pINS_16exception_detail15error_info_baseEE17get_local_deleterERKSt9type_info"
 "_ZN5boost6detail17sp_counted_impl_pINS_16exception_detail15error_info_baseEE19get_untyped_deleterEv"
 "_ZN5boost6detail17sp_counted_impl_pINS_16exception_detail15error_info_baseEE7disposeEv"
 "_ZN5boost6detail17sp_counted_impl_pINS_16exception_detail15error_info_baseEED0Ev"
 "_ZN5boost6detail17sp_counted_impl_pINS_16exception_detail15error_info_baseEED1Ev"
 "_ZN5boost9to_stringIN11imagefusion15tag_file_formatENSt7__cxx1112basic_stringIcSt11char_traitsIcESaIcEEEEES8_RKNS_10error_infoIT_T0_EE"
 "_ZN5boost9to_stringIN11imagefusion8tag_sizeEN2cv5Size_IiEEEENSt7__cxx1112basic_stringIcSt11char_traitsIcESaIcEEERKNS_10error_infoIT_T0_EE"
 "_ZN5boost9to_stringINS_18errinfo_file_name_ENSt7__cxx1112basic_stringIcSt11char_traitsIcESaIcEEEEES7_RKNS_10error_infoIT_T0_EE"
 "_ZN9__gnu_cxx12__to_xstringINSt7__cxx1112basic_stringIcSt11char_traitsIcESaIcEEEcEET_PFiPT0_yPKS8_PcEySB_z"
 "_ZNK11imagefusion10ConstImage10meanStdDevERKS0_b"
 "_ZNK11imagefusion10ConstImage10sharedCopyEN2cv5Rect_IiEE"
 "_ZNK11imagefusion10ConstImage12convertColorENS_12ColorMappingENS_4TypeESt6vectorIjSaIjEE"
 "_ZNK11imagefusion10ConstImage13asGDALDatasetEv"
 "_ZNK11imagefusion10ConstImage13getCropWindowEv"
 "_ZNK11imagefusion10ConstImage15getOriginalSizeEv"
 "_ZNK11imagefusion10ConstImage15minMaxLocationsERKS0_"
 "_ZNK11imagefusion10ConstImage15uniqueWithCountERKS0_"
 "_ZNK11imagefusion10ConstImage29createMultiChannelMaskFromSetERKSt6vectorIN5boost3icl12interval_setIdSt4lessNS3_19continuous_intervalIdS5_EESaEESaIS8_EE"
 "_ZNK11imagefusion10ConstImage30createSingleChannelMaskFromSetERKSt6vectorIN5boost3icl12interval_setIdSt4lessNS3_19continuous_intervalIdS5_EESaEESaIS8_EEb"
 "_ZNK11imagefusion10ConstImage31createMultiChannelMaskFromRangeERKSt6vectorIN5boost3icl19continuous_intervalIdSt4lessEESaIS6_EE"
 "_ZNK11imagefusion10ConstImage32createSingleChannelMaskFromRangeERKSt6vectorIN5boost3icl19continuous_intervalIdSt4lessEESaIS6_EEb"
 "_ZNK11imagefusion10ConstImage3addERKS0_NS_4TypeE"
 "_ZNK11imagefusion10ConstImage3endIhEEN2cv17MatConstIterator_IT_EEv"
 "_ZNK11imagefusion10ConstImage4meanERKS0_"
 "_ZNK11imagefusion10ConstImage4warpERKNS_7GeoInfoES3_NS_12InterpMethodE"
 "_ZNK11imagefusion10ConstImage5cloneERKN2cv5Rect_IiEE"
 "_ZNK11imagefusion10ConstImage5cloneERKN2cv6Point_IdEENS1_5Size_IiEE"
 "_ZNK11imagefusion10ConstImage5cloneEv"
 "_ZNK11imagefusion10ConstImage5splitESt6vectorIjSaIjEE"
 "_ZNK11imagefusion10ConstImage5writeERKNSt7__cxx1112basic_stringIcSt11char_traitsIcESaIcEEERKNS_7GeoInfoENS_10FileFormatE"
 "_ZNK11imagefusion10ConstImage5writeERKNSt7__cxx1112basic_stringIcSt11char_traitsIcESaIcEEES8_RKSt6vectorISt4pairIS6_S6_ESaISB_EERKNS_7GeoInfoE"
 "_ZNK11imagefusion10ConstImage6divideERKS0_NS_4TypeE"
 "_ZNK11imagefusion10ConstImage6uniqueERKS0_"
 "_ZNK11imagefusion10ConstImage8multiplyERKS0_NS_4TypeE"
 "_ZNK11imagefusion10ConstImage8subtractERKS0_NS_4TypeE"
 "_ZNK11imagefusion10ConstImage9convertToENS_4TypeE"
 "_ZNK2cv3Mat5emptyEv"
 "_ZNK5boost10error_infoIN11imagefusion14tag_image_typeENS1_4TypeEE17name_value_stringB5cxx11Ev"
 "_ZNK5boost10error_infoIN11imagefusion14tag_image_typeENS1_4TypeEE5cloneEv"
 "_ZNK5boost10error_infoIN11imagefusion15tag_file_formatENSt7__cxx1112basic_stringIcSt11char_traitsIcESaIcEEEE17name_value_stringEv"
 "_ZNK5boost10error_infoIN11imagefusion15tag_file_formatENSt7__cxx1112basic_stringIcSt11char_traitsIcESaIcEEEE5cloneEv"
 "_ZNK5boost10error_infoIN11imagefusion8tag_sizeEN2cv5Size_IiEEE17name_value_stringB5cxx11Ev"
 "_ZNK5boost10error_infoIN11imagefusion8tag_sizeEN2cv5Size_IiEEE5cloneEv"
 "_ZNK5boost10error_infoINS_18errinfo_file_name_ENSt7__cxx1112basic_stringIcSt11char_traitsIcESaIcEEEE17name_value_stringEv"
 "_ZNK5boost10error_infoINS_18errinfo_file_name_ENSt7__cxx1112basic_stringIcSt11char_traitsIcESaIcEEEE5cloneEv"
 "_ZNK5boost16exception_detail10clone_implINS0_10bad_alloc_EE5cloneEv"
 "_ZNK5boost16exception_detail10clone_implINS0_10bad_alloc_EE7rethrowEv"
 "_ZNK5boost16exception_detail10clone_implINS0_14bad_exception_EE5cloneEv"
 "_ZNK5boost16exception_detail10clone_implINS0_14bad_exception_EE7rethrowEv"
 "_ZNK5boost16exception_detail25error_info_container_impl22diagnostic_informationEPKc"
 "_ZNK5boost16exception_detail25error_info_container_impl3getERKNS0_10type_info_E"
 "_ZNK5boost16exception_detail25error_info_container_impl5cloneEv"
 "_ZNK5boost16exception_detail25error_info_container_impl7add_refEv"
 "_ZNK5boost16exception_detail25error_info_container_impl7releaseEv"
 "_ZNKR11imagefusion10ConstImage10bitwise_orEONS_5ImageE"
 "_ZNKR11imagefusion10ConstImage10bitwise_orERKS0_"
 "_ZNKR11imagefusion10ConstImage11bitwise_andEONS_5ImageE"
 "_ZNKR11imagefusion10ConstImage11bitwise_andERKS0_"
 "_ZNKR11imagefusion10ConstImage11bitwise_notEv"
 "_ZNKR11imagefusion10ConstImage11bitwise_xorEONS_5ImageE"
 "_ZNKR11imagefusion10ConstImage11bitwise_xorERKS0_"
 "_ZNKR11imagefusion10ConstImage3absEv"
 "_ZNKR11imagefusion10ConstImage3addEONS_5ImageE"
 "_ZNKR11imagefusion10ConstImage3addERKS0_"
 "_ZNKR11imagefusion10ConstImage3addERKSt6vectorIdSaIdEERKS0_NS_4TypeE"
 "_ZNKR11imagefusion10ConstImage6divideEONS_5ImageE"
 "_ZNKR11imagefusion10ConstImage6divideERKS0_"
 "_ZNKR11imagefusion10ConstImage6divideERKSt6vectorIdSaIdEERKS0_NS_4TypeE"
 "_ZNKR11imagefusion10ConstImage7absdiffEONS_5ImageE"
 "_ZNKR11imagefusion10ConstImage7absdiffERKS0_"
 "_ZNKR11imagefusion10ConstImage7maximumEONS_5ImageERKS0_"
 "_ZNKR11imagefusion10ConstImage7maximumERKS0_S2_"
 "_ZNKR11imagefusion10ConstImage7maximumERKSt6vectorIdSaIdEERKS0_"
 "_ZNKR11imagefusion10ConstImage7minimumEONS_5ImageERKS0_"
 "_ZNKR11imagefusion10ConstImage7minimumERKS0_S2_"
 "_ZNKR11imagefusion10ConstImage7minimumERKSt6vectorIdSaIdEERKS0_"
 "_ZNKR11imagefusion10ConstImage8multiplyEONS_5ImageE"
 "_ZNKR11imagefusion10ConstImage8multiplyERKS0_"
 "_ZNKR11imagefusion10ConstImage8multiplyERKSt6vectorIdSaIdEERKS0_NS_4TypeE"
 "_ZNKR11imagefusion10ConstImage8subtractEONS_5ImageE"
 "_ZNKR11imagefusion10ConstImage8subtractERKS0_"
 "_ZNKR11imagefusion10ConstImage8subtractERKSt6vectorIdSaIdEERKS0_NS_4TypeE"
 "_ZNKSt23__codecvt_abstract_baseIwciE2inERiPKcS3_RS3_PwS5_RS5_"
 "_ZNKSt23__codecvt_abstract_baseIwciE3outERiPKwS3_RS3_PcS5_RS5_"
 "_ZNKSt5ctypeIcE8do_widenEc"
 "_ZNO11imagefusion5Image10bitwise_orERKNS_10ConstImageE"
 "_ZNO11imagefusion5Image11bitwise_andERKNS_10ConstImageE"
 "_ZNO11imagefusion5Image11bitwise_notEv"
 "_ZNO11imagefusion5Image11bitwise_xorERKNS_10ConstImageE"
 "_ZNO11imagefusion5Image3absEv"
 "_ZNO11imagefusion5Image3addERKNS_10ConstImageE"
 "_ZNO11imagefusion5Image3addERKSt6vectorIdSaIdEERKNS_10ConstImageE"
 "_ZNO11imagefusion5Image6divideERKNS_10ConstImageE"
 "_ZNO11imagefusion5Image6divideERKSt6vectorIdSaIdEERKNS_10ConstImageE"
 "_ZNO11imagefusion5Image6uniqueERKNS_10ConstImageE"
 "_ZNO11imagefusion5Image7absdiffERKNS_10ConstImageE"
 "_ZNO11imagefusion5Image7maximumERKNS_10ConstImageES3_"
 "_ZNO11imagefusion5Image7maximumERKSt6vectorIdSaIdEERKNS_10ConstImageE"
 "_ZNO11imagefusion5Image7minimumERKNS_10ConstImageES3_"
 "_ZNO11imagefusion5Image7minimumERKSt6vectorIdSaIdEERKNS_10ConstImageE"
 "_ZNO11imagefusion5Image8multiplyERKNS_10ConstImageE"
 "_ZNO11imagefusion5Image8multiplyERKSt6vectorIdSaIdEERKNS_10ConstImageE"
 "_ZNO11imagefusion5Image8subtractERKNS_10ConstImageE"
 "_ZNO11imagefusion5Image8subtractERKSt6vectorIdSaIdEERKNS_10ConstImageE"
 "_ZNSt10filesystem7__cxx1116filesystem_errorC1ERKNSt7__cxx1112basic_stringIcSt11char_traitsIcESaIcEEESt10error_code"
 "_ZNSt10filesystem7__cxx114path14_S_str_convertIcSt11char_traitsIcESaIcEEENSt7__cxx1112basic_stringIT_T0_T1_EERKNS7_IwS3_IwESaIwEEERKSA_"
 "_ZNSt10filesystem7__cxx114pathD1Ev"
 "_ZNSt11char_traitsIcE6lengthEPKc"
 "_ZNSt12codecvt_utf8IwLm1114111ELSt12codecvt_mode0EED0Ev"
 "_ZNSt12codecvt_utf8IwLm1114111ELSt12codecvt_mode0EED1Ev"
 "_ZNSt3mapIdjSt4lessIdESaISt4pairIKdjEEEixEOd"
 "_ZNSt4pairINSt7__cxx1112basic_stringIcSt11char_traitsIcESaIcEEES5_ED1Ev"
 "_ZNSt6vectorIN11imagefusion5ImageESaIS1_EED1Ev"
 "_ZNSt6vectorIN2cv3MatESaIS1_EE17_M_realloc_insertIJRKS1_EEEvN9__gnu_cxx17__normal_iteratorIPS1_S3_EEDpOT_"
 "_ZNSt6vectorIN2cv3MatESaIS1_EE7reserveEy"
 "_ZNSt6vectorIN2cv3MatESaIS1_EED1Ev"
 "_ZNSt6vectorIN5boost3icl12interval_setIdSt4lessNS1_19continuous_intervalIdS3_EESaEESaIS6_EE14_M_fill_insertEN9__gnu_cxx17__normal_iteratorIPS6_S8_EEyRKS6_"
 "_ZNSt6vectorIN5boost3icl12interval_setIdSt4lessNS1_19continuous_intervalIdS3_EESaEESaIS6_EED1Ev"
 "_ZNSt6vectorIN5boost3icl19continuous_intervalIdSt4lessEESaIS4_EE17_M_realloc_insertIJS4_EEEvN9__gnu_cxx17__normal_iteratorIPS4_S6_EEDpOT_"
 "_ZNSt6vectorINSt10filesystem7__cxx114path5_CmptESaIS3_EED1Ev"
 "_ZNSt6vectorISt4pairINSt7__cxx1112basic_stringIcSt11char_traitsIcESaIcEEES6_ESaIS7_EED1Ev"
 "_ZNSt6vectorIdSaIdEE12emplace_backIJdEEERdDpOT_"
 "_ZNSt6vectorIdSaIdEE14_M_fill_insertEN9__gnu_cxx17__normal_iteratorIPdS1_EEyRKd"
 "_ZNSt6vectorIiSaIiEE12emplace_backIJiEEERiDpOT_"
 "_ZNSt6vectorIiSaIiEE17_M_realloc_insertIJiEEEvN9__gnu_cxx17__normal_iteratorIPiS1_EEDpOT_"
 "_ZNSt6vectorIjSaIjEE17_M_default_appendEy"
 "_ZNSt7__cxx1112basic_stringIcSt11char_traitsIcESaIcEE10_M_replaceEyyPKcy"
 "_ZNSt7__cxx1112basic_stringIcSt11char_traitsIcESaIcEE12_M_constructIPKcEEvT_S8_St20forward_iterator_tag"
 "_ZNSt7__cxx1112basic_stringIcSt11char_traitsIcESaIcEE12_M_constructIPcEEvT_S7_St20forward_iterator_tag"
 "_ZNSt7__cxx1112basic_stringIcSt11char_traitsIcESaIcEE14_M_replace_auxEyyyc"
 "_ZNSt7__cxx1112basic_stringIcSt11char_traitsIcESaIcEE6resizeEyc"
 "_ZNSt7__cxx1112basic_stringIcSt11char_traitsIcESaIcEE8_M_eraseEyy"
 "_ZNSt7__cxx1112basic_stringIcSt11char_traitsIcESaIcEE9_M_appendEPKcy"
 "_ZNSt7__cxx1112basic_stringIcSt11char_traitsIcESaIcEE9_M_assignERKS4_"
 "_ZNSt7__cxx1112basic_stringIcSt11char_traitsIcESaIcEE9_M_mutateEyyPKcy"
 "_ZNSt7__cxx1112basic_stringIwSt11char_traitsIwESaIwEE10_M_replaceEyyPKwy"
 "_ZNSt7__cxx1112basic_stringIwSt11char_traitsIwESaIwEE6resizeEyw"
 "_ZNSt7__cxx1112basic_stringIwSt11char_traitsIwESaIwEE9_M_createERyy"
 "_ZNSt7__cxx1112basic_stringIwSt11char_traitsIwESaIwEE9_M_mutateEyyPKwy"
 "_ZNSt7__cxx1115basic_stringbufIcSt11char_traitsIcESaIcEED1Ev"
 "_ZNSt8_Rb_treeIN5boost16exception_detail10type_info_ESt4pairIKS2_NS0_10shared_ptrINS1_15error_info_baseEEEESt10_Select1stIS8_ESt4lessIS2_ESaIS8_EE14_M_insert_nodeEPSt18_Rb_tree_node_baseSG_PSt13_Rb_tree_nodeIS8_E"
 "_ZNSt8_Rb_treeIN5boost16exception_detail10type_info_ESt4pairIKS2_NS0_10shared_ptrINS1_15error_info_baseEEEESt10_Select1stIS8_ESt4lessIS2_ESaIS8_EE24_M_get_insert_unique_posERS4_"
 "_ZNSt8_Rb_treeIN5boost16exception_detail10type_info_ESt4pairIKS2_NS0_10shared_ptrINS1_15error_info_baseEEEESt10_Select1stIS8_ESt4lessIS2_ESaIS8_EE8_M_eraseEPSt13_Rb_tree_nodeIS8_E"
 "_ZNSt8_Rb_treeIN5boost3icl17discrete_intervalIiSt4lessEES4_St9_IdentityIS4_ENS1_19exclusive_less_thanIS4_EESaIS4_EE8_M_eraseEPSt13_Rb_tree_nodeIS4_E"
 "_ZNSt8_Rb_treeIN5boost3icl19continuous_intervalIdSt4lessEES4_St9_IdentityIS4_ENS1_19exclusive_less_thanIS4_EESaIS4_EE10_M_insert_IRKS4_NSA_11_Alloc_nodeEEESt17_Rb_tree_iteratorIS4_EPSt18_Rb_tree_node_baseSI_OT_RT0_"
 "_ZNSt8_Rb_treeIN5boost3icl19continuous_intervalIdSt4lessEES4_St9_IdentityIS4_ENS1_19exclusive_less_thanIS4_EESaIS4_EE24_M_get_insert_unique_posERKS4_"
 "_ZNSt8_Rb_treeIN5boost3icl19continuous_intervalIdSt4lessEES4_St9_IdentityIS4_ENS1_19exclusive_less_thanIS4_EESaIS4_EE29_M_get_insert_hint_unique_posESt23_Rb_tree_const_iteratorIS4_ERKS4_"
 "_ZNSt8_Rb_treeIN5boost3icl19continuous_intervalIdSt4lessEES4_St9_IdentityIS4_ENS1_19exclusive_less_thanIS4_EESaIS4_EE7_M_copyINSA_11_Alloc_nodeEEEPSt13_Rb_tree_nodeIS4_EPKSE_PSt18_Rb_tree_node_baseRT_"
 "_ZNSt8_Rb_treeIN5boost3icl19continuous_intervalIdSt4lessEES4_St9_IdentityIS4_ENS1_19exclusive_less_thanIS4_EESaIS4_EE8_M_eraseEPSt13_Rb_tree_nodeIS4_E"
 "_ZNSt8_Rb_treeINSt7__cxx1112basic_stringIcSt11char_traitsIcESaIcEEESt4pairIKS5_S5_ESt10_Select1stIS8_ESt4lessIS5_ESaIS8_EE8_M_eraseEPSt13_Rb_tree_nodeIS8_E"
 "_ZNSt8_Rb_treeINSt7__cxx1112basic_stringIcSt11char_traitsIcESaIcEEESt4pairIKS5_St3mapIS5_S5_St4lessIS5_ESaIS6_IS7_S5_EEEESt10_Select1stISE_ESA_SaISE_EE8_M_eraseEPSt13_Rb_tree_nodeISE_E"
 "_ZNSt8_Rb_treeIdSt4pairIKdjESt10_Select1stIS2_ESt4lessIdESaIS2_EE14_M_insert_nodeEPSt18_Rb_tree_node_baseSA_PSt13_Rb_tree_nodeIS2_E"
 "_ZNSt8_Rb_treeIdSt4pairIKdjESt10_Select1stIS2_ESt4lessIdESaIS2_EE24_M_get_insert_unique_posERS1_"
 "_ZNSt8_Rb_treeIdSt4pairIKdjESt10_Select1stIS2_ESt4lessIdESaIS2_EE29_M_get_insert_hint_unique_posESt23_Rb_tree_const_iteratorIS2_ERS1_"
 "_ZNSt8_Rb_treeIdSt4pairIKdjESt10_Select1stIS2_ESt4lessIdESaIS2_EE8_M_eraseEPSt13_Rb_tree_nodeIS2_E"
 "_ZSt13__adjust_heapIN2cv12MatIterator_IaEExaN9__gnu_cxx5__ops15_Iter_less_iterEEvT_T0_S7_T1_T2_"
 "_ZSt13__adjust_heapIN2cv12MatIterator_IdEExdN9__gnu_cxx5__ops15_Iter_less_iterEEvT_T0_S7_T1_T2_"
 "_ZSt13__adjust_heapIN2cv12MatIterator_IfEExfN9__gnu_cxx5__ops15_Iter_less_iterEEvT_T0_S7_T1_T2_"
 "_ZSt13__adjust_heapIN2cv12MatIterator_IhEExhN9__gnu_cxx5__ops15_Iter_less_iterEEvT_T0_S7_T1_T2_"
 "_ZSt13__adjust_heapIN2cv12MatIterator_IiEExiN9__gnu_cxx5__ops15_Iter_less_iterEEvT_T0_S7_T1_T2_"
 "_ZSt13__adjust_heapIN2cv12MatIterator_IsEExsN9__gnu_cxx5__ops15_Iter_less_iterEEvT_T0_S7_T1_T2_"
 "_ZSt13__adjust_heapIN2cv12MatIterator_ItEExtN9__gnu_cxx5__ops15_Iter_less_iterEEvT_T0_S7_T1_T2_"
 "_ZSt13__heap_selectIN2cv12MatIterator_IaEEN9__gnu_cxx5__ops15_Iter_less_iterEEvT_S6_S6_T0_"
 "_ZSt13__heap_selectIN2cv12MatIterator_IdEEN9__gnu_cxx5__ops15_Iter_less_iterEEvT_S6_S6_T0_"
 "_ZSt13__heap_selectIN2cv12MatIterator_IfEEN9__gnu_cxx5__ops15_Iter_less_iterEEvT_S6_S6_T0_"
 "_ZSt13__heap_selectIN2cv12MatIterator_IhEEN9__gnu_cxx5__ops15_Iter_less_iterEEvT_S6_S6_T0_"
 "_ZSt13__heap_selectIN2cv12MatIterator_IiEEN9__gnu_cxx5__ops15_Iter_less_iterEEvT_S6_S6_T0_"
 "_ZSt13__heap_selectIN2cv12MatIterator_IsEEN9__gnu_cxx5__ops15_Iter_less_iterEEvT_S6_S6_T0_"
 "_ZSt13__heap_selectIN2cv12MatIterator_ItEEN9__gnu_cxx5__ops15_Iter_less_iterEEvT_S6_S6_T0_"
 "_ZSt16__insertion_sortIN2cv12MatIterator_IaEEN9__gnu_cxx5__ops15_Iter_less_iterEEvT_S6_T0_"
 "_ZSt16__insertion_sortIN2cv12MatIterator_IdEEN9__gnu_cxx5__ops15_Iter_less_iterEEvT_S6_T0_"
 "_ZSt16__insertion_sortIN2cv12MatIterator_IfEEN9__gnu_cxx5__ops15_Iter_less_iterEEvT_S6_T0_"
 "_ZSt16__insertion_sortIN2cv12MatIterator_IhEEN9__gnu_cxx5__ops15_Iter_less_iterEEvT_S6_T0_"
 "_ZSt16__insertion_sortIN2cv12MatIterator_IiEEN9__gnu_cxx5__ops15_Iter_less_iterEEvT_S6_T0_"
 "_ZSt16__insertion_sortIN2cv12MatIterator_IsEEN9__gnu_cxx5__ops15_Iter_less_iterEEvT_S6_T0_"
 "_ZSt16__insertion_sortIN2cv12MatIterator_ItEEN9__gnu_cxx5__ops15_Iter_less_iterEEvT_S6_T0_"
 "_ZSt16__introsort_loopIN2cv12MatIterator_IaEExN9__gnu_cxx5__ops15_Iter_less_iterEEvT_S6_T0_T1_"
 "_ZSt16__introsort_loopIN2cv12MatIterator_IdEExN9__gnu_cxx5__ops15_Iter_less_iterEEvT_S6_T0_T1_"
 "_ZSt16__introsort_loopIN2cv12MatIterator_IfEExN9__gnu_cxx5__ops15_Iter_less_iterEEvT_S6_T0_T1_"
 "_ZSt16__introsort_loopIN2cv12MatIterator_IhEExN9__gnu_cxx5__ops15_Iter_less_iterEEvT_S6_T0_T1_"
 "_ZSt16__introsort_loopIN2cv12MatIterator_IiEExN9__gnu_cxx5__ops15_Iter_less_iterEEvT_S6_T0_T1_"
 "_ZSt16__introsort_loopIN2cv12MatIterator_IsEExN9__gnu_cxx5__ops15_Iter_less_iterEEvT_S6_T0_T1_"
 "_ZSt16__introsort_loopIN2cv12MatIterator_ItEExN9__gnu_cxx5__ops15_Iter_less_iterEEvT_S6_T0_T1_"
 "_ZSt25__unguarded_linear_insertIN2cv12MatIterator_IaEEN9__gnu_cxx5__ops14_Val_less_iterEEvT_T0_"
 "_ZSt25__unguarded_linear_insertIN2cv12MatIterator_IdEEN9__gnu_cxx5__ops14_Val_less_iterEEvT_T0_"
 "_ZSt25__unguarded_linear_insertIN2cv12MatIterator_IfEEN9__gnu_cxx5__ops14_Val_less_iterEEvT_T0_"
 "_ZSt25__unguarded_linear_insertIN2cv12MatIterator_IhEEN9__gnu_cxx5__ops14_Val_less_iterEEvT_T0_"
 "_ZSt25__unguarded_linear_insertIN2cv12MatIterator_IiEEN9__gnu_cxx5__ops14_Val_less_iterEEvT_T0_"
 "_ZSt25__unguarded_linear_insertIN2cv12MatIterator_IsEEN9__gnu_cxx5__ops14_Val_less_iterEEvT_T0_"
 "_ZSt25__unguarded_linear_insertIN2cv12MatIterator_ItEEN9__gnu_cxx5__ops14_Val_less_iterEEvT_T0_"
 "_ZSt8__uniqueIN2cv12MatIterator_IaEEN9__gnu_cxx5__ops19_Iter_equal_to_iterEET_S6_S6_T0_"
 "_ZSt8__uniqueIN2cv12MatIterator_IdEEN9__gnu_cxx5__ops19_Iter_equal_to_iterEET_S6_S6_T0_"
 "_ZSt8__uniqueIN2cv12MatIterator_IfEEN9__gnu_cxx5__ops19_Iter_equal_to_iterEET_S6_S6_T0_"
 "_ZSt8__uniqueIN2cv12MatIterator_IhEEN9__gnu_cxx5__ops19_Iter_equal_to_iterEET_S6_S6_T0_"
 "_ZSt8__uniqueIN2cv12MatIterator_IiEEN9__gnu_cxx5__ops19_Iter_equal_to_iterEET_S6_S6_T0_"
 "_ZSt8__uniqueIN2cv12MatIterator_IsEEN9__gnu_cxx5__ops19_Iter_equal_to_iterEET_S6_S6_T0_"
 "_ZSt8__uniqueIN2cv12MatIterator_ItEEN9__gnu_cxx5__ops19_Iter_equal_to_iterEET_S6_S6_T0_"
 "_ZStplIcSt11char_traitsIcESaIcEENSt7__cxx1112basic_stringIT_T0_T1_EEOS8_PKS5_"
 "_ZStplIcSt11char_traitsIcESaIcEENSt7__cxx1112basic_stringIT_T0_T1_EEOS8_S9_"
 "_ZStplIcSt11char_traitsIcESaIcEENSt7__cxx1112basic_stringIT_T0_T1_EEPKS5_OS8_"
 "_ZStplIcSt11char_traitsIcESaIcEENSt7__cxx1112basic_stringIT_T0_T1_EEPKS5_RKS8_"
 "_ZTCN11imagefusion10size_errorE0_NS_13runtime_errorE"
 "_ZTCN11imagefusion16image_type_errorE0_NS_13runtime_errorE"
 "_ZTCN11imagefusion17file_format_errorE0_NS_13runtime_errorE"
 "_ZTCN11imagefusion22invalid_argument_errorE0_NS_13runtime_errorE"
 "_ZTIN11imagefusion10ConstImageE"
 "_ZTIN11imagefusion10size_errorE"
 "_ZTIN11imagefusion11logic_errorE"
 "_ZTIN11imagefusion13runtime_errorE"
 "_ZTIN11imagefusion16image_type_errorE"
 "_ZTIN11imagefusion17file_format_errorE"
 "_ZTIN11imagefusion22invalid_argument_errorE"
 "_ZTIN11imagefusion5ImageE"
 "_ZTIN2cv9ExceptionE"
 "_ZTIN5boost10error_infoIN11imagefusion14tag_image_typeENS1_4TypeEEE"
 "_ZTIN5boost10error_infoIN11imagefusion15tag_file_formatENSt7__cxx1112basic_stringIcSt11char_traitsIcESaIcEEEEE"
 "_ZTIN5boost10error_infoIN11imagefusion8tag_sizeEN2cv5Size_IiEEEE"
 "_ZTIN5boost10error_infoINS_18errinfo_file_name_ENSt7__cxx1112basic_stringIcSt11char_traitsIcESaIcEEEEE"
 "_ZTIN5boost16exception_detail10bad_alloc_E"
 "_ZTIN5boost16exception_detail10clone_baseE"
 "_ZTIN5boost16exception_detail10clone_implINS0_10bad_alloc_EEE"
 "_ZTIN5boost16exception_detail10clone_implINS0_14bad_exception_EEE"
 "_ZTIN5boost16exception_detail14bad_exception_E"
 "_ZTIN5boost16exception_detail15error_info_baseE"
 "_ZTIN5boost16exception_detail20error_info_containerE"
 "_ZTIN5boost16exception_detail25error_info_container_implE"
 "_ZTIN5boost6detail15sp_counted_baseE"
 "_ZTIN5boost6detail17sp_counted_impl_pINS_10error_infoIN11imagefusion14tag_image_typeENS3_4TypeEEEEE"
 "_ZTIN5boost6detail17sp_counted_impl_pINS_10error_infoIN11imagefusion15tag_file_formatENSt7__cxx1112basic_stringIcSt11char_traitsIcESaIcEEEEEEE"
 "_ZTIN5boost6detail17sp_counted_impl_pINS_10error_infoIN11imagefusion8tag_sizeEN2cv5Size_IiEEEEEE"
 "_ZTIN5boost6detail17sp_counted_impl_pINS_10error_infoINS_18errinfo_file_name_ENSt7__cxx1112basic_stringIcSt11char_traitsIcESaIcEEEEEEE"
 "_ZTIN5boost6detail17sp_counted_impl_pINS_16exception_detail10clone_implINS2_10bad_alloc_EEEEE"
 "_ZTIN5boost6detail17sp_counted_impl_pINS_16exception_detail10clone_implINS2_14bad_exception_EEEEE"
 "_ZTIN5boost6detail17sp_counted_impl_pINS_16exception_detail15error_info_baseEEE"
 "_ZTIN5boost9exceptionE"
 "_ZTINSt10filesystem7__cxx1116filesystem_errorE"
 "_ZTINSt6locale5facetE"
 "_ZTISt11logic_error"
 "_ZTISt12codecvt_base"
 "_ZTISt12codecvt_utf8IwLm1114111ELSt12codecvt_mode0EE"
 "_ZTISt12system_error"
 "_ZTISt13bad_exception"
 "_ZTISt13runtime_error"
 "_ZTISt19__codecvt_utf8_baseIwE"
 "_ZTISt23__codecvt_abstract_baseIwciE"
 "_ZTISt7codecvtIwciE"
 "_ZTISt9bad_alloc"
 "_ZTISt9exception"
 "_ZTSN11imagefusion10ConstImageE"
 "_ZTSN11imagefusion10size_errorE"
 "_ZTSN11imagefusion11logic_errorE"
 "_ZTSN11imagefusion13runtime_errorE"
 "_ZTSN11imagefusion16image_type_errorE"
 "_ZTSN11imagefusion17file_format_errorE"
 "_ZTSN11imagefusion22invalid_argument_errorE"
 "_ZTSN11imagefusion5ImageE"
 "_ZTSN2cv9ExceptionE"
 "_ZTSN5boost10error_infoIN11imagefusion14tag_image_typeENS1_4TypeEEE"
 "_ZTSN5boost10error_infoIN11imagefusion15tag_file_formatENSt7__cxx1112basic_stringIcSt11char_traitsIcESaIcEEEEE"
 "_ZTSN5boost10error_infoIN11imagefusion8tag_sizeEN2cv5Size_IiEEEE"
 "_ZTSN5boost10error_infoINS_18errinfo_file_name_ENSt7__cxx1112basic_stringIcSt11char_traitsIcESaIcEEEEE"
 "_ZTSN5boost16exception_detail10bad_alloc_E"
 "_ZTSN5boost16exception_detail10clone_baseE"
 "_ZTSN5boost16exception_detail10clone_implINS0_10bad_alloc_EEE"
 "_ZTSN5boost16exception_detail10clone_implINS0_14bad_exception_EEE"
 "_ZTSN5boost16exception_detail14bad_exception_E"
 "_ZTSN5boost16exception_detail15error_info_baseE"
 "_ZTSN5boost16exception_detail20error_info_containerE"
 "_ZTSN5boost16exception_detail25error_info_container_implE"
 "_ZTSN5boost6detail15sp_counted_baseE"
 "_ZTSN5boost6detail17sp_counted_impl_pINS_10error_infoIN11imagefusion14tag_image_typeENS3_4TypeEEEEE"
 "_ZTSN5boost6detail17sp_counted_impl_pINS_10error_infoIN11imagefusion15tag_file_formatENSt7__cxx1112basic_stringIcSt11char_traitsIcESaIcEEEEEEE"
 "_ZTSN5boost6detail17sp_counted_impl_pINS_10error_infoIN11imagefusion8tag_sizeEN2cv5Size_IiEEEEEE"
 "_ZTSN5boost6detail17sp_counted_impl_pINS_10error_infoINS_18errinfo_file_name_ENSt7__cxx1112basic_stringIcSt11char_traitsIcESaIcEEEEEEE"
 "_ZTSN5boost6detail17sp_counted_impl_pINS_16exception_detail10clone_implINS2_10bad_alloc_EEEEE"
 "_ZTSN5boost6detail17sp_counted_impl_pINS_16exception_detail10clone_implINS2_14bad_exception_EEEEE"
 "_ZTSN5boost6detail17sp_counted_impl_pINS_16exception_detail15error_info_baseEEE"
 "_ZTSN5boost9exceptionE"
 "_ZTSNSt10filesystem7__cxx1116filesystem_errorE"
 "_ZTSNSt6locale5facetE"
 "_ZTSPN11imagefusion14tag_image_typeE"
 "_ZTSPN11imagefusion15tag_file_formatE"
 "_ZTSPN11imagefusion8tag_sizeE"
 "_ZTSPN5boost18errinfo_file_name_E"
 "_ZTSSt11logic_error"
 "_ZTSSt12codecvt_base"
 "_ZTSSt12codecvt_utf8IwLm1114111ELSt12codecvt_mode0EE"
 "_ZTSSt12system_error"
 "_ZTSSt13bad_exception"
 "_ZTSSt13runtime_error"
 "_ZTSSt19__codecvt_utf8_baseIwE"
 "_ZTSSt23__codecvt_abstract_baseIwciE"
 "_ZTSSt7codecvtIwciE"
 "_ZTSSt9bad_alloc"
 "_ZTSSt9exception"
 "_ZTTN11imagefusion10size_errorE"
 "_ZTTN11imagefusion11logic_errorE"
 "_ZTTN11imagefusion13runtime_errorE"
 "_ZTTN11imagefusion16image_type_errorE"
 "_ZTTN11imagefusion17file_format_errorE"
 "_ZTTN11imagefusion22invalid_argument_errorE"
 "_ZTTN5boost16exception_detail10clone_implINS0_10bad_alloc_EEE"
 "_ZTTN5boost16exception_detail10clone_implINS0_14bad_exception_EEE"
 "_ZTVN11imagefusion10ConstImageE"
 "_ZTVN11imagefusion10size_errorE"
 "_ZTVN11imagefusion11logic_errorE"
 "_ZTVN11imagefusion13runtime_errorE"
 "_ZTVN11imagefusion16image_type_errorE"
 "_ZTVN11imagefusion17file_format_errorE"
 "_ZTVN11imagefusion22invalid_argument_errorE"
 "_ZTVN11imagefusion5ImageE"
 "_ZTVN5boost10error_infoIN11imagefusion14tag_image_typeENS1_4TypeEEE"
 "_ZTVN5boost10error_infoIN11imagefusion15tag_file_formatENSt7__cxx1112basic_stringIcSt11char_traitsIcESaIcEEEEE"
 "_ZTVN5boost10error_infoIN11imagefusion8tag_sizeEN2cv5Size_IiEEEE"
 "_ZTVN5boost10error_infoINS_18errinfo_file_name_ENSt7__cxx1112basic_stringIcSt11char_traitsIcESaIcEEEEE"
 "_ZTVN5boost16exception_detail10bad_alloc_E"
 "_ZTVN5boost16exception_detail10clone_baseE"
 "_ZTVN5boost16exception_detail10clone_implINS0_10bad_alloc_EEE"
 "_ZTVN5boost16exception_detail10clone_implINS0_14bad_exception_EEE"
 "_ZTVN5boost16exception_detail14bad_exception_E"
 "_ZTVN5boost16exception_detail25error_info_container_implE"
 "_ZTVN5boost6detail17sp_counted_impl_pINS_10error_infoIN11imagefusion14tag_image_typeENS3_4TypeEEEEE"
 "_ZTVN5boost6detail17sp_counted_impl_pINS_10error_infoIN11imagefusion15tag_file_formatENSt7__cxx1112basic_stringIcSt11char_traitsIcESaIcEEEEEEE"
 "_ZTVN5boost6detail17sp_counted_impl_pINS_10error_infoIN11imagefusion8tag_sizeEN2cv5Size_IiEEEEEE"
 "_ZTVN5boost6detail17sp_counted_impl_pINS_10error_infoINS_18errinfo_file_name_ENSt7__cxx1112basic_stringIcSt11char_traitsIcESaIcEEEEEEE"
 "_ZTVN5boost6detail17sp_counted_impl_pINS_16exception_detail10clone_implINS2_10bad_alloc_EEEEE"
 "_ZTVN5boost6detail17sp_counted_impl_pINS_16exception_detail10clone_implINS2_14bad_exception_EEEEE"
 "_ZTVN5boost6detail17sp_counted_impl_pINS_16exception_detail15error_info_baseEEE"
 "_ZTVN5boost9exceptionE"
 "_ZTVSt12codecvt_utf8IwLm1114111ELSt12codecvt_mode0EE"
 "_ZThn40_N5boost16exception_detail10bad_alloc_D0Ev"
 "_ZThn40_N5boost16exception_detail10bad_alloc_D1Ev"
 "_ZThn40_N5boost16exception_detail10clone_implINS0_10bad_alloc_EED0Ev"
 "_ZThn40_N5boost16exception_detail10clone_implINS0_10bad_alloc_EED1Ev"
 "_ZThn40_N5boost16exception_detail10clone_implINS0_14bad_exception_EED0Ev"
 "_ZThn40_N5boost16exception_detail10clone_implINS0_14bad_exception_EED1Ev"
 "_ZThn40_N5boost16exception_detail14bad_exception_D0Ev"
 "_ZThn40_N5boost16exception_detail14bad_exception_D1Ev"
 "_ZTv0_n24_N11imagefusion10size_errorD0Ev"
 "_ZTv0_n24_N11imagefusion10size_errorD1Ev"
 "_ZTv0_n24_N11imagefusion11logic_errorD0Ev"
 "_ZTv0_n24_N11imagefusion11logic_errorD1Ev"
 "_ZTv0_n24_N11imagefusion13runtime_errorD0Ev"
 "_ZTv0_n24_N11imagefusion13runtime_errorD1Ev"
 "_ZTv0_n24_N11imagefusion16image_type_errorD0Ev"
 "_ZTv0_n24_N11imagefusion16image_type_errorD1Ev"
 "_ZTv0_n24_N11imagefusion17file_format_errorD0Ev"
 "_ZTv0_n24_N11imagefusion17file_format_errorD1Ev"
 "_ZTv0_n24_N11imagefusion22invalid_argument_errorD0Ev"
 "_ZTv0_n24_N11imagefusion22invalid_argument_errorD1Ev"
 "_ZTv0_n24_NK5boost16exception_detail10clone_implINS0_10bad_alloc_EE5cloneEv"
 "_ZTv0_n24_NK5boost16exception_detail10clone_implINS0_14bad_exception_EE5cloneEv"
 "_ZTv0_n32_NK5boost16exception_detail10clone_implINS0_10bad_alloc_EE7rethrowEv"
 "_ZTv0_n32_NK5boost16exception_detail10clone_implINS0_14bad_exception_EE7rethrowEv"
 "_ZTv0_n40_N11imagefusion10size_errorD0Ev"
 "_ZTv0_n40_N11imagefusion10size_errorD1Ev"
 "_ZTv0_n40_N11imagefusion16image_type_errorD0Ev"
 "_ZTv0_n40_N11imagefusion16image_type_errorD1Ev"
 "_ZTv0_n40_N11imagefusion17file_format_errorD0Ev"
 "_ZTv0_n40_N11imagefusion17file_format_errorD1Ev"
 "_ZTv0_n40_N11imagefusion22invalid_argument_errorD0Ev"
 "_ZTv0_n40_N11imagefusion22invalid_argument_errorD1Ev"
 "_ZTv0_n40_N5boost16exception_detail10clone_implINS0_10bad_alloc_EED0Ev"
 "_ZTv0_n40_N5boost16exception_detail10clone_implINS0_10bad_alloc_EED1Ev"
 "_ZTv0_n40_N5boost16exception_detail10clone_implINS0_14bad_exception_EED0Ev"
 "_ZTv0_n40_N5boost16exception_detail10clone_implINS0_14bad_exception_EED1Ev"
 "_ZZN5boost16exception_detail27get_static_exception_objectINS0_10bad_alloc_EEENS_13exception_ptrEvE2ep"
 "_ZZN5boost16exception_detail27get_static_exception_objectINS0_14bad_exception_EEENS_13exception_ptrEvE2ep"
 "_ZZN5boost3icl16identity_elementINS0_19continuous_intervalIdSt4lessEEE5valueEvE6_value"
 "_ZZN5boost3icl16identity_elementIdE5valueEvE6_value"
 "_ZGVN5boost16exception_detail37exception_ptr_static_exception_objectINS0_10bad_alloc_EE1eE"
 "_ZGVN5boost16exception_detail37exception_ptr_static_exception_objectINS0_14bad_exception_EE1eE"
 "_ZGVN7cvflann7anyimpl12SinglePolicyINS0_9empty_anyEE6policyE"
 "_ZGVN7cvflann7anyimpl12SinglePolicyINS_17flann_algorithm_tEE6policyE"
 "_ZGVN7cvflann7anyimpl12SinglePolicyINS_20flann_centers_init_tEE6policyE"
 "_ZGVN7cvflann7anyimpl12SinglePolicyINSt7__cxx1112basic_stringIcSt11char_traitsIcESaIcEEEE6policyE"
 "_ZGVN7cvflann7anyimpl12SinglePolicyIPKcE6policyE"
 "_ZGVN7cvflann7anyimpl12SinglePolicyIbE6policyE"
 "_ZGVN7cvflann7anyimpl12SinglePolicyIfE6policyE"
 "_ZGVN7cvflann7anyimpl12SinglePolicyIiE6policyE"
 "_ZGVN7cvflann7anyimpl12SinglePolicyIjE6policyE"
 "_ZGVZN5boost16exception_detail27get_static_exception_objectINS0_10bad_alloc_EEENS_13exception_ptrEvE2ep"
 "_ZGVZN5boost16exception_detail27get_static_exception_objectINS0_14bad_exception_EEENS_13exception_ptrEvE2ep"
 "_ZN11imagefusion10ConstImageC2EiiNS_4TypeE"
 "_ZN11imagefusion10ConstImageD0Ev"
 "_ZN11imagefusion10ConstImageD1Ev"
 "_ZN11imagefusion10FitFCFusor14processOptionsERKNS_7OptionsE"
 "_ZN11imagefusion10FitFCFusor7predictEiRKNS_10ConstImageES3_"
 "_ZN11imagefusion10FitFCFusorD0Ev"
 "_ZN11imagefusion10FitFCFusorD1Ev"
 "_ZN11imagefusion10size_errorC1ERKS0_"
 "_ZN11imagefusion10size_errorD0Ev"
 "_ZN11imagefusion10size_errorD1Ev"
 "_ZN11imagefusion10toFullTypeEi"
 "_ZN11imagefusion11getFullTypeENS_4TypeEh"
 "_ZN11imagefusion11logic_errorC1ERKS0_"
 "_ZN11imagefusion11logic_errorD0Ev"
 "_ZN11imagefusion11logic_errorD1Ev"
 "_ZN11imagefusion12FitFCOptionsD0Ev"
 "_ZN11imagefusion12FitFCOptionsD1Ev"
 "_ZN11imagefusion13runtime_errorC1ERKS0_"
 "_ZN11imagefusion13runtime_errorD0Ev"
 "_ZN11imagefusion13runtime_errorD1Ev"
 "_ZN11imagefusion14find_chan_implILh1EJEE14find_type_implISt4pairINS_5ImageES4_ELNS_4TypeE255EJEE3runINS_17fitfc_impl_detail16RegressionMapperEEES5_OT_RKhRKS6_"
 "_ZN11imagefusion14find_chan_implILh1EJEE14find_type_implIvLNS_4TypeE255EJEE3runINS_17fitfc_impl_detail10FilterStepEEEvOT_RKhRKS3_"
 "_ZN11imagefusion15not_found_errorC1ERKS0_"
 "_ZN11imagefusion15not_found_errorD0Ev"
 "_ZN11imagefusion15not_found_errorD1Ev"
 "_ZN11imagefusion16image_type_errorC1ERKS0_"
 "_ZN11imagefusion16image_type_errorD0Ev"
 "_ZN11imagefusion16image_type_errorD1Ev"
 "_ZN11imagefusion17fitfc_impl_detail12cubic_filterENS_5ImageEd"
 "_ZN11imagefusion22invalid_argument_errorD0Ev"
 "_ZN11imagefusion22invalid_argument_errorD1Ev"
 "_ZN11imagefusion5ImageD0Ev"
 "_ZN11imagefusion5ImageD1Ev"
 "_ZN11imagefusion9DataFusor11outputImageEv"
 "_ZN11imagefusion9DataFusor9srcImagesESt10shared_ptrIKNS_14MultiResImagesEE"
 "_ZN11imagefusion9to_stringB5cxx11ENS_4TypeE"
 "_ZN11imagefusion9to_stringB5cxx11ERKN2cv5Size_IiEE"
 "_ZN2cv3MatD1Ev"
 "_ZN5boost10error_infoIN11imagefusion14tag_image_typeENS1_4TypeEED0Ev"
 "_ZN5boost10error_infoIN11imagefusion14tag_image_typeENS1_4TypeEED1Ev"
 "_ZN5boost10error_infoIN11imagefusion18tag_resolution_tagENSt7__cxx1112basic_stringIcSt11char_traitsIcESaIcEEEED0Ev"
 "_ZN5boost10error_infoIN11imagefusion18tag_resolution_tagENSt7__cxx1112basic_stringIcSt11char_traitsIcESaIcEEEED1Ev"
 "_ZN5boost10error_infoIN11imagefusion8tag_dateEiED0Ev"
 "_ZN5boost10error_infoIN11imagefusion8tag_dateEiED1Ev"
 "_ZN5boost10error_infoIN11imagefusion8tag_sizeEN2cv5Size_IiEEED0Ev"
 "_ZN5boost10error_infoIN11imagefusion8tag_sizeEN2cv5Size_IiEEED1Ev"
 "_ZN5boost16exception_detail10bad_alloc_D0Ev"
 "_ZN5boost16exception_detail10bad_alloc_D1Ev"
 "_ZN5boost16exception_detail10bad_alloc_D2Ev"
 "_ZN5boost16exception_detail10clone_implINS0_10bad_alloc_EED0Ev"
 "_ZN5boost16exception_detail10clone_implINS0_10bad_alloc_EED1Ev"
 "_ZN5boost16exception_detail10clone_implINS0_14bad_exception_EED0Ev"
 "_ZN5boost16exception_detail10clone_implINS0_14bad_exception_EED1Ev"
 "_ZN5boost16exception_detail11set_info_rvINS_10error_infoIN11imagefusion14tag_image_typeENS3_4TypeEEEE3setINS3_11logic_errorEEERKT_SC_OS6_"
 "_ZN5boost16exception_detail11set_info_rvINS_10error_infoIN11imagefusion14tag_image_typeENS3_4TypeEEEE3setINS3_16image_type_errorEEERKT_SC_OS6_"
 "_ZN5boost16exception_detail11set_info_rvINS_10error_infoIN11imagefusion18tag_resolution_tagENSt7__cxx1112basic_stringIcSt11char_traitsIcESaIcEEEEEE3setINS3_15not_found_errorEEERKT_SH_OSB_"
 "_ZN5boost16exception_detail11set_info_rvINS_10error_infoIN11imagefusion8tag_dateEiEEE3setINS3_15not_found_errorEEERKT_SB_OS5_"
 "_ZN5boost16exception_detail11set_info_rvINS_10error_infoIN11imagefusion8tag_sizeEN2cv5Size_IiEEEEE3setINS3_10size_errorEEERKT_SE_OS8_"
 "_ZN5boost16exception_detail14bad_exception_D0Ev"
 "_ZN5boost16exception_detail14bad_exception_D1Ev"
 "_ZN5boost16exception_detail14bad_exception_D2Ev"
 "_ZN5boost16exception_detail20copy_boost_exceptionEPNS_9exceptionEPKS1_"
 "_ZN5boost16exception_detail25error_info_container_impl3setERKNS_10shared_ptrINS0_15error_info_baseEEERKNS0_10type_info_E"
 "_ZN5boost16exception_detail27get_static_exception_objectINS0_10bad_alloc_EEENS_13exception_ptrEv"
 "_ZN5boost16exception_detail27get_static_exception_objectINS0_14bad_exception_EEENS_13exception_ptrEv"
 "_ZN5boost16exception_detail37exception_ptr_static_exception_objectINS0_10bad_alloc_EE1eE"
 "_ZN5boost16exception_detail37exception_ptr_static_exception_objectINS0_14bad_exception_EE1eE"
 "_ZN5boost6detail15sp_counted_base7destroyEv"
 "_ZN5boost6detail15sp_counted_base7releaseEv"
 "_ZN5boost6detail17sp_counted_impl_pINS_10error_infoIN11imagefusion14tag_image_typeENS3_4TypeEEEE11get_deleterERKSt9type_info"
 "_ZN5boost6detail17sp_counted_impl_pINS_10error_infoIN11imagefusion14tag_image_typeENS3_4TypeEEEE17get_local_deleterERKSt9type_info"
 "_ZN5boost6detail17sp_counted_impl_pINS_10error_infoIN11imagefusion14tag_image_typeENS3_4TypeEEEE19get_untyped_deleterEv"
 "_ZN5boost6detail17sp_counted_impl_pINS_10error_infoIN11imagefusion14tag_image_typeENS3_4TypeEEEE7disposeEv"
 "_ZN5boost6detail17sp_counted_impl_pINS_10error_infoIN11imagefusion14tag_image_typeENS3_4TypeEEEED0Ev"
 "_ZN5boost6detail17sp_counted_impl_pINS_10error_infoIN11imagefusion14tag_image_typeENS3_4TypeEEEED1Ev"
 "_ZN5boost6detail17sp_counted_impl_pINS_10error_infoIN11imagefusion18tag_resolution_tagENSt7__cxx1112basic_stringIcSt11char_traitsIcESaIcEEEEEE11get_deleterERKSt9type_info"
 "_ZN5boost6detail17sp_counted_impl_pINS_10error_infoIN11imagefusion18tag_resolution_tagENSt7__cxx1112basic_stringIcSt11char_traitsIcESaIcEEEEEE17get_local_deleterERKSt9type_info"
 "_ZN5boost6detail17sp_counted_impl_pINS_10error_infoIN11imagefusion18tag_resolution_tagENSt7__cxx1112basic_stringIcSt11char_traitsIcESaIcEEEEEE19get_untyped_deleterEv"
 "_ZN5boost6detail17sp_counted_impl_pINS_10error_infoIN11imagefusion18tag_resolution_tagENSt7__cxx1112basic_stringIcSt11char_traitsIcESaIcEEEEEE7disposeEv"
 "_ZN5boost6detail17sp_counted_impl_pINS_10error_infoIN11imagefusion18tag_resolution_tagENSt7__cxx1112basic_stringIcSt11char_traitsIcESaIcEEEEEED0Ev"
 "_ZN5boost6detail17sp_counted_impl_pINS_10error_infoIN11imagefusion18tag_resolution_tagENSt7__cxx1112basic_stringIcSt11char_traitsIcESaIcEEEEEED1Ev"
 "_ZN5boost6detail17sp_counted_impl_pINS_10error_infoIN11imagefusion8tag_dateEiEEE11get_deleterERKSt9type_info"
 "_ZN5boost6detail17sp_counted_impl_pINS_10error_infoIN11imagefusion8tag_dateEiEEE17get_local_deleterERKSt9type_info"
 "_ZN5boost6detail17sp_counted_impl_pINS_10error_infoIN11imagefusion8tag_dateEiEEE19get_untyped_deleterEv"
 "_ZN5boost6detail17sp_counted_impl_pINS_10error_infoIN11imagefusion8tag_dateEiEEE7disposeEv"
 "_ZN5boost6detail17sp_counted_impl_pINS_10error_infoIN11imagefusion8tag_dateEiEEED0Ev"
 "_ZN5boost6detail17sp_counted_impl_pINS_10error_infoIN11imagefusion8tag_dateEiEEED1Ev"
 "_ZN5boost6detail17sp_counted_impl_pINS_10error_infoIN11imagefusion8tag_sizeEN2cv5Size_IiEEEEE11get_deleterERKSt9type_info"
 "_ZN5boost6detail17sp_counted_impl_pINS_10error_infoIN11imagefusion8tag_sizeEN2cv5Size_IiEEEEE17get_local_deleterERKSt9type_info"
 "_ZN5boost6detail17sp_counted_impl_pINS_10error_infoIN11imagefusion8tag_sizeEN2cv5Size_IiEEEEE19get_untyped_deleterEv"
 "_ZN5boost6detail17sp_counted_impl_pINS_10error_infoIN11imagefusion8tag_sizeEN2cv5Size_IiEEEEE7disposeEv"
 "_ZN5boost6detail17sp_counted_impl_pINS_10error_infoIN11imagefusion8tag_sizeEN2cv5Size_IiEEEEED0Ev"
 "_ZN5boost6detail17sp_counted_impl_pINS_10error_infoIN11imagefusion8tag_sizeEN2cv5Size_IiEEEEED1Ev"
 "_ZN5boost6detail17sp_counted_impl_pINS_16exception_detail10clone_implINS2_10bad_alloc_EEEE11get_deleterERKSt9type_info"
 "_ZN5boost6detail17sp_counted_impl_pINS_16exception_detail10clone_implINS2_10bad_alloc_EEEE17get_local_deleterERKSt9type_info"
 "_ZN5boost6detail17sp_counted_impl_pINS_16exception_detail10clone_implINS2_10bad_alloc_EEEE19get_untyped_deleterEv"
 "_ZN5boost6detail17sp_counted_impl_pINS_16exception_detail10clone_implINS2_10bad_alloc_EEEE7disposeEv"
 "_ZN5boost6detail17sp_counted_impl_pINS_16exception_detail10clone_implINS2_10bad_alloc_EEEED0Ev"
 "_ZN5boost6detail17sp_counted_impl_pINS_16exception_detail10clone_implINS2_10bad_alloc_EEEED1Ev"
 "_ZN5boost6detail17sp_counted_impl_pINS_16exception_detail10clone_implINS2_14bad_exception_EEEE11get_deleterERKSt9type_info"
 "_ZN5boost6detail17sp_counted_impl_pINS_16exception_detail10clone_implINS2_14bad_exception_EEEE17get_local_deleterERKSt9type_info"
 "_ZN5boost6detail17sp_counted_impl_pINS_16exception_detail10clone_implINS2_14bad_exception_EEEE19get_untyped_deleterEv"
 "_ZN5boost6detail17sp_counted_impl_pINS_16exception_detail10clone_implINS2_14bad_exception_EEEE7disposeEv"
 "_ZN5boost6detail17sp_counted_impl_pINS_16exception_detail10clone_implINS2_14bad_exception_EEEED0Ev"
 "_ZN5boost6detail17sp_counted_impl_pINS_16exception_detail10clone_implINS2_14bad_exception_EEEED1Ev"
 "_ZN5boost6detail17sp_counted_impl_pINS_16exception_detail15error_info_baseEE11get_deleterERKSt9type_info"
 "_ZN5boost6detail17sp_counted_impl_pINS_16exception_detail15error_info_baseEE17get_local_deleterERKSt9type_info"
 "_ZN5boost6detail17sp_counted_impl_pINS_16exception_detail15error_info_baseEE19get_untyped_deleterEv"
 "_ZN5boost6detail17sp_counted_impl_pINS_16exception_detail15error_info_baseEE7disposeEv"
 "_ZN5boost6detail17sp_counted_impl_pINS_16exception_detail15error_info_baseEED0Ev"
 "_ZN5boost6detail17sp_counted_impl_pINS_16exception_detail15error_info_baseEED1Ev"
 "_ZN5boost9to_stringIN11imagefusion18tag_resolution_tagENSt7__cxx1112basic_stringIcSt11char_traitsIcESaIcEEEEES8_RKNS_10error_infoIT_T0_EE"
 "_ZN5boost9to_stringIN11imagefusion8tag_dateEiEENSt7__cxx1112basic_stringIcSt11char_traitsIcESaIcEEERKNS_10error_infoIT_T0_EE"
 "_ZN5boost9to_stringIN11imagefusion8tag_sizeEN2cv5Size_IiEEEENSt7__cxx1112basic_stringIcSt11char_traitsIcESaIcEEERKNS_10error_infoIT_T0_EE"
 "_ZN9__gnu_cxx12__to_xstringINSt7__cxx1112basic_stringIcSt11char_traitsIcESaIcEEEcEET_PFiPT0_yPKS8_PcEySB_z"
 "_ZNK11imagefusion10ConstImage10sharedCopyEN2cv5Rect_IiEE"
 "_ZNK11imagefusion10ConstImage10sharedCopyEv"
 "_ZNK11imagefusion10FitFCFusor10getOptionsEv"
 "_ZNK11imagefusion10FitFCFusor14findSampleAreaERKN2cv5Size_IiEERKNS1_5Rect_IiEE"
 "_ZNK11imagefusion10FitFCFusor16checkInputImagesERKNS_10ConstImageES3_i"
 "_ZNK11imagefusion10FitFCFusor22computeDistanceWeightsEv"
 "_ZNK11imagefusion10FitFCFusor7regressERKNS_10ConstImageES3_S3_S3_"
 "_ZNK11imagefusion12FitFCOptions11getPairDateEv"
 "_ZNK11imagefusion17fitfc_impl_detail10FilterStepclILNS_4TypeE0EEEvv"
 "_ZNK11imagefusion17fitfc_impl_detail10FilterStepclILNS_4TypeE1EEEvv"
 "_ZNK11imagefusion17fitfc_impl_detail10FilterStepclILNS_4TypeE2EEEvv"
 "_ZNK11imagefusion17fitfc_impl_detail10FilterStepclILNS_4TypeE3EEEvv"
 "_ZNK11imagefusion17fitfc_impl_detail10FilterStepclILNS_4TypeE4EEEvv"
 "_ZNK11imagefusion17fitfc_impl_detail10FilterStepclILNS_4TypeE5EEEvv"
 "_ZNK11imagefusion17fitfc_impl_detail10FilterStepclILNS_4TypeE6EEEvv"
 "_ZNK11imagefusion17fitfc_impl_detail16RegressionMapper12collectStatsIaEENS1_5StatsENS_10ConstImageES4_S4_S4_i"
 "_ZNK11imagefusion17fitfc_impl_detail16RegressionMapper12collectStatsIdEENS1_5StatsENS_10ConstImageES4_S4_S4_i"
 "_ZNK11imagefusion17fitfc_impl_detail16RegressionMapper12collectStatsIfEENS1_5StatsENS_10ConstImageES4_S4_S4_i"
 "_ZNK11imagefusion17fitfc_impl_detail16RegressionMapper12collectStatsIhEENS1_5StatsENS_10ConstImageES4_S4_S4_i"
 "_ZNK11imagefusion17fitfc_impl_detail16RegressionMapper12collectStatsIiEENS1_5StatsENS_10ConstImageES4_S4_S4_i"
 "_ZNK11imagefusion17fitfc_impl_detail16RegressionMapper12collectStatsIsEENS1_5StatsENS_10ConstImageES4_S4_S4_i"
 "_ZNK11imagefusion17fitfc_impl_detail16RegressionMapper12collectStatsItEENS1_5StatsENS_10ConstImageES4_S4_S4_i"
 "_ZNK11imagefusion17fitfc_impl_detail16RegressionMapperclILNS_4TypeE0EEESt4pairINS_5ImageES5_Ev"
 "_ZNK11imagefusion17fitfc_impl_detail16RegressionMapperclILNS_4TypeE1EEESt4pairINS_5ImageES5_Ev"
 "_ZNK11imagefusion17fitfc_impl_detail16RegressionMapperclILNS_4TypeE2EEESt4pairINS_5ImageES5_Ev"
 "_ZNK11imagefusion17fitfc_impl_detail16RegressionMapperclILNS_4TypeE3EEESt4pairINS_5ImageES5_Ev"
 "_ZNK11imagefusion17fitfc_impl_detail16RegressionMapperclILNS_4TypeE4EEESt4pairINS_5ImageES5_Ev"
 "_ZNK11imagefusion17fitfc_impl_detail16RegressionMapperclILNS_4TypeE5EEESt4pairINS_5ImageES5_Ev"
 "_ZNK11imagefusion17fitfc_impl_detail16RegressionMapperclILNS_4TypeE6EEESt4pairINS_5ImageES5_Ev"
 "_ZNK11imagefusion18MultiResCollectionINS_5ImageEE3getERKNSt7__cxx1112basic_stringIcSt11char_traitsIcESaIcEEEi"
 "_ZNK11imagefusion18MultiResCollectionINS_5ImageEE3hasERKNSt7__cxx1112basic_stringIcSt11char_traitsIcESaIcEEEi"
 "_ZNK11imagefusion18MultiResCollectionINS_5ImageEE6getAnyEv"
 "_ZNK11imagefusion9DataFusor11outputImageEv"
 "_ZNK11imagefusion9DataFusor9srcImagesEv"
 "_ZNK2cv3Mat5emptyEv"
 "_ZNK5boost10error_infoIN11imagefusion14tag_image_typeENS1_4TypeEE17name_value_stringB5cxx11Ev"
 "_ZNK5boost10error_infoIN11imagefusion14tag_image_typeENS1_4TypeEE5cloneEv"
 "_ZNK5boost10error_infoIN11imagefusion18tag_resolution_tagENSt7__cxx1112basic_stringIcSt11char_traitsIcESaIcEEEE17name_value_stringEv"
 "_ZNK5boost10error_infoIN11imagefusion18tag_resolution_tagENSt7__cxx1112basic_stringIcSt11char_traitsIcESaIcEEEE5cloneEv"
 "_ZNK5boost10error_infoIN11imagefusion8tag_dateEiE17name_value_stringB5cxx11Ev"
 "_ZNK5boost10error_infoIN11imagefusion8tag_dateEiE5cloneEv"
 "_ZNK5boost10error_infoIN11imagefusion8tag_sizeEN2cv5Size_IiEEE17name_value_stringB5cxx11Ev"
 "_ZNK5boost10error_infoIN11imagefusion8tag_sizeEN2cv5Size_IiEEE5cloneEv"
 "_ZNK5boost16exception_detail10clone_implINS0_10bad_alloc_EE5cloneEv"
 "_ZNK5boost16exception_detail10clone_implINS0_10bad_alloc_EE7rethrowEv"
 "_ZNK5boost16exception_detail10clone_implINS0_14bad_exception_EE5cloneEv"
 "_ZNK5boost16exception_detail10clone_implINS0_14bad_exception_EE7rethrowEv"
 "_ZNK5boost16exception_detail25error_info_container_impl22diagnostic_informationEPKc"
 "_ZNK5boost16exception_detail25error_info_container_impl3getERKNS0_10type_info_E"
 "_ZNK5boost16exception_detail25error_info_container_impl5cloneEv"
 "_ZNK5boost16exception_detail25error_info_container_impl7add_refEv"
 "_ZNK5boost16exception_detail25error_info_container_impl7releaseEv"
 "_ZNKSt5ctypeIcE8do_widenEc"
 "_ZNKSt8_Rb_treeINSt7__cxx1112basic_stringIcSt11char_traitsIcESaIcEEESt4pairIKS5_St3mapIiN11imagefusion5ImageESt4lessIiESaIS6_IKiSA_EEEESt10_Select1stISH_ESB_IS5_ESaISH_EE4findERS7_"
 "_ZNSt11char_traitsIcE6lengthEPKc"
 "_ZNSt4pairIN11imagefusion5ImageES1_EC1IRS1_S4_Lb1EEEOT_OT0_"
 "_ZNSt6vectorIN11imagefusion17fitfc_impl_detail10FilterStep5ScoreESaIS3_EE12emplace_backIJRdRjS8_RKjSA_EEERS3_DpOT_"
 "_ZNSt6vectorIN11imagefusion17fitfc_impl_detail10FilterStep5ScoreESaIS3_EE7reserveEy"
 "_ZNSt7__cxx1112basic_stringIcSt11char_traitsIcESaIcEE10_M_replaceEyyPKcy"
 "_ZNSt7__cxx1112basic_stringIcSt11char_traitsIcESaIcEE12_M_constructIPKcEEvT_S8_St20forward_iterator_tag"
 "_ZNSt7__cxx1112basic_stringIcSt11char_traitsIcESaIcEE12_M_constructIPcEEvT_S7_St20forward_iterator_tag"
 "_ZNSt7__cxx1112basic_stringIcSt11char_traitsIcESaIcEE14_M_replace_auxEyyyc"
 "_ZNSt7__cxx1112basic_stringIcSt11char_traitsIcESaIcEE9_M_appendEPKcy"
 "_ZNSt7__cxx1112basic_stringIcSt11char_traitsIcESaIcEE9_M_assignERKS4_"
 "_ZNSt7__cxx1112basic_stringIcSt11char_traitsIcESaIcEE9_M_mutateEyyPKcy"
 "_ZNSt8_Rb_treeIN5boost16exception_detail10type_info_ESt4pairIKS2_NS0_10shared_ptrINS1_15error_info_baseEEEESt10_Select1stIS8_ESt4lessIS2_ESaIS8_EE14_M_insert_nodeEPSt18_Rb_tree_node_baseSG_PSt13_Rb_tree_nodeIS8_E"
 "_ZNSt8_Rb_treeIN5boost16exception_detail10type_info_ESt4pairIKS2_NS0_10shared_ptrINS1_15error_info_baseEEEESt10_Select1stIS8_ESt4lessIS2_ESaIS8_EE24_M_get_insert_unique_posERS4_"
 "_ZNSt8_Rb_treeIN5boost16exception_detail10type_info_ESt4pairIKS2_NS0_10shared_ptrINS1_15error_info_baseEEEESt10_Select1stIS8_ESt4lessIS2_ESaIS8_EE8_M_eraseEPSt13_Rb_tree_nodeIS8_E"
 "_ZSt13__adjust_heapIN9__gnu_cxx17__normal_iteratorIPN11imagefusion17fitfc_impl_detail10FilterStep5ScoreESt6vectorIS5_SaIS5_EEEExS5_NS0_5__ops15_Iter_less_iterEEvT_T0_SE_T1_T2_"
 "_ZStplIcSt11char_traitsIcESaIcEENSt7__cxx1112basic_stringIT_T0_T1_EEOS8_PKS5_"
 "_ZStplIcSt11char_traitsIcESaIcEENSt7__cxx1112basic_stringIT_T0_T1_EEOS8_RKS8_"
 "_ZStplIcSt11char_traitsIcESaIcEENSt7__cxx1112basic_stringIT_T0_T1_EEOS8_S9_"
 "_ZStplIcSt11char_traitsIcESaIcEENSt7__cxx1112basic_stringIT_T0_T1_EEPKS5_OS8_"
 "_ZStplIcSt11char_traitsIcESaIcEENSt7__cxx1112basic_stringIT_T0_T1_EEPKS5_RKS8_"
 "_ZTCN11imagefusion10size_errorE0_NS_13runtime_errorE"
 "_ZTCN11imagefusion15not_found_errorE0_NS_13runtime_errorE"
 "_ZTCN11imagefusion16image_type_errorE0_NS_13runtime_errorE"
 "_ZTCN11imagefusion22invalid_argument_errorE0_NS_13runtime_errorE"
 "_ZTIN11imagefusion10ConstImageE"
 "_ZTIN11imagefusion10FitFCFusorE"
 "_ZTIN11imagefusion10size_errorE"
 "_ZTIN11imagefusion11logic_errorE"
 "_ZTIN11imagefusion12FitFCOptionsE"
 "_ZTIN11imagefusion13runtime_errorE"
 "_ZTIN11imagefusion15not_found_errorE"
 "_ZTIN11imagefusion16image_type_errorE"
 "_ZTIN11imagefusion22invalid_argument_errorE"
 "_ZTIN11imagefusion5ImageE"
 "_ZTIN11imagefusion7OptionsE"
 "_ZTIN11imagefusion9DataFusorE"
 "_ZTIN5boost10error_infoIN11imagefusion14tag_image_typeENS1_4TypeEEE"
 "_ZTIN5boost10error_infoIN11imagefusion18tag_resolution_tagENSt7__cxx1112basic_stringIcSt11char_traitsIcESaIcEEEEE"
 "_ZTIN5boost10error_infoIN11imagefusion8tag_dateEiEE"
 "_ZTIN5boost10error_infoIN11imagefusion8tag_sizeEN2cv5Size_IiEEEE"
 "_ZTIN5boost16exception_detail10bad_alloc_E"
 "_ZTIN5boost16exception_detail10clone_baseE"
 "_ZTIN5boost16exception_detail10clone_implINS0_10bad_alloc_EEE"
 "_ZTIN5boost16exception_detail10clone_implINS0_14bad_exception_EEE"
 "_ZTIN5boost16exception_detail14bad_exception_E"
 "_ZTIN5boost16exception_detail15error_info_baseE"
 "_ZTIN5boost16exception_detail20error_info_containerE"
 "_ZTIN5boost16exception_detail25error_info_container_implE"
 "_ZTIN5boost6detail15sp_counted_baseE"
 "_ZTIN5boost6detail17sp_counted_impl_pINS_10error_infoIN11imagefusion14tag_image_typeENS3_4TypeEEEEE"
 "_ZTIN5boost6detail17sp_counted_impl_pINS_10error_infoIN11imagefusion18tag_resolution_tagENSt7__cxx1112basic_stringIcSt11char_traitsIcESaIcEEEEEEE"
 "_ZTIN5boost6detail17sp_counted_impl_pINS_10error_infoIN11imagefusion8tag_dateEiEEEE"
 "_ZTIN5boost6detail17sp_counted_impl_pINS_10error_infoIN11imagefusion8tag_sizeEN2cv5Size_IiEEEEEE"
 "_ZTIN5boost6detail17sp_counted_impl_pINS_16exception_detail10clone_implINS2_10bad_alloc_EEEEE"
 "_ZTIN5boost6detail17sp_counted_impl_pINS_16exception_detail10clone_implINS2_14bad_exception_EEEEE"
 "_ZTIN5boost6detail17sp_counted_impl_pINS_16exception_detail15error_info_baseEEE"
 "_ZTIN5boost9exceptionE"
 "_ZTISt11logic_error"
 "_ZTISt13bad_exception"
 "_ZTISt13runtime_error"
 "_ZTISt9bad_alloc"
 "_ZTISt9exception"
 "_ZTSN11imagefusion10ConstImageE"
 "_ZTSN11imagefusion10FitFCFusorE"
 "_ZTSN11imagefusion10size_errorE"
 "_ZTSN11imagefusion11logic_errorE"
 "_ZTSN11imagefusion12FitFCOptionsE"
 "_ZTSN11imagefusion13runtime_errorE"
 "_ZTSN11imagefusion15not_found_errorE"
 "_ZTSN11imagefusion16image_type_errorE"
 "_ZTSN11imagefusion22invalid_argument_errorE"
 "_ZTSN11imagefusion5ImageE"
 "_ZTSN11imagefusion7OptionsE"
 "_ZTSN11imagefusion9DataFusorE"
 "_ZTSN5boost10error_infoIN11imagefusion14tag_image_typeENS1_4TypeEEE"
 "_ZTSN5boost10error_infoIN11imagefusion18tag_resolution_tagENSt7__cxx1112basic_stringIcSt11char_traitsIcESaIcEEEEE"
 "_ZTSN5boost10error_infoIN11imagefusion8tag_dateEiEE"
 "_ZTSN5boost10error_infoIN11imagefusion8tag_sizeEN2cv5Size_IiEEEE"
 "_ZTSN5boost16exception_detail10bad_alloc_E"
 "_ZTSN5boost16exception_detail10clone_baseE"
 "_ZTSN5boost16exception_detail10clone_implINS0_10bad_alloc_EEE"
 "_ZTSN5boost16exception_detail10clone_implINS0_14bad_exception_EEE"
 "_ZTSN5boost16exception_detail14bad_exception_E"
 "_ZTSN5boost16exception_detail15error_info_baseE"
 "_ZTSN5boost16exception_detail20error_info_containerE"
 "_ZTSN5boost16exception_detail25error_info_container_implE"
 "_ZTSN5boost6detail15sp_counted_baseE"
 "_ZTSN5boost6detail17sp_counted_impl_pINS_10error_infoIN11imagefusion14tag_image_typeENS3_4TypeEEEEE"
 "_ZTSN5boost6detail17sp_counted_impl_pINS_10error_infoIN11imagefusion18tag_resolution_tagENSt7__cxx1112basic_stringIcSt11char_traitsIcESaIcEEEEEEE"
 "_ZTSN5boost6detail17sp_counted_impl_pINS_10error_infoIN11imagefusion8tag_dateEiEEEE"
 "_ZTSN5boost6detail17sp_counted_impl_pINS_10error_infoIN11imagefusion8tag_sizeEN2cv5Size_IiEEEEEE"
 "_ZTSN5boost6detail17sp_counted_impl_pINS_16exception_detail10clone_implINS2_10bad_alloc_EEEEE"
 "_ZTSN5boost6detail17sp_counted_impl_pINS_16exception_detail10clone_implINS2_14bad_exception_EEEEE"
 "_ZTSN5boost6detail17sp_counted_impl_pINS_16exception_detail15error_info_baseEEE"
 "_ZTSN5boost9exceptionE"
 "_ZTSPN11imagefusion14tag_image_typeE"
 "_ZTSPN11imagefusion18tag_resolution_tagE"
 "_ZTSPN11imagefusion8tag_dateE"
 "_ZTSPN11imagefusion8tag_sizeE"
 "_ZTSSt11logic_error"
 "_ZTSSt13bad_exception"
 "_ZTSSt13runtime_error"
 "_ZTSSt9bad_alloc"
 "_ZTSSt9exception"
 "_ZTTN11imagefusion10size_errorE"
 "_ZTTN11imagefusion11logic_errorE"
 "_ZTTN11imagefusion13runtime_errorE"
 "_ZTTN11imagefusion15not_found_errorE"
 "_ZTTN11imagefusion16image_type_errorE"
 "_ZTTN11imagefusion22invalid_argument_errorE"
 "_ZTTN5boost16exception_detail10clone_implINS0_10bad_alloc_EEE"
 "_ZTTN5boost16exception_detail10clone_implINS0_14bad_exception_EEE"
 "_ZTVN11imagefusion10ConstImageE"
 "_ZTVN11imagefusion10FitFCFusorE"
 "_ZTVN11imagefusion10size_errorE"
 "_ZTVN11imagefusion11logic_errorE"
 "_ZTVN11imagefusion12FitFCOptionsE"
 "_ZTVN11imagefusion13runtime_errorE"
 "_ZTVN11imagefusion15not_found_errorE"
 "_ZTVN11imagefusion16image_type_errorE"
 "_ZTVN11imagefusion22invalid_argument_errorE"
 "_ZTVN11imagefusion5ImageE"
 "_ZTVN11imagefusion9DataFusorE"
 "_ZTVN5boost10error_infoIN11imagefusion14tag_image_typeENS1_4TypeEEE"
 "_ZTVN5boost10error_infoIN11imagefusion18tag_resolution_tagENSt7__cxx1112basic_stringIcSt11char_traitsIcESaIcEEEEE"
 "_ZTVN5boost10error_infoIN11imagefusion8tag_dateEiEE"
 "_ZTVN5boost10error_infoIN11imagefusion8tag_sizeEN2cv5Size_IiEEEE"
 "_ZTVN5boost16exception_detail10bad_alloc_E"
 "_ZTVN5boost16exception_detail10clone_baseE"
 "_ZTVN5boost16exception_detail10clone_implINS0_10bad_alloc_EEE"
 "_ZTVN5boost16exception_detail10clone_implINS0_14bad_exception_EEE"
 "_ZTVN5boost16exception_detail14bad_exception_E"
 "_ZTVN5boost16exception_detail25error_info_container_implE"
 "_ZTVN5boost6detail17sp_counted_impl_pINS_10error_infoIN11imagefusion14tag_image_typeENS3_4TypeEEEEE"
 "_ZTVN5boost6detail17sp_counted_impl_pINS_10error_infoIN11imagefusion18tag_resolution_tagENSt7__cxx1112basic_stringIcSt11char_traitsIcESaIcEEEEEEE"
 "_ZTVN5boost6detail17sp_counted_impl_pINS_10error_infoIN11imagefusion8tag_dateEiEEEE"
 "_ZTVN5boost6detail17sp_counted_impl_pINS_10error_infoIN11imagefusion8tag_sizeEN2cv5Size_IiEEEEEE"
 "_ZTVN5boost6detail17sp_counted_impl_pINS_16exception_detail10clone_implINS2_10bad_alloc_EEEEE"
 "_ZTVN5boost6detail17sp_counted_impl_pINS_16exception_detail10clone_implINS2_14bad_exception_EEEEE"
 "_ZTVN5boost6detail17sp_counted_impl_pINS_16exception_detail15error_info_baseEEE"
 "_ZTVN5boost9exceptionE"
 "_ZThn40_N5boost16exception_detail10bad_alloc_D0Ev"
 "_ZThn40_N5boost16exception_detail10bad_alloc_D1Ev"
 "_ZThn40_N5boost16exception_detail10clone_implINS0_10bad_alloc_EED0Ev"
 "_ZThn40_N5boost16exception_detail10clone_implINS0_10bad_alloc_EED1Ev"
 "_ZThn40_N5boost16exception_detail10clone_implINS0_14bad_exception_EED0Ev"
 "_ZThn40_N5boost16exception_detail10clone_implINS0_14bad_exception_EED1Ev"
 "_ZThn40_N5boost16exception_detail14bad_exception_D0Ev"
 "_ZThn40_N5boost16exception_detail14bad_exception_D1Ev"
 "_ZTv0_n24_N11imagefusion10size_errorD0Ev"
 "_ZTv0_n24_N11imagefusion10size_errorD1Ev"
 "_ZTv0_n24_N11imagefusion11logic_errorD0Ev"
 "_ZTv0_n24_N11imagefusion11logic_errorD1Ev"
 "_ZTv0_n24_N11imagefusion13runtime_errorD0Ev"
 "_ZTv0_n24_N11imagefusion13runtime_errorD1Ev"
 "_ZTv0_n24_N11imagefusion15not_found_errorD0Ev"
 "_ZTv0_n24_N11imagefusion15not_found_errorD1Ev"
 "_ZTv0_n24_N11imagefusion16image_type_errorD0Ev"
 "_ZTv0_n24_N11imagefusion16image_type_errorD1Ev"
 "_ZTv0_n24_N11imagefusion22invalid_argument_errorD0Ev"
 "_ZTv0_n24_N11imagefusion22invalid_argument_errorD1Ev"
 "_ZTv0_n24_NK5boost16exception_detail10clone_implINS0_10bad_alloc_EE5cloneEv"
 "_ZTv0_n24_NK5boost16exception_detail10clone_implINS0_14bad_exception_EE5cloneEv"
 "_ZTv0_n32_NK5boost16exception_detail10clone_implINS0_10bad_alloc_EE7rethrowEv"
 "_ZTv0_n32_NK5boost16exception_detail10clone_implINS0_14bad_exception_EE7rethrowEv"
 "_ZTv0_n40_N11imagefusion10size_errorD0Ev"
 "_ZTv0_n40_N11imagefusion10size_errorD1Ev"
 "_ZTv0_n40_N11imagefusion15not_found_errorD0Ev"
 "_ZTv0_n40_N11imagefusion15not_found_errorD1Ev"
 "_ZTv0_n40_N11imagefusion16image_type_errorD0Ev"
 "_ZTv0_n40_N11imagefusion16image_type_errorD1Ev"
 "_ZTv0_n40_N11imagefusion22invalid_argument_errorD0Ev"
 "_ZTv0_n40_N11imagefusion22invalid_argument_errorD1Ev"
 "_ZTv0_n40_N5boost16exception_detail10clone_implINS0_10bad_alloc_EED0Ev"
 "_ZTv0_n40_N5boost16exception_detail10clone_implINS0_10bad_alloc_EED1Ev"
 "_ZTv0_n40_N5boost16exception_detail10clone_implINS0_14bad_exception_EED0Ev"
 "_ZTv0_n40_N5boost16exception_detail10clone_implINS0_14bad_exception_EED1Ev"
 "_ZZN5boost16exception_detail27get_static_exception_objectINS0_10bad_alloc_EEENS_13exception_ptrEvE2ep"
 "_ZZN5boost16exception_detail27get_static_exception_objectINS0_14bad_exception_EEENS_13exception_ptrEvE2ep"
 "_ZGVN5boost16exception_detail37exception_ptr_static_exception_objectINS0_10bad_alloc_EE1eE"
 "_ZGVN5boost16exception_detail37exception_ptr_static_exception_objectINS0_14bad_exception_EE1eE"
 "_ZGVN5boost4math6detail15erf_initializerIeNS0_8policies6policyINS3_13promote_floatILb0EEENS3_14promote_doubleILb0EEENS3_14default_policyES9_S9_S9_S9_S9_S9_S9_S9_S9_S9_EEN4mpl_4int_ILi64EEEE11initializerE"
 "_ZGVN5boost4math6detail17expm1_initializerIeNS0_8policies6policyINS3_13promote_floatILb0EEENS3_14promote_doubleILb0EEENS3_14default_policyES9_S9_S9_S9_S9_S9_S9_S9_S9_S9_EEN4mpl_4int_ILi64EEEE11initializerE"
 "_ZGVN5boost4math6detail17log1p_initializerIeNS0_8policies6policyINS3_13promote_floatILb0EEENS3_14promote_doubleILb0EEENS3_14default_policyES9_S9_S9_S9_S9_S9_S9_S9_S9_S9_EEN4mpl_4int_ILi64EEEE11initializerE"
 "_ZGVN5boost4math6detail18igamma_initializerIeNS0_8policies6policyINS3_13promote_floatILb0EEENS3_14promote_doubleILb0EEENS3_14default_policyES9_S9_S9_S9_S9_S9_S9_S9_S9_S9_EEE11initializerE"
 "_ZGVN5boost4math6detail18lgamma_initializerIeNS0_8policies6policyINS3_13promote_floatILb0EEENS3_14promote_doubleILb0EEENS3_14default_policyES9_S9_S9_S9_S9_S9_S9_S9_S9_S9_EEE11initializerE"
 "_ZGVN5boost4math7lanczos19lanczos_initializerINS1_12lanczos17m64EeE11initializerE"
 "_ZGVN7cvflann7anyimpl12SinglePolicyINS0_9empty_anyEE6policyE"
 "_ZGVN7cvflann7anyimpl12SinglePolicyINS_17flann_algorithm_tEE6policyE"
 "_ZGVN7cvflann7anyimpl12SinglePolicyINS_20flann_centers_init_tEE6policyE"
 "_ZGVN7cvflann7anyimpl12SinglePolicyINSt7__cxx1112basic_stringIcSt11char_traitsIcESaIcEEEE6policyE"
 "_ZGVN7cvflann7anyimpl12SinglePolicyIPKcE6policyE"
 "_ZGVN7cvflann7anyimpl12SinglePolicyIbE6policyE"
 "_ZGVN7cvflann7anyimpl12SinglePolicyIfE6policyE"
 "_ZGVN7cvflann7anyimpl12SinglePolicyIiE6policyE"
 "_ZGVN7cvflann7anyimpl12SinglePolicyIjE6policyE"
 "_ZGVZN5boost16exception_detail27get_static_exception_objectINS0_10bad_alloc_EEENS_13exception_ptrEvE2ep"
 "_ZGVZN5boost16exception_detail27get_static_exception_objectINS0_14bad_exception_EEENS_13exception_ptrEvE2ep"
 "_ZGVZN5boost4math6detail16lgamma_small_impIeNS0_8policies6policyINS3_13promote_floatILb0EEENS3_14promote_doubleILb0EEENS3_14default_policyES9_S9_S9_S9_S9_S9_S9_S9_S9_S9_EENS0_7lanczos12lanczos17m64EEET_SD_SD_SD_RKN4mpl_4int_ILi64EEERKT0_RKT1_E1P"
 "_ZGVZN5boost4math6detail16lgamma_small_impIeNS0_8policies6policyINS3_13promote_floatILb0EEENS3_14promote_doubleILb0EEENS3_14default_policyES9_S9_S9_S9_S9_S9_S9_S9_S9_S9_EENS0_7lanczos12lanczos17m64EEET_SD_SD_SD_RKN4mpl_4int_ILi64EEERKT0_RKT1_E1P_0"
 "_ZGVZN5boost4math6detail16lgamma_small_impIeNS0_8policies6policyINS3_13promote_floatILb0EEENS3_14promote_doubleILb0EEENS3_14default_policyES9_S9_S9_S9_S9_S9_S9_S9_S9_S9_EENS0_7lanczos12lanczos17m64EEET_SD_SD_SD_RKN4mpl_4int_ILi64EEERKT0_RKT1_E1P_1"
 "_ZGVZN5boost4math6detail16lgamma_small_impIeNS0_8policies6policyINS3_13promote_floatILb0EEENS3_14promote_doubleILb0EEENS3_14default_policyES9_S9_S9_S9_S9_S9_S9_S9_S9_S9_EENS0_7lanczos12lanczos17m64EEET_SD_SD_SD_RKN4mpl_4int_ILi64EEERKT0_RKT1_E1Q"
 "_ZGVZN5boost4math6detail16lgamma_small_impIeNS0_8policies6policyINS3_13promote_floatILb0EEENS3_14promote_doubleILb0EEENS3_14default_policyES9_S9_S9_S9_S9_S9_S9_S9_S9_S9_EENS0_7lanczos12lanczos17m64EEET_SD_SD_SD_RKN4mpl_4int_ILi64EEERKT0_RKT1_E1Q_0"
 "_ZGVZN5boost4math6detail16lgamma_small_impIeNS0_8policies6policyINS3_13promote_floatILb0EEENS3_14promote_doubleILb0EEENS3_14default_policyES9_S9_S9_S9_S9_S9_S9_S9_S9_S9_EENS0_7lanczos12lanczos17m64EEET_SD_SD_SD_RKN4mpl_4int_ILi64EEERKT0_RKT1_E1Q_1"
 "_ZGVZN5boost4math6detail18igamma_temme_largeIeNS0_8policies6policyINS3_13promote_floatILb0EEENS3_14promote_doubleILb0EEENS3_14default_policyES9_S9_S9_S9_S9_S9_S9_S9_S9_S9_EEEET_SB_SB_RKT0_PKN4mpl_4int_ILi64EEEE2C0"
 "_ZGVZN5boost4math6detail18igamma_temme_largeIeNS0_8policies6policyINS3_13promote_floatILb0EEENS3_14promote_doubleILb0EEENS3_14default_policyES9_S9_S9_S9_S9_S9_S9_S9_S9_S9_EEEET_SB_SB_RKT0_PKN4mpl_4int_ILi64EEEE2C1"
 "_ZGVZN5boost4math6detail18igamma_temme_largeIeNS0_8policies6policyINS3_13promote_floatILb0EEENS3_14promote_doubleILb0EEENS3_14default_policyES9_S9_S9_S9_S9_S9_S9_S9_S9_S9_EEEET_SB_SB_RKT0_PKN4mpl_4int_ILi64EEEE2C2"
 "_ZGVZN5boost4math6detail18igamma_temme_largeIeNS0_8policies6policyINS3_13promote_floatILb0EEENS3_14promote_doubleILb0EEENS3_14default_policyES9_S9_S9_S9_S9_S9_S9_S9_S9_S9_EEEET_SB_SB_RKT0_PKN4mpl_4int_ILi64EEEE2C3"
 "_ZGVZN5boost4math6detail18igamma_temme_largeIeNS0_8policies6policyINS3_13promote_floatILb0EEENS3_14promote_doubleILb0EEENS3_14default_policyES9_S9_S9_S9_S9_S9_S9_S9_S9_S9_EEEET_SB_SB_RKT0_PKN4mpl_4int_ILi64EEEE2C4"
 "_ZGVZN5boost4math6detail18igamma_temme_largeIeNS0_8policies6policyINS3_13promote_floatILb0EEENS3_14promote_doubleILb0EEENS3_14default_policyES9_S9_S9_S9_S9_S9_S9_S9_S9_S9_EEEET_SB_SB_RKT0_PKN4mpl_4int_ILi64EEEE2C5"
 "_ZGVZN5boost4math6detail18igamma_temme_largeIeNS0_8policies6policyINS3_13promote_floatILb0EEENS3_14promote_doubleILb0EEENS3_14default_policyES9_S9_S9_S9_S9_S9_S9_S9_S9_S9_EEEET_SB_SB_RKT0_PKN4mpl_4int_ILi64EEEE2C6"
 "_ZGVZN5boost4math6detail18igamma_temme_largeIeNS0_8policies6policyINS3_13promote_floatILb0EEENS3_14promote_doubleILb0EEENS3_14default_policyES9_S9_S9_S9_S9_S9_S9_S9_S9_S9_EEEET_SB_SB_RKT0_PKN4mpl_4int_ILi64EEEE2C7"
 "_ZGVZN5boost4math6detail18igamma_temme_largeIeNS0_8policies6policyINS3_13promote_floatILb0EEENS3_14promote_doubleILb0EEENS3_14default_policyES9_S9_S9_S9_S9_S9_S9_S9_S9_S9_EEEET_SB_SB_RKT0_PKN4mpl_4int_ILi64EEEE2C8"
 "_ZGVZN5boost4math6detail18igamma_temme_largeIeNS0_8policies6policyINS3_13promote_floatILb0EEENS3_14promote_doubleILb0EEENS3_14default_policyES9_S9_S9_S9_S9_S9_S9_S9_S9_S9_EEEET_SB_SB_RKT0_PKN4mpl_4int_ILi64EEEE2C9"
 "_ZGVZN5boost4math6detail18igamma_temme_largeIeNS0_8policies6policyINS3_13promote_floatILb0EEENS3_14promote_doubleILb0EEENS3_14default_policyES9_S9_S9_S9_S9_S9_S9_S9_S9_S9_EEEET_SB_SB_RKT0_PKN4mpl_4int_ILi64EEEE3C10"
 "_ZGVZN5boost4math6detail18igamma_temme_largeIeNS0_8policies6policyINS3_13promote_floatILb0EEENS3_14promote_doubleILb0EEENS3_14default_policyES9_S9_S9_S9_S9_S9_S9_S9_S9_S9_EEEET_SB_SB_RKT0_PKN4mpl_4int_ILi64EEEE3C11"
 "_ZGVZN5boost4math6detail18igamma_temme_largeIeNS0_8policies6policyINS3_13promote_floatILb0EEENS3_14promote_doubleILb0EEENS3_14default_policyES9_S9_S9_S9_S9_S9_S9_S9_S9_S9_EEEET_SB_SB_RKT0_PKN4mpl_4int_ILi64EEEE3C12"
 "_ZGVZN5boost4math6detail7erf_impIeNS0_8policies6policyINS3_13promote_floatILb0EEENS3_14promote_doubleILb0EEENS3_14default_policyES9_S9_S9_S9_S9_S9_S9_S9_S9_S9_EEEET_SB_bRKT0_RKN4mpl_4int_ILi64EEEE1P"
 "_ZGVZN5boost4math6detail7erf_impIeNS0_8policies6policyINS3_13promote_floatILb0EEENS3_14promote_doubleILb0EEENS3_14default_policyES9_S9_S9_S9_S9_S9_S9_S9_S9_S9_EEEET_SB_bRKT0_RKN4mpl_4int_ILi64EEEE1P_0"
 "_ZGVZN5boost4math6detail7erf_impIeNS0_8policies6policyINS3_13promote_floatILb0EEENS3_14promote_doubleILb0EEENS3_14default_policyES9_S9_S9_S9_S9_S9_S9_S9_S9_S9_EEEET_SB_bRKT0_RKN4mpl_4int_ILi64EEEE1P_1"
 "_ZGVZN5boost4math6detail7erf_impIeNS0_8policies6policyINS3_13promote_floatILb0EEENS3_14promote_doubleILb0EEENS3_14default_policyES9_S9_S9_S9_S9_S9_S9_S9_S9_S9_EEEET_SB_bRKT0_RKN4mpl_4int_ILi64EEEE1P_2"
 "_ZGVZN5boost4math6detail7erf_impIeNS0_8policies6policyINS3_13promote_floatILb0EEENS3_14promote_doubleILb0EEENS3_14default_policyES9_S9_S9_S9_S9_S9_S9_S9_S9_S9_EEEET_SB_bRKT0_RKN4mpl_4int_ILi64EEEE1P_3"
 "_ZGVZN5boost4math6detail7erf_impIeNS0_8policies6policyINS3_13promote_floatILb0EEENS3_14promote_doubleILb0EEENS3_14default_policyES9_S9_S9_S9_S9_S9_S9_S9_S9_S9_EEEET_SB_bRKT0_RKN4mpl_4int_ILi64EEEE1Q"
 "_ZGVZN5boost4math6detail7erf_impIeNS0_8policies6policyINS3_13promote_floatILb0EEENS3_14promote_doubleILb0EEENS3_14default_policyES9_S9_S9_S9_S9_S9_S9_S9_S9_S9_EEEET_SB_bRKT0_RKN4mpl_4int_ILi64EEEE1Q_0"
 "_ZGVZN5boost4math6detail7erf_impIeNS0_8policies6policyINS3_13promote_floatILb0EEENS3_14promote_doubleILb0EEENS3_14default_policyES9_S9_S9_S9_S9_S9_S9_S9_S9_S9_EEEET_SB_bRKT0_RKN4mpl_4int_ILi64EEEE1Q_1"
 "_ZGVZN5boost4math6detail7erf_impIeNS0_8policies6policyINS3_13promote_floatILb0EEENS3_14promote_doubleILb0EEENS3_14default_policyES9_S9_S9_S9_S9_S9_S9_S9_S9_S9_EEEET_SB_bRKT0_RKN4mpl_4int_ILi64EEEE1Q_2"
 "_ZGVZN5boost4math6detail7erf_impIeNS0_8policies6policyINS3_13promote_floatILb0EEENS3_14promote_doubleILb0EEENS3_14default_policyES9_S9_S9_S9_S9_S9_S9_S9_S9_S9_EEEET_SB_bRKT0_RKN4mpl_4int_ILi64EEEE1Q_3"
 "_ZGVZN5boost4math6detail7erf_impIeNS0_8policies6policyINS3_13promote_floatILb0EEENS3_14promote_doubleILb0EEENS3_14default_policyES9_S9_S9_S9_S9_S9_S9_S9_S9_S9_EEEET_SB_bRKT0_RKN4mpl_4int_ILi64EEEE1c"
 "_ZGVZN5boost4math6detail9expm1_impIeNS0_8policies6policyINS3_13promote_floatILb0EEENS3_14promote_doubleILb0EEENS3_14default_policyES9_S9_S9_S9_S9_S9_S9_S9_S9_S9_EEEET_SB_RKN4mpl_4int_ILi64EEERKT0_E1d"
 "_ZGVZN5boost4math6detail9expm1_impIeNS0_8policies6policyINS3_13promote_floatILb0EEENS3_14promote_doubleILb0EEENS3_14default_policyES9_S9_S9_S9_S9_S9_S9_S9_S9_S9_EEEET_SB_RKN4mpl_4int_ILi64EEERKT0_E1n"
 "_ZGVZN5boost4math6detail9log1p_impIeNS0_8policies6policyINS3_13promote_floatILb0EEENS3_14promote_doubleILb0EEENS3_14default_policyES9_S9_S9_S9_S9_S9_S9_S9_S9_S9_EEEET_RKSB_RKT0_RKN4mpl_4int_ILi64EEEE1P"
 "_ZGVZN5boost4math6detail9log1p_impIeNS0_8policies6policyINS3_13promote_floatILb0EEENS3_14promote_doubleILb0EEENS3_14default_policyES9_S9_S9_S9_S9_S9_S9_S9_S9_S9_EEEET_RKSB_RKT0_RKN4mpl_4int_ILi64EEEE1Q"
 "_ZGVZN5boost4math7lanczos12lanczos17m6411lanczos_sumIeEET_RKS4_E3num"
 "_ZGVZN5boost4math7lanczos12lanczos17m6418lanczos_sum_near_1IeEET_RKS4_E1d"
 "_ZGVZN5boost4math7lanczos12lanczos17m6418lanczos_sum_near_2IeEET_RKS4_E1d"
 "_ZGVZN5boost4math7lanczos12lanczos17m6423lanczos_sum_expG_scaledIeEET_RKS4_E3num"
 "_ZN11imagefusion10ConstImageC2EiiNS_4TypeE"
 "_ZN11imagefusion10ConstImageD0Ev"
 "_ZN11imagefusion10ConstImageD1Ev"
 "_ZN11imagefusion10size_errorC1ERKS0_"
 "_ZN11imagefusion10size_errorD0Ev"
 "_ZN11imagefusion10size_errorD1Ev"
 "_ZN11imagefusion10toFullTypeEi"
 "_ZN11imagefusion11getFullTypeENS_4TypeEh"
 "_ZN11imagefusion11logic_errorC1ERKS0_"
 "_ZN11imagefusion11logic_errorD0Ev"
 "_ZN11imagefusion11logic_errorD1Ev"
 "_ZN11imagefusion12EstarfmFusor14processOptionsERKNS_7OptionsE"
 "_ZN11imagefusion12EstarfmFusor7predictEiRKNS_10ConstImageES3_"
 "_ZN11imagefusion12EstarfmFusorD0Ev"
 "_ZN11imagefusion12EstarfmFusorD1Ev"
 "_ZN11imagefusion13runtime_errorC1ERKS0_"
 "_ZN11imagefusion13runtime_errorD0Ev"
 "_ZN11imagefusion13runtime_errorD1Ev"
 "_ZN11imagefusion14EstarfmOptionsD0Ev"
 "_ZN11imagefusion14EstarfmOptionsD1Ev"
 "_ZN11imagefusion14find_chan_implILh1EJEE14find_type_implINS_5ImageELNS_4TypeE255EJEE3runINS_19estarfm_impl_detail19ComputeLocalWeightsEEES3_OT_RKhRKS4_"
 "_ZN11imagefusion14find_chan_implILh1EJEE14find_type_implIvLNS_4TypeE255EJEE3runINS_19estarfm_impl_detail12PredictPixelEEEvOT_RKhRKS3_"
 "_ZN11imagefusion14find_chan_implILh1EJEE14find_type_implIvLNS_4TypeE255EJEE3runIRNS_19estarfm_impl_detail15SumAndTolHelperEEEvOT_RKhRKS3_"
 "_ZN11imagefusion15not_found_errorC1ERKS0_"
 "_ZN11imagefusion15not_found_errorD0Ev"
 "_ZN11imagefusion15not_found_errorD1Ev"
 "_ZN11imagefusion16image_type_errorC1ERKS0_"
 "_ZN11imagefusion16image_type_errorD0Ev"
 "_ZN11imagefusion16image_type_errorD1Ev"
 "_ZN11imagefusion19estarfm_impl_detail15SumAndTolHelper5StatsmIERKS2_"
 "_ZN11imagefusion19estarfm_impl_detail15SumAndTolHelper5StatspLERKS2_"
 "_ZN11imagefusion19estarfm_impl_detail15SumAndTolHelperclILNS_4TypeE0EEEvv"
 "_ZN11imagefusion19estarfm_impl_detail15SumAndTolHelperclILNS_4TypeE1EEEvv"
 "_ZN11imagefusion19estarfm_impl_detail15SumAndTolHelperclILNS_4TypeE2EEEvv"
 "_ZN11imagefusion19estarfm_impl_detail15SumAndTolHelperclILNS_4TypeE3EEEvv"
 "_ZN11imagefusion19estarfm_impl_detail15SumAndTolHelperclILNS_4TypeE4EEEvv"
 "_ZN11imagefusion19estarfm_impl_detail15SumAndTolHelperclILNS_4TypeE5EEEvv"
 "_ZN11imagefusion19estarfm_impl_detail15SumAndTolHelperclILNS_4TypeE6EEEvv"
 "_ZN11imagefusion19estarfm_impl_detail7regressIaEEdRKSt6vectorIT_SaIS3_EES7_b"
 "_ZN11imagefusion19estarfm_impl_detail7regressIdEEdRKSt6vectorIT_SaIS3_EES7_b"
 "_ZN11imagefusion19estarfm_impl_detail7regressIfEEdRKSt6vectorIT_SaIS3_EES7_b"
 "_ZN11imagefusion19estarfm_impl_detail7regressIhEEdRKSt6vectorIT_SaIS3_EES7_b"
 "_ZN11imagefusion19estarfm_impl_detail7regressIiEEdRKSt6vectorIT_SaIS3_EES7_b"
 "_ZN11imagefusion19estarfm_impl_detail7regressIsEEdRKSt6vectorIT_SaIS3_EES7_b"
 "_ZN11imagefusion19estarfm_impl_detail7regressItEEdRKSt6vectorIT_SaIS3_EES7_b"
 "_ZN11imagefusion19estarfm_impl_detail9correlateIaEEdRKSt6vectorIT_SaIS3_EES7_"
 "_ZN11imagefusion19estarfm_impl_detail9correlateIhEEdRKSt6vectorIT_SaIS3_EES7_"
 "_ZN11imagefusion19estarfm_impl_detail9correlateIiEEdRKSt6vectorIT_SaIS3_EES7_"
 "_ZN11imagefusion19estarfm_impl_detail9correlateIsEEdRKSt6vectorIT_SaIS3_EES7_"
 "_ZN11imagefusion19estarfm_impl_detail9correlateItEEdRKSt6vectorIT_SaIS3_EES7_"
 "_ZN11imagefusion22invalid_argument_errorC1ERKS0_"
 "_ZN11imagefusion22invalid_argument_errorD0Ev"
 "_ZN11imagefusion22invalid_argument_errorD1Ev"
 "_ZN11imagefusion5ImageD0Ev"
 "_ZN11imagefusion5ImageD1Ev"
 "_ZN11imagefusion9DataFusor11outputImageEv"
 "_ZN11imagefusion9DataFusor9srcImagesESt10shared_ptrIKNS_14MultiResImagesEE"
 "_ZN11imagefusion9to_stringB5cxx11ENS_4TypeE"
 "_ZN11imagefusion9to_stringB5cxx11ERKN2cv5Size_IiEE"
 "_ZN2cv3MatC1EiiiPvy"
 "_ZN2cv3MatC1IaEERKSt6vectorIT_SaIS3_EEb"
 "_ZN2cv3MatC1IdEERKSt6vectorIT_SaIS3_EEb"
 "_ZN2cv3MatC1IfEERKSt6vectorIT_SaIS3_EEb"
 "_ZN2cv3MatC1IhEERKSt6vectorIT_SaIS3_EEb"
 "_ZN2cv3MatC1IiEERKSt6vectorIT_SaIS3_EEb"
 "_ZN2cv3MatC1IsEERKSt6vectorIT_SaIS3_EEb"
 "_ZN2cv3MatC1ItEERKSt6vectorIT_SaIS3_EEb"
 "_ZN2cv3MatD1Ev"
 "_ZN5boost10error_infoIN11imagefusion14tag_image_typeENS1_4TypeEED0Ev"
 "_ZN5boost10error_infoIN11imagefusion14tag_image_typeENS1_4TypeEED1Ev"
 "_ZN5boost10error_infoIN11imagefusion18tag_resolution_tagENSt7__cxx1112basic_stringIcSt11char_traitsIcESaIcEEEED0Ev"
 "_ZN5boost10error_infoIN11imagefusion18tag_resolution_tagENSt7__cxx1112basic_stringIcSt11char_traitsIcESaIcEEEED1Ev"
 "_ZN5boost10error_infoIN11imagefusion8tag_dateEiED0Ev"
 "_ZN5boost10error_infoIN11imagefusion8tag_dateEiED1Ev"
 "_ZN5boost10error_infoIN11imagefusion8tag_sizeEN2cv5Size_IiEEED0Ev"
 "_ZN5boost10error_infoIN11imagefusion8tag_sizeEN2cv5Size_IiEEED1Ev"
 "_ZN5boost10wrapexceptINS_4math14rounding_errorEED0Ev"
 "_ZN5boost10wrapexceptINS_4math14rounding_errorEED1Ev"
 "_ZN5boost10wrapexceptINS_4math16evaluation_errorEED0Ev"
 "_ZN5boost10wrapexceptINS_4math16evaluation_errorEED1Ev"
 "_ZN5boost10wrapexceptISt12domain_errorED0Ev"
 "_ZN5boost10wrapexceptISt12domain_errorED1Ev"
 "_ZN5boost10wrapexceptISt14overflow_errorED0Ev"
 "_ZN5boost10wrapexceptISt14overflow_errorED1Ev"
 "_ZN5boost15throw_exceptionINS_4math14rounding_errorEEEvRKT_"
 "_ZN5boost15throw_exceptionINS_4math16evaluation_errorEEEvRKT_"
 "_ZN5boost15throw_exceptionISt12domain_errorEEvRKT_"
 "_ZN5boost15throw_exceptionISt14overflow_errorEEvRKT_"
 "_ZN5boost16exception_detail10bad_alloc_D0Ev"
 "_ZN5boost16exception_detail10bad_alloc_D1Ev"
 "_ZN5boost16exception_detail10bad_alloc_D2Ev"
 "_ZN5boost16exception_detail10clone_implINS0_10bad_alloc_EED0Ev"
 "_ZN5boost16exception_detail10clone_implINS0_10bad_alloc_EED1Ev"
 "_ZN5boost16exception_detail10clone_implINS0_14bad_exception_EED0Ev"
 "_ZN5boost16exception_detail10clone_implINS0_14bad_exception_EED1Ev"
 "_ZN5boost16exception_detail10clone_implINS0_19error_info_injectorINS_4math14rounding_errorEEEED0Ev"
 "_ZN5boost16exception_detail10clone_implINS0_19error_info_injectorINS_4math14rounding_errorEEEED1Ev"
 "_ZN5boost16exception_detail10clone_implINS0_19error_info_injectorINS_4math16evaluation_errorEEEED0Ev"
 "_ZN5boost16exception_detail10clone_implINS0_19error_info_injectorINS_4math16evaluation_errorEEEED1Ev"
 "_ZN5boost16exception_detail10clone_implINS0_19error_info_injectorISt12domain_errorEEED0Ev"
 "_ZN5boost16exception_detail10clone_implINS0_19error_info_injectorISt12domain_errorEEED1Ev"
 "_ZN5boost16exception_detail10clone_implINS0_19error_info_injectorISt14overflow_errorEEED0Ev"
 "_ZN5boost16exception_detail10clone_implINS0_19error_info_injectorISt14overflow_errorEEED1Ev"
 "_ZN5boost16exception_detail11set_info_rvINS_10error_infoIN11imagefusion14tag_image_typeENS3_4TypeEEEE3setINS3_11logic_errorEEERKT_SC_OS6_"
 "_ZN5boost16exception_detail11set_info_rvINS_10error_infoIN11imagefusion14tag_image_typeENS3_4TypeEEEE3setINS3_16image_type_errorEEERKT_SC_OS6_"
 "_ZN5boost16exception_detail11set_info_rvINS_10error_infoIN11imagefusion18tag_resolution_tagENSt7__cxx1112basic_stringIcSt11char_traitsIcESaIcEEEEEE3setINS3_15not_found_errorEEERKT_SH_OSB_"
 "_ZN5boost16exception_detail11set_info_rvINS_10error_infoIN11imagefusion8tag_dateEiEEE3setINS3_15not_found_errorEEERKT_SB_OS5_"
 "_ZN5boost16exception_detail11set_info_rvINS_10error_infoIN11imagefusion8tag_sizeEN2cv5Size_IiEEEEE3setINS3_10size_errorEEERKT_SE_OS8_"
 "_ZN5boost16exception_detail14bad_exception_D0Ev"
 "_ZN5boost16exception_detail14bad_exception_D1Ev"
 "_ZN5boost16exception_detail14bad_exception_D2Ev"
 "_ZN5boost16exception_detail19error_info_injectorINS_4math14rounding_errorEED0Ev"
 "_ZN5boost16exception_detail19error_info_injectorINS_4math14rounding_errorEED1Ev"
 "_ZN5boost16exception_detail19error_info_injectorINS_4math14rounding_errorEED2Ev"
 "_ZN5boost16exception_detail19error_info_injectorINS_4math16evaluation_errorEED0Ev"
 "_ZN5boost16exception_detail19error_info_injectorINS_4math16evaluation_errorEED1Ev"
 "_ZN5boost16exception_detail19error_info_injectorINS_4math16evaluation_errorEED2Ev"
 "_ZN5boost16exception_detail19error_info_injectorISt12domain_errorED0Ev"
 "_ZN5boost16exception_detail19error_info_injectorISt12domain_errorED1Ev"
 "_ZN5boost16exception_detail19error_info_injectorISt12domain_errorED2Ev"
 "_ZN5boost16exception_detail19error_info_injectorISt14overflow_errorED0Ev"
 "_ZN5boost16exception_detail19error_info_injectorISt14overflow_errorED1Ev"
 "_ZN5boost16exception_detail19error_info_injectorISt14overflow_errorED2Ev"
 "_ZN5boost16exception_detail20copy_boost_exceptionEPNS_9exceptionEPKS1_"
 "_ZN5boost16exception_detail25error_info_container_impl3setERKNS_10shared_ptrINS0_15error_info_baseEEERKNS0_10type_info_E"
 "_ZN5boost16exception_detail27get_static_exception_objectINS0_10bad_alloc_EEENS_13exception_ptrEv"
 "_ZN5boost16exception_detail27get_static_exception_objectINS0_14bad_exception_EEENS_13exception_ptrEv"
 "_ZN5boost16exception_detail37exception_ptr_static_exception_objectINS0_10bad_alloc_EE1eE"
 "_ZN5boost16exception_detail37exception_ptr_static_exception_objectINS0_14bad_exception_EE1eE"
 "_ZN5boost4math14rounding_errorD0Ev"
 "_ZN5boost4math14rounding_errorD1Ev"
 "_ZN5boost4math16evaluation_errorD0Ev"
 "_ZN5boost4math16evaluation_errorD1Ev"
 "_ZN5boost4math19unchecked_factorialIeEET_j"
 "_ZN5boost4math20binomial_coefficientIeNS0_8policies6policyINS2_14default_policyES4_S4_S4_S4_S4_S4_S4_S4_S4_S4_S4_S4_EEEET_jjRKT0_"
 "_ZN5boost4math21fisher_f_distributionIdNS0_8policies6policyINS2_14default_policyES4_S4_S4_S4_S4_S4_S4_S4_S4_S4_S4_S4_EEEC1ERKdS8_"
 "_ZN5boost4math3cdfIdNS0_8policies6policyINS2_14default_policyES4_S4_S4_S4_S4_S4_S4_S4_S4_S4_S4_S4_EEEET_RKNS0_21fisher_f_distributionIS6_T0_EERKS6_"
 "_ZN5boost4math5tools6detail23evaluate_rational_c_impIeyeEET1_PKT_PKT0_RKS4_PKN4mpl_4int_ILi17EEE"
 "_ZN5boost4math5tools6detail25evaluate_polynomial_c_impIeeEET0_PKT_RKS4_PKN4mpl_4int_ILi9EEE"
 "_ZN5boost4math6detail10lgamma_impIeNS0_8policies6policyINS3_13promote_floatILb0EEENS3_14promote_doubleILb0EEENS3_14default_policyES9_S9_S9_S9_S9_S9_S9_S9_S9_S9_EENS0_7lanczos12lanczos17m64EEET_SD_RKT0_RKT1_Pi"
 "_ZN5boost4math6detail12ibeta_a_stepIeNS0_8policies6policyINS3_13promote_floatILb0EEENS3_14promote_doubleILb0EEENS3_14default_policyES9_S9_S9_S9_S9_S9_S9_S9_S9_S9_EEEET_SB_SB_SB_SB_iRKT0_bPSB_"
 "_ZN5boost4math6detail12ibeta_seriesIeNS0_7lanczos12lanczos17m64ENS0_8policies6policyINS5_13promote_floatILb0EEENS5_14promote_doubleILb0EEENS5_14default_policyESB_SB_SB_SB_SB_SB_SB_SB_SB_SB_EEEET_SD_SD_SD_SD_RKT0_bPSD_SD_RKT1_"
 "_ZN5boost4math6detail13binomial_ccdfIeEET_S3_S3_S3_S3_"
 "_ZN5boost4math6detail15ibeta_fraction2IeNS0_8policies6policyINS3_13promote_floatILb0EEENS3_14promote_doubleILb0EEENS3_14default_policyES9_S9_S9_S9_S9_S9_S9_S9_S9_S9_EEEET_SB_SB_SB_SB_RKT0_bPSB_"
 "_ZN5boost4math6detail16lgamma_small_impIeNS0_8policies6policyINS3_13promote_floatILb0EEENS3_14promote_doubleILb0EEENS3_14default_policyES9_S9_S9_S9_S9_S9_S9_S9_S9_S9_EENS0_7lanczos12lanczos17m64EEET_SD_SD_SD_RKN4mpl_4int_ILi64EEERKT0_RKT1_"
 "_ZN5boost4math6detail17ibeta_power_termsIeNS0_7lanczos12lanczos17m64ENS0_8policies6policyINS5_13promote_floatILb0EEENS5_14promote_doubleILb0EEENS5_14default_policyESB_SB_SB_SB_SB_SB_SB_SB_SB_SB_EEEET_SD_SD_SD_SD_RKT0_bRKT1_SD_PKc"
 "_ZN5boost4math6detail18full_igamma_prefixIeNS0_8policies6policyINS3_13promote_floatILb0EEENS3_14promote_doubleILb0EEENS3_14default_policyES9_S9_S9_S9_S9_S9_S9_S9_S9_S9_EEEET_SB_SB_RKT0_"
 "_ZN5boost4math6detail18igamma_temme_largeIeNS0_8policies6policyINS3_13promote_floatILb0EEENS3_14promote_doubleILb0EEENS3_14default_policyES9_S9_S9_S9_S9_S9_S9_S9_S9_S9_EEEET_SB_SB_RKT0_PKN4mpl_4int_ILi64EEE"
 "_ZN5boost4math6detail18lower_gamma_seriesIeNS0_8policies6policyINS3_13promote_floatILb0EEENS3_14promote_doubleILb0EEENS3_14default_policyES9_S9_S9_S9_S9_S9_S9_S9_S9_S9_EEEET_SB_SB_RKT0_SB_"
 "_ZN5boost4math6detail19finite_half_gamma_qIeNS0_8policies6policyINS3_13promote_floatILb0EEENS3_14promote_doubleILb0EEENS3_14default_policyES9_S9_S9_S9_S9_S9_S9_S9_S9_S9_EEEET_SB_SB_PSB_RKT0_"
 "_ZN5boost4math6detail20gamma_incomplete_impIeNS0_8policies6policyINS3_13promote_floatILb0EEENS3_14promote_doubleILb0EEENS3_14default_policyES9_S9_S9_S9_S9_S9_S9_S9_S9_S9_EEEET_SB_SB_bbRKT0_PSB_"
 "_ZN5boost4math6detail22tgamma_delta_ratio_impIeNS0_8policies6policyINS3_13promote_floatILb0EEENS3_14promote_doubleILb0EEENS3_14default_policyES9_S9_S9_S9_S9_S9_S9_S9_S9_S9_EEEET_SB_SB_RKT0_"
 "_ZN5boost4math6detail24regularised_gamma_prefixIeNS0_8policies6policyINS3_13promote_floatILb0EEENS3_14promote_doubleILb0EEENS3_14default_policyES9_S9_S9_S9_S9_S9_S9_S9_S9_S9_EENS0_7lanczos12lanczos17m64EEET_SD_SD_RKT0_RKT1_"
 "_ZN5boost4math6detail27beta_small_b_large_a_seriesIeNS0_8policies6policyINS3_13promote_floatILb0EEENS3_14promote_doubleILb0EEENS3_14default_policyES9_S9_S9_S9_S9_S9_S9_S9_S9_S9_EEEET_SB_SB_SB_SB_SB_SB_RKT0_b"
 "_ZN5boost4math6detail30tgamma_delta_ratio_imp_lanczosIeNS0_8policies6policyINS3_13promote_floatILb0EEENS3_14promote_doubleILb0EEENS3_14default_policyES9_S9_S9_S9_S9_S9_S9_S9_S9_S9_EENS0_7lanczos12lanczos17m64EEET_SD_SD_RKT0_RKT1_"
 "_ZN5boost4math6detail5sinpxIeEET_S3_"
 "_ZN5boost4math6detail7erf_impIeNS0_8policies6policyINS3_13promote_floatILb0EEENS3_14promote_doubleILb0EEENS3_14default_policyES9_S9_S9_S9_S9_S9_S9_S9_S9_S9_EEEET_SB_bRKT0_RKN4mpl_4int_ILi64EEE"
 "_ZN5boost4math6detail8beta_impIeNS0_7lanczos12lanczos17m64ENS0_8policies6policyINS5_13promote_floatILb0EEENS5_14promote_doubleILb0EEENS5_14default_policyESB_SB_SB_SB_SB_SB_SB_SB_SB_SB_EEEET_SD_SD_RKT0_RKT1_"
 "_ZN5boost4math6detail9expm1_impIeNS0_8policies6policyINS3_13promote_floatILb0EEENS3_14promote_doubleILb0EEENS3_14default_policyES9_S9_S9_S9_S9_S9_S9_S9_S9_S9_EEEET_SB_RKN4mpl_4int_ILi64EEERKT0_"
 "_ZN5boost4math6detail9gamma_impIeNS0_8policies6policyINS3_13promote_floatILb0EEENS3_14promote_doubleILb0EEENS3_14default_policyES9_S9_S9_S9_S9_S9_S9_S9_S9_S9_EENS0_7lanczos12lanczos17m64EEET_SD_RKT0_RKT1_"
 "_ZN5boost4math6detail9ibeta_impIeNS0_8policies6policyINS3_13promote_floatILb0EEENS3_14promote_doubleILb0EEENS3_14default_policyES9_S9_S9_S9_S9_S9_S9_S9_S9_S9_EEEET_SB_SB_SB_RKT0_bbPSB_"
 "_ZN5boost4math6detail9log1p_impIeNS0_8policies6policyINS3_13promote_floatILb0EEENS3_14promote_doubleILb0EEENS3_14default_policyES9_S9_S9_S9_S9_S9_S9_S9_S9_S9_EEEET_RKSB_RKT0_RKN4mpl_4int_ILi64EEE"
 "_ZN5boost4math6detail9powm1_impIeNS0_8policies6policyINS3_13promote_floatILb0EEENS3_14promote_doubleILb0EEENS3_14default_policyES9_S9_S9_S9_S9_S9_S9_S9_S9_S9_EEEET_SB_SB_RKT0_"
 "_ZN5boost4math6itruncIeNS0_8policies6policyINS2_13promote_floatILb0EEENS2_14promote_doubleILb0EEENS2_14default_policyES8_S8_S8_S8_S8_S8_S8_S8_S8_S8_EEEEiRKT_RKT0_"
 "_ZN5boost4math7lanczos12lanczos17m6411lanczos_sumIeEET_RKS4_"
 "_ZN5boost4math7lanczos12lanczos17m6418lanczos_sum_near_1IeEET_RKS4_"
 "_ZN5boost4math7lanczos12lanczos17m6418lanczos_sum_near_2IeEET_RKS4_"
 "_ZN5boost4math7lanczos12lanczos17m6423lanczos_sum_expG_scaledIeEET_RKS4_"
 "_ZN5boost4math7log1pmxIeNS0_8policies6policyINS2_13promote_floatILb0EEENS2_14promote_doubleILb0EEENS2_14default_policyES8_S8_S8_S8_S8_S8_S8_S8_S8_S8_EEEENS0_5tools12promote_argsIT_fffffE4typeESC_RKT0_"
 "_ZN5boost4math8policies6detail11prec_formatIdEENSt7__cxx1112basic_stringIcSt11char_traitsIcESaIcEEERKT_"
 "_ZN5boost4math8policies6detail11prec_formatIeEENSt7__cxx1112basic_stringIcSt11char_traitsIcESaIcEEERKT_"
 "_ZN5boost4math8policies6detail11raise_errorINS0_14rounding_errorEdEEvPKcS6_RKT0_"
 "_ZN5boost4math8policies6detail11raise_errorINS0_14rounding_errorEeEEvPKcS6_RKT0_"
 "_ZN5boost4math8policies6detail11raise_errorINS0_16evaluation_errorEeEEvPKcS6_RKT0_"
 "_ZN5boost4math8policies6detail11raise_errorISt12domain_errordEEvPKcS6_RKT0_"
 "_ZN5boost4math8policies6detail11raise_errorISt12domain_erroreEEvPKcS6_RKT0_"
 "_ZN5boost4math8policies6detail11raise_errorISt14overflow_errordEEvPKcS6_"
 "_ZN5boost4math8policies6detail11raise_errorISt14overflow_erroreEEvPKcS6_"
 "_ZN5boost4math8policies6detail21replace_all_in_stringERNSt7__cxx1112basic_stringIcSt11char_traitsIcESaIcEEEPKcSB_"
 "_ZN5boost6detail15sp_counted_base7destroyEv"
 "_ZN5boost6detail15sp_counted_base7releaseEv"
 "_ZN5boost6detail17sp_counted_impl_pINS_10error_infoIN11imagefusion14tag_image_typeENS3_4TypeEEEE11get_deleterERKSt9type_info"
 "_ZN5boost6detail17sp_counted_impl_pINS_10error_infoIN11imagefusion14tag_image_typeENS3_4TypeEEEE17get_local_deleterERKSt9type_info"
 "_ZN5boost6detail17sp_counted_impl_pINS_10error_infoIN11imagefusion14tag_image_typeENS3_4TypeEEEE19get_untyped_deleterEv"
 "_ZN5boost6detail17sp_counted_impl_pINS_10error_infoIN11imagefusion14tag_image_typeENS3_4TypeEEEE7disposeEv"
 "_ZN5boost6detail17sp_counted_impl_pINS_10error_infoIN11imagefusion14tag_image_typeENS3_4TypeEEEED0Ev"
 "_ZN5boost6detail17sp_counted_impl_pINS_10error_infoIN11imagefusion14tag_image_typeENS3_4TypeEEEED1Ev"
 "_ZN5boost6detail17sp_counted_impl_pINS_10error_infoIN11imagefusion18tag_resolution_tagENSt7__cxx1112basic_stringIcSt11char_traitsIcESaIcEEEEEE11get_deleterERKSt9type_info"
 "_ZN5boost6detail17sp_counted_impl_pINS_10error_infoIN11imagefusion18tag_resolution_tagENSt7__cxx1112basic_stringIcSt11char_traitsIcESaIcEEEEEE17get_local_deleterERKSt9type_info"
 "_ZN5boost6detail17sp_counted_impl_pINS_10error_infoIN11imagefusion18tag_resolution_tagENSt7__cxx1112basic_stringIcSt11char_traitsIcESaIcEEEEEE19get_untyped_deleterEv"
 "_ZN5boost6detail17sp_counted_impl_pINS_10error_infoIN11imagefusion18tag_resolution_tagENSt7__cxx1112basic_stringIcSt11char_traitsIcESaIcEEEEEE7disposeEv"
 "_ZN5boost6detail17sp_counted_impl_pINS_10error_infoIN11imagefusion18tag_resolution_tagENSt7__cxx1112basic_stringIcSt11char_traitsIcESaIcEEEEEED0Ev"
 "_ZN5boost6detail17sp_counted_impl_pINS_10error_infoIN11imagefusion18tag_resolution_tagENSt7__cxx1112basic_stringIcSt11char_traitsIcESaIcEEEEEED1Ev"
 "_ZN5boost6detail17sp_counted_impl_pINS_10error_infoIN11imagefusion8tag_dateEiEEE11get_deleterERKSt9type_info"
 "_ZN5boost6detail17sp_counted_impl_pINS_10error_infoIN11imagefusion8tag_dateEiEEE17get_local_deleterERKSt9type_info"
 "_ZN5boost6detail17sp_counted_impl_pINS_10error_infoIN11imagefusion8tag_dateEiEEE19get_untyped_deleterEv"
 "_ZN5boost6detail17sp_counted_impl_pINS_10error_infoIN11imagefusion8tag_dateEiEEE7disposeEv"
 "_ZN5boost6detail17sp_counted_impl_pINS_10error_infoIN11imagefusion8tag_dateEiEEED0Ev"
 "_ZN5boost6detail17sp_counted_impl_pINS_10error_infoIN11imagefusion8tag_dateEiEEED1Ev"
 "_ZN5boost6detail17sp_counted_impl_pINS_10error_infoIN11imagefusion8tag_sizeEN2cv5Size_IiEEEEE11get_deleterERKSt9type_info"
 "_ZN5boost6detail17sp_counted_impl_pINS_10error_infoIN11imagefusion8tag_sizeEN2cv5Size_IiEEEEE17get_local_deleterERKSt9type_info"
 "_ZN5boost6detail17sp_counted_impl_pINS_10error_infoIN11imagefusion8tag_sizeEN2cv5Size_IiEEEEE19get_untyped_deleterEv"
 "_ZN5boost6detail17sp_counted_impl_pINS_10error_infoIN11imagefusion8tag_sizeEN2cv5Size_IiEEEEE7disposeEv"
 "_ZN5boost6detail17sp_counted_impl_pINS_10error_infoIN11imagefusion8tag_sizeEN2cv5Size_IiEEEEED0Ev"
 "_ZN5boost6detail17sp_counted_impl_pINS_10error_infoIN11imagefusion8tag_sizeEN2cv5Size_IiEEEEED1Ev"
 "_ZN5boost6detail17sp_counted_impl_pINS_16exception_detail10clone_implINS2_10bad_alloc_EEEE11get_deleterERKSt9type_info"
 "_ZN5boost6detail17sp_counted_impl_pINS_16exception_detail10clone_implINS2_10bad_alloc_EEEE17get_local_deleterERKSt9type_info"
 "_ZN5boost6detail17sp_counted_impl_pINS_16exception_detail10clone_implINS2_10bad_alloc_EEEE19get_untyped_deleterEv"
 "_ZN5boost6detail17sp_counted_impl_pINS_16exception_detail10clone_implINS2_10bad_alloc_EEEE7disposeEv"
 "_ZN5boost6detail17sp_counted_impl_pINS_16exception_detail10clone_implINS2_10bad_alloc_EEEED0Ev"
 "_ZN5boost6detail17sp_counted_impl_pINS_16exception_detail10clone_implINS2_10bad_alloc_EEEED1Ev"
 "_ZN5boost6detail17sp_counted_impl_pINS_16exception_detail10clone_implINS2_14bad_exception_EEEE11get_deleterERKSt9type_info"
 "_ZN5boost6detail17sp_counted_impl_pINS_16exception_detail10clone_implINS2_14bad_exception_EEEE17get_local_deleterERKSt9type_info"
 "_ZN5boost6detail17sp_counted_impl_pINS_16exception_detail10clone_implINS2_14bad_exception_EEEE19get_untyped_deleterEv"
 "_ZN5boost6detail17sp_counted_impl_pINS_16exception_detail10clone_implINS2_14bad_exception_EEEE7disposeEv"
 "_ZN5boost6detail17sp_counted_impl_pINS_16exception_detail10clone_implINS2_14bad_exception_EEEED0Ev"
 "_ZN5boost6detail17sp_counted_impl_pINS_16exception_detail10clone_implINS2_14bad_exception_EEEED1Ev"
 "_ZN5boost6detail17sp_counted_impl_pINS_16exception_detail15error_info_baseEE11get_deleterERKSt9type_info"
 "_ZN5boost6detail17sp_counted_impl_pINS_16exception_detail15error_info_baseEE17get_local_deleterERKSt9type_info"
 "_ZN5boost6detail17sp_counted_impl_pINS_16exception_detail15error_info_baseEE19get_untyped_deleterEv"
 "_ZN5boost6detail17sp_counted_impl_pINS_16exception_detail15error_info_baseEE7disposeEv"
 "_ZN5boost6detail17sp_counted_impl_pINS_16exception_detail15error_info_baseEED0Ev"
 "_ZN5boost6detail17sp_counted_impl_pINS_16exception_detail15error_info_baseEED1Ev"
 "_ZN5boost9to_stringIN11imagefusion18tag_resolution_tagENSt7__cxx1112basic_stringIcSt11char_traitsIcESaIcEEEEES8_RKNS_10error_infoIT_T0_EE"
 "_ZN5boost9to_stringIN11imagefusion8tag_dateEiEENSt7__cxx1112basic_stringIcSt11char_traitsIcESaIcEEERKNS_10error_infoIT_T0_EE"
 "_ZN5boost9to_stringIN11imagefusion8tag_sizeEN2cv5Size_IiEEEENSt7__cxx1112basic_stringIcSt11char_traitsIcESaIcEEERKNS_10error_infoIT_T0_EE"
 "_ZN9__gnu_cxx12__to_xstringINSt7__cxx1112basic_stringIcSt11char_traitsIcESaIcEEEcEET_PFiPT0_yPKS8_PcEySB_z"
 "_ZNK11imagefusion10ConstImage10sharedCopyEN2cv5Rect_IiEE"
 "_ZNK11imagefusion10ConstImage10sharedCopyEv"
 "_ZNK11imagefusion12EstarfmFusor10getOptionsEv"
 "_ZNK11imagefusion12EstarfmFusor14findSampleAreaERKN2cv5Size_IiEERKNS1_5Rect_IiEE"
 "_ZNK11imagefusion12EstarfmFusor16checkInputImagesERKNS_10ConstImageES3_i"
 "_ZNK11imagefusion12EstarfmFusor22computeDistanceWeightsEv"
 "_ZNK11imagefusion14EstarfmOptions15getDataRangeMaxEv"
 "_ZNK11imagefusion14EstarfmOptions15getDataRangeMinEv"
 "_ZNK11imagefusion14EstarfmOptions8getDate1Ev"
 "_ZNK11imagefusion14EstarfmOptions8getDate3Ev"
 "_ZNK11imagefusion18MultiResCollectionINS_5ImageEE3getERKNSt7__cxx1112basic_stringIcSt11char_traitsIcESaIcEEEi"
 "_ZNK11imagefusion18MultiResCollectionINS_5ImageEE3hasERKNSt7__cxx1112basic_stringIcSt11char_traitsIcESaIcEEEi"
 "_ZNK11imagefusion18MultiResCollectionINS_5ImageEE6getAnyEv"
 "_ZNK11imagefusion19estarfm_impl_detail12PredictPixelclILNS_4TypeE0EEEvv"
 "_ZNK11imagefusion19estarfm_impl_detail12PredictPixelclILNS_4TypeE1EEEvv"
 "_ZNK11imagefusion19estarfm_impl_detail12PredictPixelclILNS_4TypeE2EEEvv"
 "_ZNK11imagefusion19estarfm_impl_detail12PredictPixelclILNS_4TypeE3EEEvv"
 "_ZNK11imagefusion19estarfm_impl_detail12PredictPixelclILNS_4TypeE4EEEvv"
 "_ZNK11imagefusion19estarfm_impl_detail12PredictPixelclILNS_4TypeE5EEEvv"
 "_ZNK11imagefusion19estarfm_impl_detail12PredictPixelclILNS_4TypeE6EEEvv"
 "_ZNK11imagefusion19estarfm_impl_detail15SumAndTolHelper12collectStatsILNS_4TypeE0EEENS1_5StatsENS_10ConstImageES5_S5_S5_S5_S5_j"
 "_ZNK11imagefusion19estarfm_impl_detail15SumAndTolHelper12collectStatsILNS_4TypeE1EEENS1_5StatsENS_10ConstImageES5_S5_S5_S5_S5_j"
 "_ZNK11imagefusion19estarfm_impl_detail15SumAndTolHelper12collectStatsILNS_4TypeE2EEENS1_5StatsENS_10ConstImageES5_S5_S5_S5_S5_j"
 "_ZNK11imagefusion19estarfm_impl_detail15SumAndTolHelper12collectStatsILNS_4TypeE3EEENS1_5StatsENS_10ConstImageES5_S5_S5_S5_S5_j"
 "_ZNK11imagefusion19estarfm_impl_detail15SumAndTolHelper12collectStatsILNS_4TypeE4EEENS1_5StatsENS_10ConstImageES5_S5_S5_S5_S5_j"
 "_ZNK11imagefusion19estarfm_impl_detail15SumAndTolHelper12collectStatsILNS_4TypeE5EEENS1_5StatsENS_10ConstImageES5_S5_S5_S5_S5_j"
 "_ZNK11imagefusion19estarfm_impl_detail15SumAndTolHelper12collectStatsILNS_4TypeE6EEENS1_5StatsENS_10ConstImageES5_S5_S5_S5_S5_j"
 "_ZNK11imagefusion19estarfm_impl_detail19ComputeLocalWeightsclILNS_4TypeE0EEENS_5ImageEv"
 "_ZNK11imagefusion19estarfm_impl_detail19ComputeLocalWeightsclILNS_4TypeE1EEENS_5ImageEv"
 "_ZNK11imagefusion19estarfm_impl_detail19ComputeLocalWeightsclILNS_4TypeE2EEENS_5ImageEv"
 "_ZNK11imagefusion19estarfm_impl_detail19ComputeLocalWeightsclILNS_4TypeE3EEENS_5ImageEv"
 "_ZNK11imagefusion19estarfm_impl_detail19ComputeLocalWeightsclILNS_4TypeE4EEENS_5ImageEv"
 "_ZNK11imagefusion19estarfm_impl_detail19ComputeLocalWeightsclILNS_4TypeE5EEENS_5ImageEv"
 "_ZNK11imagefusion19estarfm_impl_detail19ComputeLocalWeightsclILNS_4TypeE6EEENS_5ImageEv"
 "_ZNK11imagefusion9DataFusor11outputImageEv"
 "_ZNK11imagefusion9DataFusor9srcImagesEv"
 "_ZNK2cv3Mat5emptyEv"
 "_ZNK5boost10error_infoIN11imagefusion14tag_image_typeENS1_4TypeEE17name_value_stringB5cxx11Ev"
 "_ZNK5boost10error_infoIN11imagefusion14tag_image_typeENS1_4TypeEE5cloneEv"
 "_ZNK5boost10error_infoIN11imagefusion18tag_resolution_tagENSt7__cxx1112basic_stringIcSt11char_traitsIcESaIcEEEE17name_value_stringEv"
 "_ZNK5boost10error_infoIN11imagefusion18tag_resolution_tagENSt7__cxx1112basic_stringIcSt11char_traitsIcESaIcEEEE5cloneEv"
 "_ZNK5boost10error_infoIN11imagefusion8tag_dateEiE17name_value_stringB5cxx11Ev"
 "_ZNK5boost10error_infoIN11imagefusion8tag_dateEiE5cloneEv"
 "_ZNK5boost10error_infoIN11imagefusion8tag_sizeEN2cv5Size_IiEEE17name_value_stringB5cxx11Ev"
 "_ZNK5boost10error_infoIN11imagefusion8tag_sizeEN2cv5Size_IiEEE5cloneEv"
 "_ZNK5boost16exception_detail10clone_implINS0_10bad_alloc_EE5cloneEv"
 "_ZNK5boost16exception_detail10clone_implINS0_10bad_alloc_EE7rethrowEv"
 "_ZNK5boost16exception_detail10clone_implINS0_14bad_exception_EE5cloneEv"
 "_ZNK5boost16exception_detail10clone_implINS0_14bad_exception_EE7rethrowEv"
 "_ZNK5boost16exception_detail10clone_implINS0_19error_info_injectorINS_4math14rounding_errorEEEE5cloneEv"
 "_ZNK5boost16exception_detail10clone_implINS0_19error_info_injectorINS_4math14rounding_errorEEEE7rethrowEv"
 "_ZNK5boost16exception_detail10clone_implINS0_19error_info_injectorINS_4math16evaluation_errorEEEE5cloneEv"
 "_ZNK5boost16exception_detail10clone_implINS0_19error_info_injectorINS_4math16evaluation_errorEEEE7rethrowEv"
 "_ZNK5boost16exception_detail10clone_implINS0_19error_info_injectorISt12domain_errorEEE5cloneEv"
 "_ZNK5boost16exception_detail10clone_implINS0_19error_info_injectorISt12domain_errorEEE7rethrowEv"
 "_ZNK5boost16exception_detail10clone_implINS0_19error_info_injectorISt14overflow_errorEEE5cloneEv"
 "_ZNK5boost16exception_detail10clone_implINS0_19error_info_injectorISt14overflow_errorEEE7rethrowEv"
 "_ZNK5boost16exception_detail25error_info_container_impl22diagnostic_informationEPKc"
 "_ZNK5boost16exception_detail25error_info_container_impl3getERKNS0_10type_info_E"
 "_ZNK5boost16exception_detail25error_info_container_impl5cloneEv"
 "_ZNK5boost16exception_detail25error_info_container_impl7add_refEv"
 "_ZNK5boost16exception_detail25error_info_container_impl7releaseEv"
 "_ZNKSt7__cxx1112basic_stringIcSt11char_traitsIcESaIcEE4findEPKcyy"
 "_ZNKSt8_Rb_treeINSt7__cxx1112basic_stringIcSt11char_traitsIcESaIcEEESt4pairIKS5_St3mapIiN11imagefusion5ImageESt4lessIiESaIS6_IKiSA_EEEESt10_Select1stISH_ESB_IS5_ESaISH_EE4findERS7_"
 "_ZNSt4pairISt6vectorIdSaIdEES2_ED1Ev"
 "_ZNSt6vectorIS_IaSaIaEESaIS1_EED1Ev"
 "_ZNSt6vectorIS_IdSaIdEESaIS1_EED1Ev"
 "_ZNSt6vectorIS_IfSaIfEESaIS1_EED1Ev"
 "_ZNSt6vectorIS_IhSaIhEESaIS1_EED1Ev"
 "_ZNSt6vectorIS_IiSaIiEESaIS1_EED1Ev"
 "_ZNSt6vectorIS_IsSaIsEESaIS1_EED1Ev"
 "_ZNSt6vectorIS_ItSaItEESaIS1_EED1Ev"
 "_ZNSt6vectorIaSaIaEE17_M_realloc_insertIJRKaEEEvN9__gnu_cxx17__normal_iteratorIPaS1_EEDpOT_"
 "_ZNSt6vectorIaSaIaEE7reserveEy"
 "_ZNSt6vectorIdSaIdEE17_M_realloc_insertIJRKdEEEvN9__gnu_cxx17__normal_iteratorIPdS1_EEDpOT_"
 "_ZNSt6vectorIdSaIdEE7reserveEy"
 "_ZNSt6vectorIfSaIfEE17_M_realloc_insertIJRKfEEEvN9__gnu_cxx17__normal_iteratorIPfS1_EEDpOT_"
 "_ZNSt6vectorIfSaIfEE7reserveEy"
 "_ZNSt6vectorIhSaIhEE17_M_realloc_insertIJRKhEEEvN9__gnu_cxx17__normal_iteratorIPhS1_EEDpOT_"
 "_ZNSt6vectorIhSaIhEE7reserveEy"
 "_ZNSt6vectorIiSaIiEE17_M_realloc_insertIJRKiEEEvN9__gnu_cxx17__normal_iteratorIPiS1_EEDpOT_"
 "_ZNSt6vectorIiSaIiEE7reserveEy"
 "_ZNSt6vectorIsSaIsEE17_M_realloc_insertIJRKsEEEvN9__gnu_cxx17__normal_iteratorIPsS1_EEDpOT_"
 "_ZNSt6vectorIsSaIsEE7reserveEy"
 "_ZNSt6vectorItSaItEE17_M_realloc_insertIJRKtEEEvN9__gnu_cxx17__normal_iteratorIPtS1_EEDpOT_"
 "_ZNSt6vectorItSaItEE7reserveEy"
 "_ZNSt7__cxx1112basic_stringIcSt11char_traitsIcESaIcEE10_M_replaceEyyPKcy"
 "_ZNSt7__cxx1112basic_stringIcSt11char_traitsIcESaIcEE12_M_constructIPcEEvT_S7_St20forward_iterator_tag"
 "_ZNSt7__cxx1112basic_stringIcSt11char_traitsIcESaIcEE14_M_replace_auxEyyyc"
 "_ZNSt7__cxx1112basic_stringIcSt11char_traitsIcESaIcEE6appendEPKc"
 "_ZNSt7__cxx1112basic_stringIcSt11char_traitsIcESaIcEE9_M_appendEPKcy"
 "_ZNSt7__cxx1112basic_stringIcSt11char_traitsIcESaIcEE9_M_assignERKS4_"
 "_ZNSt7__cxx1112basic_stringIcSt11char_traitsIcESaIcEE9_M_mutateEyyPKcy"
 "_ZNSt8_Rb_treeIN5boost16exception_detail10type_info_ESt4pairIKS2_NS0_10shared_ptrINS1_15error_info_baseEEEESt10_Select1stIS8_ESt4lessIS2_ESaIS8_EE14_M_insert_nodeEPSt18_Rb_tree_node_baseSG_PSt13_Rb_tree_nodeIS8_E"
 "_ZNSt8_Rb_treeIN5boost16exception_detail10type_info_ESt4pairIKS2_NS0_10shared_ptrINS1_15error_info_baseEEEESt10_Select1stIS8_ESt4lessIS2_ESaIS8_EE24_M_get_insert_unique_posERS4_"
 "_ZNSt8_Rb_treeIN5boost16exception_detail10type_info_ESt4pairIKS2_NS0_10shared_ptrINS1_15error_info_baseEEEESt10_Select1stIS8_ESt4lessIS2_ESaIS8_EE8_M_eraseEPSt13_Rb_tree_nodeIS8_E"
 "_ZStplIcSt11char_traitsIcESaIcEENSt7__cxx1112basic_stringIT_T0_T1_EEOS8_PKS5_"
 "_ZStplIcSt11char_traitsIcESaIcEENSt7__cxx1112basic_stringIT_T0_T1_EEOS8_RKS8_"
 "_ZStplIcSt11char_traitsIcESaIcEENSt7__cxx1112basic_stringIT_T0_T1_EEOS8_S9_"
 "_ZStplIcSt11char_traitsIcESaIcEENSt7__cxx1112basic_stringIT_T0_T1_EEPKS5_OS8_"
 "_ZStplIcSt11char_traitsIcESaIcEENSt7__cxx1112basic_stringIT_T0_T1_EEPKS5_RKS8_"
 "_ZTCN11imagefusion10size_errorE0_NS_13runtime_errorE"
 "_ZTCN11imagefusion15not_found_errorE0_NS_13runtime_errorE"
 "_ZTCN11imagefusion16image_type_errorE0_NS_13runtime_errorE"
 "_ZTCN11imagefusion22invalid_argument_errorE0_NS_13runtime_errorE"
 "_ZTCN5boost10wrapexceptINS_4math14rounding_errorEEE0_NS_16exception_detail10clone_implINS4_19error_info_injectorIS2_EEEE"
 "_ZTCN5boost10wrapexceptINS_4math16evaluation_errorEEE0_NS_16exception_detail10clone_implINS4_19error_info_injectorIS2_EEEE"
 "_ZTCN5boost10wrapexceptISt12domain_errorEE0_NS_16exception_detail10clone_implINS3_19error_info_injectorIS1_EEEE"
 "_ZTCN5boost10wrapexceptISt14overflow_errorEE0_NS_16exception_detail10clone_implINS3_19error_info_injectorIS1_EEEE"
 "_ZTIN11imagefusion10ConstImageE"
 "_ZTIN11imagefusion10size_errorE"
 "_ZTIN11imagefusion11logic_errorE"
 "_ZTIN11imagefusion12EstarfmFusorE"
 "_ZTIN11imagefusion13runtime_errorE"
 "_ZTIN11imagefusion14EstarfmOptionsE"
 "_ZTIN11imagefusion15not_found_errorE"
 "_ZTIN11imagefusion16image_type_errorE"
 "_ZTIN11imagefusion22invalid_argument_errorE"
 "_ZTIN11imagefusion5ImageE"
 "_ZTIN11imagefusion7OptionsE"
 "_ZTIN11imagefusion9DataFusorE"
 "_ZTIN5boost10error_infoIN11imagefusion14tag_image_typeENS1_4TypeEEE"
 "_ZTIN5boost10error_infoIN11imagefusion18tag_resolution_tagENSt7__cxx1112basic_stringIcSt11char_traitsIcESaIcEEEEE"
 "_ZTIN5boost10error_infoIN11imagefusion8tag_dateEiEE"
 "_ZTIN5boost10error_infoIN11imagefusion8tag_sizeEN2cv5Size_IiEEEE"
 "_ZTIN5boost10wrapexceptINS_4math14rounding_errorEEE"
 "_ZTIN5boost10wrapexceptINS_4math16evaluation_errorEEE"
 "_ZTIN5boost10wrapexceptISt12domain_errorEE"
 "_ZTIN5boost10wrapexceptISt14overflow_errorEE"
 "_ZTIN5boost16exception_detail10bad_alloc_E"
 "_ZTIN5boost16exception_detail10clone_baseE"
 "_ZTIN5boost16exception_detail10clone_implINS0_10bad_alloc_EEE"
 "_ZTIN5boost16exception_detail10clone_implINS0_14bad_exception_EEE"
 "_ZTIN5boost16exception_detail10clone_implINS0_19error_info_injectorINS_4math14rounding_errorEEEEE"
 "_ZTIN5boost16exception_detail10clone_implINS0_19error_info_injectorINS_4math16evaluation_errorEEEEE"
 "_ZTIN5boost16exception_detail10clone_implINS0_19error_info_injectorISt12domain_errorEEEE"
 "_ZTIN5boost16exception_detail10clone_implINS0_19error_info_injectorISt14overflow_errorEEEE"
 "_ZTIN5boost16exception_detail14bad_exception_E"
 "_ZTIN5boost16exception_detail15error_info_baseE"
 "_ZTIN5boost16exception_detail19error_info_injectorINS_4math14rounding_errorEEE"
 "_ZTIN5boost16exception_detail19error_info_injectorINS_4math16evaluation_errorEEE"
 "_ZTIN5boost16exception_detail19error_info_injectorISt12domain_errorEE"
 "_ZTIN5boost16exception_detail19error_info_injectorISt14overflow_errorEE"
 "_ZTIN5boost16exception_detail20error_info_containerE"
 "_ZTIN5boost16exception_detail25error_info_container_implE"
 "_ZTIN5boost4math14rounding_errorE"
 "_ZTIN5boost4math16evaluation_errorE"
 "_ZTIN5boost6detail15sp_counted_baseE"
 "_ZTIN5boost6detail17sp_counted_impl_pINS_10error_infoIN11imagefusion14tag_image_typeENS3_4TypeEEEEE"
 "_ZTIN5boost6detail17sp_counted_impl_pINS_10error_infoIN11imagefusion18tag_resolution_tagENSt7__cxx1112basic_stringIcSt11char_traitsIcESaIcEEEEEEE"
 "_ZTIN5boost6detail17sp_counted_impl_pINS_10error_infoIN11imagefusion8tag_dateEiEEEE"
 "_ZTIN5boost6detail17sp_counted_impl_pINS_10error_infoIN11imagefusion8tag_sizeEN2cv5Size_IiEEEEEE"
 "_ZTIN5boost6detail17sp_counted_impl_pINS_16exception_detail10clone_implINS2_10bad_alloc_EEEEE"
 "_ZTIN5boost6detail17sp_counted_impl_pINS_16exception_detail10clone_implINS2_14bad_exception_EEEEE"
 "_ZTIN5boost6detail17sp_counted_impl_pINS_16exception_detail15error_info_baseEEE"
 "_ZTIN5boost9exceptionE"
 "_ZTISt11logic_error"
 "_ZTISt12domain_error"
 "_ZTISt13bad_exception"
 "_ZTISt13runtime_error"
 "_ZTISt14overflow_error"
 "_ZTISt9bad_alloc"
 "_ZTISt9exception"
 "_ZTSN11imagefusion10ConstImageE"
 "_ZTSN11imagefusion10size_errorE"
 "_ZTSN11imagefusion11logic_errorE"
 "_ZTSN11imagefusion12EstarfmFusorE"
 "_ZTSN11imagefusion13runtime_errorE"
 "_ZTSN11imagefusion14EstarfmOptionsE"
 "_ZTSN11imagefusion15not_found_errorE"
 "_ZTSN11imagefusion16image_type_errorE"
 "_ZTSN11imagefusion22invalid_argument_errorE"
 "_ZTSN11imagefusion5ImageE"
 "_ZTSN11imagefusion7OptionsE"
 "_ZTSN11imagefusion9DataFusorE"
 "_ZTSN5boost10error_infoIN11imagefusion14tag_image_typeENS1_4TypeEEE"
 "_ZTSN5boost10error_infoIN11imagefusion18tag_resolution_tagENSt7__cxx1112basic_stringIcSt11char_traitsIcESaIcEEEEE"
 "_ZTSN5boost10error_infoIN11imagefusion8tag_dateEiEE"
 "_ZTSN5boost10error_infoIN11imagefusion8tag_sizeEN2cv5Size_IiEEEE"
 "_ZTSN5boost10wrapexceptINS_4math14rounding_errorEEE"
 "_ZTSN5boost10wrapexceptINS_4math16evaluation_errorEEE"
 "_ZTSN5boost10wrapexceptISt12domain_errorEE"
 "_ZTSN5boost10wrapexceptISt14overflow_errorEE"
 "_ZTSN5boost16exception_detail10bad_alloc_E"
 "_ZTSN5boost16exception_detail10clone_baseE"
 "_ZTSN5boost16exception_detail10clone_implINS0_10bad_alloc_EEE"
 "_ZTSN5boost16exception_detail10clone_implINS0_14bad_exception_EEE"
 "_ZTSN5boost16exception_detail10clone_implINS0_19error_info_injectorINS_4math14rounding_errorEEEEE"
 "_ZTSN5boost16exception_detail10clone_implINS0_19error_info_injectorINS_4math16evaluation_errorEEEEE"
 "_ZTSN5boost16exception_detail10clone_implINS0_19error_info_injectorISt12domain_errorEEEE"
 "_ZTSN5boost16exception_detail10clone_implINS0_19error_info_injectorISt14overflow_errorEEEE"
 "_ZTSN5boost16exception_detail14bad_exception_E"
 "_ZTSN5boost16exception_detail15error_info_baseE"
 "_ZTSN5boost16exception_detail19error_info_injectorINS_4math14rounding_errorEEE"
 "_ZTSN5boost16exception_detail19error_info_injectorINS_4math16evaluation_errorEEE"
 "_ZTSN5boost16exception_detail19error_info_injectorISt12domain_errorEE"
 "_ZTSN5boost16exception_detail19error_info_injectorISt14overflow_errorEE"
 "_ZTSN5boost16exception_detail20error_info_containerE"
 "_ZTSN5boost16exception_detail25error_info_container_implE"
 "_ZTSN5boost4math14rounding_errorE"
 "_ZTSN5boost4math16evaluation_errorE"
 "_ZTSN5boost6detail15sp_counted_baseE"
 "_ZTSN5boost6detail17sp_counted_impl_pINS_10error_infoIN11imagefusion14tag_image_typeENS3_4TypeEEEEE"
 "_ZTSN5boost6detail17sp_counted_impl_pINS_10error_infoIN11imagefusion18tag_resolution_tagENSt7__cxx1112basic_stringIcSt11char_traitsIcESaIcEEEEEEE"
 "_ZTSN5boost6detail17sp_counted_impl_pINS_10error_infoIN11imagefusion8tag_dateEiEEEE"
 "_ZTSN5boost6detail17sp_counted_impl_pINS_10error_infoIN11imagefusion8tag_sizeEN2cv5Size_IiEEEEEE"
 "_ZTSN5boost6detail17sp_counted_impl_pINS_16exception_detail10clone_implINS2_10bad_alloc_EEEEE"
 "_ZTSN5boost6detail17sp_counted_impl_pINS_16exception_detail10clone_implINS2_14bad_exception_EEEEE"
 "_ZTSN5boost6detail17sp_counted_impl_pINS_16exception_detail15error_info_baseEEE"
 "_ZTSN5boost9exceptionE"
 "_ZTSPN11imagefusion14tag_image_typeE"
 "_ZTSPN11imagefusion18tag_resolution_tagE"
 "_ZTSPN11imagefusion8tag_dateE"
 "_ZTSPN11imagefusion8tag_sizeE"
 "_ZTSSt11logic_error"
 "_ZTSSt12domain_error"
 "_ZTSSt13bad_exception"
 "_ZTSSt13runtime_error"
 "_ZTSSt14overflow_error"
 "_ZTSSt9bad_alloc"
 "_ZTSSt9exception"
 "_ZTTN11imagefusion10size_errorE"
 "_ZTTN11imagefusion11logic_errorE"
 "_ZTTN11imagefusion13runtime_errorE"
 "_ZTTN11imagefusion15not_found_errorE"
 "_ZTTN11imagefusion16image_type_errorE"
 "_ZTTN11imagefusion22invalid_argument_errorE"
 "_ZTTN5boost10wrapexceptINS_4math14rounding_errorEEE"
 "_ZTTN5boost10wrapexceptINS_4math16evaluation_errorEEE"
 "_ZTTN5boost10wrapexceptISt12domain_errorEE"
 "_ZTTN5boost10wrapexceptISt14overflow_errorEE"
 "_ZTTN5boost16exception_detail10clone_implINS0_10bad_alloc_EEE"
 "_ZTTN5boost16exception_detail10clone_implINS0_14bad_exception_EEE"
 "_ZTTN5boost16exception_detail10clone_implINS0_19error_info_injectorINS_4math14rounding_errorEEEEE"
 "_ZTTN5boost16exception_detail10clone_implINS0_19error_info_injectorINS_4math16evaluation_errorEEEEE"
 "_ZTTN5boost16exception_detail10clone_implINS0_19error_info_injectorISt12domain_errorEEEE"
 "_ZTTN5boost16exception_detail10clone_implINS0_19error_info_injectorISt14overflow_errorEEEE"
 "_ZTVN11imagefusion10ConstImageE"
 "_ZTVN11imagefusion10size_errorE"
 "_ZTVN11imagefusion11logic_errorE"
 "_ZTVN11imagefusion12EstarfmFusorE"
 "_ZTVN11imagefusion13runtime_errorE"
 "_ZTVN11imagefusion14EstarfmOptionsE"
 "_ZTVN11imagefusion15not_found_errorE"
 "_ZTVN11imagefusion16image_type_errorE"
 "_ZTVN11imagefusion22invalid_argument_errorE"
 "_ZTVN11imagefusion5ImageE"
 "_ZTVN11imagefusion9DataFusorE"
 "_ZTVN5boost10error_infoIN11imagefusion14tag_image_typeENS1_4TypeEEE"
 "_ZTVN5boost10error_infoIN11imagefusion18tag_resolution_tagENSt7__cxx1112basic_stringIcSt11char_traitsIcESaIcEEEEE"
 "_ZTVN5boost10error_infoIN11imagefusion8tag_dateEiEE"
 "_ZTVN5boost10error_infoIN11imagefusion8tag_sizeEN2cv5Size_IiEEEE"
 "_ZTVN5boost10wrapexceptINS_4math14rounding_errorEEE"
 "_ZTVN5boost10wrapexceptINS_4math16evaluation_errorEEE"
 "_ZTVN5boost10wrapexceptISt12domain_errorEE"
 "_ZTVN5boost10wrapexceptISt14overflow_errorEE"
 "_ZTVN5boost16exception_detail10bad_alloc_E"
 "_ZTVN5boost16exception_detail10clone_baseE"
 "_ZTVN5boost16exception_detail10clone_implINS0_10bad_alloc_EEE"
 "_ZTVN5boost16exception_detail10clone_implINS0_14bad_exception_EEE"
 "_ZTVN5boost16exception_detail10clone_implINS0_19error_info_injectorINS_4math14rounding_errorEEEEE"
 "_ZTVN5boost16exception_detail10clone_implINS0_19error_info_injectorINS_4math16evaluation_errorEEEEE"
 "_ZTVN5boost16exception_detail10clone_implINS0_19error_info_injectorISt12domain_errorEEEE"
 "_ZTVN5boost16exception_detail10clone_implINS0_19error_info_injectorISt14overflow_errorEEEE"
 "_ZTVN5boost16exception_detail14bad_exception_E"
 "_ZTVN5boost16exception_detail19error_info_injectorINS_4math14rounding_errorEEE"
 "_ZTVN5boost16exception_detail19error_info_injectorINS_4math16evaluation_errorEEE"
 "_ZTVN5boost16exception_detail19error_info_injectorISt12domain_errorEE"
 "_ZTVN5boost16exception_detail19error_info_injectorISt14overflow_errorEE"
 "_ZTVN5boost16exception_detail25error_info_container_implE"
 "_ZTVN5boost4math14rounding_errorE"
 "_ZTVN5boost4math16evaluation_errorE"
 "_ZTVN5boost6detail17sp_counted_impl_pINS_10error_infoIN11imagefusion14tag_image_typeENS3_4TypeEEEEE"
 "_ZTVN5boost6detail17sp_counted_impl_pINS_10error_infoIN11imagefusion18tag_resolution_tagENSt7__cxx1112basic_stringIcSt11char_traitsIcESaIcEEEEEEE"
 "_ZTVN5boost6detail17sp_counted_impl_pINS_10error_infoIN11imagefusion8tag_dateEiEEEE"
 "_ZTVN5boost6detail17sp_counted_impl_pINS_10error_infoIN11imagefusion8tag_sizeEN2cv5Size_IiEEEEEE"
 "_ZTVN5boost6detail17sp_counted_impl_pINS_16exception_detail10clone_implINS2_10bad_alloc_EEEEE"
 "_ZTVN5boost6detail17sp_counted_impl_pINS_16exception_detail10clone_implINS2_14bad_exception_EEEEE"
 "_ZTVN5boost6detail17sp_counted_impl_pINS_16exception_detail15error_info_baseEEE"
 "_ZTVN5boost9exceptionE"
 "_ZThn16_N5boost10wrapexceptINS_4math14rounding_errorEED0Ev"
 "_ZThn16_N5boost10wrapexceptINS_4math14rounding_errorEED1Ev"
 "_ZThn16_N5boost10wrapexceptINS_4math16evaluation_errorEED0Ev"
 "_ZThn16_N5boost10wrapexceptINS_4math16evaluation_errorEED1Ev"
 "_ZThn16_N5boost10wrapexceptISt12domain_errorED0Ev"
 "_ZThn16_N5boost10wrapexceptISt12domain_errorED1Ev"
 "_ZThn16_N5boost10wrapexceptISt14overflow_errorED0Ev"
 "_ZThn16_N5boost10wrapexceptISt14overflow_errorED1Ev"
 "_ZThn16_N5boost16exception_detail10clone_implINS0_19error_info_injectorINS_4math14rounding_errorEEEED0Ev"
 "_ZThn16_N5boost16exception_detail10clone_implINS0_19error_info_injectorINS_4math14rounding_errorEEEED1Ev"
 "_ZThn16_N5boost16exception_detail10clone_implINS0_19error_info_injectorINS_4math16evaluation_errorEEEED0Ev"
 "_ZThn16_N5boost16exception_detail10clone_implINS0_19error_info_injectorINS_4math16evaluation_errorEEEED1Ev"
 "_ZThn16_N5boost16exception_detail10clone_implINS0_19error_info_injectorISt12domain_errorEEED0Ev"
 "_ZThn16_N5boost16exception_detail10clone_implINS0_19error_info_injectorISt12domain_errorEEED1Ev"
 "_ZThn16_N5boost16exception_detail10clone_implINS0_19error_info_injectorISt14overflow_errorEEED0Ev"
 "_ZThn16_N5boost16exception_detail10clone_implINS0_19error_info_injectorISt14overflow_errorEEED1Ev"
 "_ZThn16_N5boost16exception_detail19error_info_injectorINS_4math14rounding_errorEED0Ev"
 "_ZThn16_N5boost16exception_detail19error_info_injectorINS_4math14rounding_errorEED1Ev"
 "_ZThn16_N5boost16exception_detail19error_info_injectorINS_4math16evaluation_errorEED0Ev"
 "_ZThn16_N5boost16exception_detail19error_info_injectorINS_4math16evaluation_errorEED1Ev"
 "_ZThn16_N5boost16exception_detail19error_info_injectorISt12domain_errorED0Ev"
 "_ZThn16_N5boost16exception_detail19error_info_injectorISt12domain_errorED1Ev"
 "_ZThn16_N5boost16exception_detail19error_info_injectorISt14overflow_errorED0Ev"
 "_ZThn16_N5boost16exception_detail19error_info_injectorISt14overflow_errorED1Ev"
 "_ZThn40_N5boost16exception_detail10bad_alloc_D0Ev"
 "_ZThn40_N5boost16exception_detail10bad_alloc_D1Ev"
 "_ZThn40_N5boost16exception_detail10clone_implINS0_10bad_alloc_EED0Ev"
 "_ZThn40_N5boost16exception_detail10clone_implINS0_10bad_alloc_EED1Ev"
 "_ZThn40_N5boost16exception_detail10clone_implINS0_14bad_exception_EED0Ev"
 "_ZThn40_N5boost16exception_detail10clone_implINS0_14bad_exception_EED1Ev"
 "_ZThn40_N5boost16exception_detail14bad_exception_D0Ev"
 "_ZThn40_N5boost16exception_detail14bad_exception_D1Ev"
 "_ZTv0_n24_N11imagefusion10size_errorD0Ev"
 "_ZTv0_n24_N11imagefusion10size_errorD1Ev"
 "_ZTv0_n24_N11imagefusion11logic_errorD0Ev"
 "_ZTv0_n24_N11imagefusion11logic_errorD1Ev"
 "_ZTv0_n24_N11imagefusion13runtime_errorD0Ev"
 "_ZTv0_n24_N11imagefusion13runtime_errorD1Ev"
 "_ZTv0_n24_N11imagefusion15not_found_errorD0Ev"
 "_ZTv0_n24_N11imagefusion15not_found_errorD1Ev"
 "_ZTv0_n24_N11imagefusion16image_type_errorD0Ev"
 "_ZTv0_n24_N11imagefusion16image_type_errorD1Ev"
 "_ZTv0_n24_N11imagefusion22invalid_argument_errorD0Ev"
 "_ZTv0_n24_N11imagefusion22invalid_argument_errorD1Ev"
 "_ZTv0_n24_NK5boost16exception_detail10clone_implINS0_10bad_alloc_EE5cloneEv"
 "_ZTv0_n24_NK5boost16exception_detail10clone_implINS0_14bad_exception_EE5cloneEv"
 "_ZTv0_n24_NK5boost16exception_detail10clone_implINS0_19error_info_injectorINS_4math14rounding_errorEEEE5cloneEv"
 "_ZTv0_n24_NK5boost16exception_detail10clone_implINS0_19error_info_injectorINS_4math16evaluation_errorEEEE5cloneEv"
 "_ZTv0_n24_NK5boost16exception_detail10clone_implINS0_19error_info_injectorISt12domain_errorEEE5cloneEv"
 "_ZTv0_n24_NK5boost16exception_detail10clone_implINS0_19error_info_injectorISt14overflow_errorEEE5cloneEv"
 "_ZTv0_n32_NK5boost16exception_detail10clone_implINS0_10bad_alloc_EE7rethrowEv"
 "_ZTv0_n32_NK5boost16exception_detail10clone_implINS0_14bad_exception_EE7rethrowEv"
 "_ZTv0_n32_NK5boost16exception_detail10clone_implINS0_19error_info_injectorINS_4math14rounding_errorEEEE7rethrowEv"
 "_ZTv0_n32_NK5boost16exception_detail10clone_implINS0_19error_info_injectorINS_4math16evaluation_errorEEEE7rethrowEv"
 "_ZTv0_n32_NK5boost16exception_detail10clone_implINS0_19error_info_injectorISt12domain_errorEEE7rethrowEv"
 "_ZTv0_n32_NK5boost16exception_detail10clone_implINS0_19error_info_injectorISt14overflow_errorEEE7rethrowEv"
 "_ZTv0_n40_N11imagefusion10size_errorD0Ev"
 "_ZTv0_n40_N11imagefusion10size_errorD1Ev"
 "_ZTv0_n40_N11imagefusion15not_found_errorD0Ev"
 "_ZTv0_n40_N11imagefusion15not_found_errorD1Ev"
 "_ZTv0_n40_N11imagefusion16image_type_errorD0Ev"
 "_ZTv0_n40_N11imagefusion16image_type_errorD1Ev"
 "_ZTv0_n40_N11imagefusion22invalid_argument_errorD0Ev"
 "_ZTv0_n40_N11imagefusion22invalid_argument_errorD1Ev"
 "_ZTv0_n40_N5boost10wrapexceptINS_4math14rounding_errorEED0Ev"
 "_ZTv0_n40_N5boost10wrapexceptINS_4math14rounding_errorEED1Ev"
 "_ZTv0_n40_N5boost10wrapexceptINS_4math16evaluation_errorEED0Ev"
 "_ZTv0_n40_N5boost10wrapexceptINS_4math16evaluation_errorEED1Ev"
 "_ZTv0_n40_N5boost10wrapexceptISt12domain_errorED0Ev"
 "_ZTv0_n40_N5boost10wrapexceptISt12domain_errorED1Ev"
 "_ZTv0_n40_N5boost10wrapexceptISt14overflow_errorED0Ev"
 "_ZTv0_n40_N5boost10wrapexceptISt14overflow_errorED1Ev"
 "_ZTv0_n40_N5boost16exception_detail10clone_implINS0_10bad_alloc_EED0Ev"
 "_ZTv0_n40_N5boost16exception_detail10clone_implINS0_10bad_alloc_EED1Ev"
 "_ZTv0_n40_N5boost16exception_detail10clone_implINS0_14bad_exception_EED0Ev"
 "_ZTv0_n40_N5boost16exception_detail10clone_implINS0_14bad_exception_EED1Ev"
 "_ZTv0_n40_N5boost16exception_detail10clone_implINS0_19error_info_injectorINS_4math14rounding_errorEEEED0Ev"
 "_ZTv0_n40_N5boost16exception_detail10clone_implINS0_19error_info_injectorINS_4math14rounding_errorEEEED1Ev"
 "_ZTv0_n40_N5boost16exception_detail10clone_implINS0_19error_info_injectorINS_4math16evaluation_errorEEEED0Ev"
 "_ZTv0_n40_N5boost16exception_detail10clone_implINS0_19error_info_injectorINS_4math16evaluation_errorEEEED1Ev"
 "_ZTv0_n40_N5boost16exception_detail10clone_implINS0_19error_info_injectorISt12domain_errorEEED0Ev"
 "_ZTv0_n40_N5boost16exception_detail10clone_implINS0_19error_info_injectorISt12domain_errorEEED1Ev"
 "_ZTv0_n40_N5boost16exception_detail10clone_implINS0_19error_info_injectorISt14overflow_errorEEED0Ev"
 "_ZTv0_n40_N5boost16exception_detail10clone_implINS0_19error_info_injectorISt14overflow_errorEEED1Ev"
 "_ZZN5boost16exception_detail27get_static_exception_objectINS0_10bad_alloc_EEENS_13exception_ptrEvE2ep"
 "_ZZN5boost16exception_detail27get_static_exception_objectINS0_14bad_exception_EEENS_13exception_ptrEvE2ep"
 "_ZZN5boost4math20binomial_coefficientIeNS0_8policies6policyINS2_14default_policyES4_S4_S4_S4_S4_S4_S4_S4_S4_S4_S4_S4_EEEET_jjRKT0_E8function"
 "_ZZN5boost4math21fisher_f_distributionIdNS0_8policies6policyINS2_14default_policyES4_S4_S4_S4_S4_S4_S4_S4_S4_S4_S4_S4_EEEC4ERKdS8_E8function"
 "_ZZN5boost4math3cdfIdNS0_8policies6policyINS2_14default_policyES4_S4_S4_S4_S4_S4_S4_S4_S4_S4_S4_S4_EEEET_RKNS0_21fisher_f_distributionIS6_T0_EERKS6_E8function"
 "_ZZN5boost4math6detail10lgamma_impIeNS0_8policies6policyINS3_13promote_floatILb0EEENS3_14promote_doubleILb0EEENS3_14default_policyES9_S9_S9_S9_S9_S9_S9_S9_S9_S9_EENS0_7lanczos12lanczos17m64EEET_SD_RKT0_RKT1_PiE8function"
 "_ZZN5boost4math6detail16lgamma_small_impIeNS0_8policies6policyINS3_13promote_floatILb0EEENS3_14promote_doubleILb0EEENS3_14default_policyES9_S9_S9_S9_S9_S9_S9_S9_S9_S9_EENS0_7lanczos12lanczos17m64EEET_SD_SD_SD_RKN4mpl_4int_ILi64EEERKT0_RKT1_E1P"
 "_ZZN5boost4math6detail16lgamma_small_impIeNS0_8policies6policyINS3_13promote_floatILb0EEENS3_14promote_doubleILb0EEENS3_14default_policyES9_S9_S9_S9_S9_S9_S9_S9_S9_S9_EENS0_7lanczos12lanczos17m64EEET_SD_SD_SD_RKN4mpl_4int_ILi64EEERKT0_RKT1_E1P_0"
 "_ZZN5boost4math6detail16lgamma_small_impIeNS0_8policies6policyINS3_13promote_floatILb0EEENS3_14promote_doubleILb0EEENS3_14default_policyES9_S9_S9_S9_S9_S9_S9_S9_S9_S9_EENS0_7lanczos12lanczos17m64EEET_SD_SD_SD_RKN4mpl_4int_ILi64EEERKT0_RKT1_E1P_1"
 "_ZZN5boost4math6detail16lgamma_small_impIeNS0_8policies6policyINS3_13promote_floatILb0EEENS3_14promote_doubleILb0EEENS3_14default_policyES9_S9_S9_S9_S9_S9_S9_S9_S9_S9_EENS0_7lanczos12lanczos17m64EEET_SD_SD_SD_RKN4mpl_4int_ILi64EEERKT0_RKT1_E1Q"
 "_ZZN5boost4math6detail16lgamma_small_impIeNS0_8policies6policyINS3_13promote_floatILb0EEENS3_14promote_doubleILb0EEENS3_14default_policyES9_S9_S9_S9_S9_S9_S9_S9_S9_S9_EENS0_7lanczos12lanczos17m64EEET_SD_SD_SD_RKN4mpl_4int_ILi64EEERKT0_RKT1_E1Q_0"
 "_ZZN5boost4math6detail16lgamma_small_impIeNS0_8policies6policyINS3_13promote_floatILb0EEENS3_14promote_doubleILb0EEENS3_14default_policyES9_S9_S9_S9_S9_S9_S9_S9_S9_S9_EENS0_7lanczos12lanczos17m64EEET_SD_SD_SD_RKN4mpl_4int_ILi64EEERKT0_RKT1_E1Q_1"
 "_ZZN5boost4math6detail18igamma_temme_largeIeNS0_8policies6policyINS3_13promote_floatILb0EEENS3_14promote_doubleILb0EEENS3_14default_policyES9_S9_S9_S9_S9_S9_S9_S9_S9_S9_EEEET_SB_SB_RKT0_PKN4mpl_4int_ILi64EEEE2C0"
 "_ZZN5boost4math6detail18igamma_temme_largeIeNS0_8policies6policyINS3_13promote_floatILb0EEENS3_14promote_doubleILb0EEENS3_14default_policyES9_S9_S9_S9_S9_S9_S9_S9_S9_S9_EEEET_SB_SB_RKT0_PKN4mpl_4int_ILi64EEEE2C1"
 "_ZZN5boost4math6detail18igamma_temme_largeIeNS0_8policies6policyINS3_13promote_floatILb0EEENS3_14promote_doubleILb0EEENS3_14default_policyES9_S9_S9_S9_S9_S9_S9_S9_S9_S9_EEEET_SB_SB_RKT0_PKN4mpl_4int_ILi64EEEE2C2"
 "_ZZN5boost4math6detail18igamma_temme_largeIeNS0_8policies6policyINS3_13promote_floatILb0EEENS3_14promote_doubleILb0EEENS3_14default_policyES9_S9_S9_S9_S9_S9_S9_S9_S9_S9_EEEET_SB_SB_RKT0_PKN4mpl_4int_ILi64EEEE2C3"
 "_ZZN5boost4math6detail18igamma_temme_largeIeNS0_8policies6policyINS3_13promote_floatILb0EEENS3_14promote_doubleILb0EEENS3_14default_policyES9_S9_S9_S9_S9_S9_S9_S9_S9_S9_EEEET_SB_SB_RKT0_PKN4mpl_4int_ILi64EEEE2C4"
 "_ZZN5boost4math6detail18igamma_temme_largeIeNS0_8policies6policyINS3_13promote_floatILb0EEENS3_14promote_doubleILb0EEENS3_14default_policyES9_S9_S9_S9_S9_S9_S9_S9_S9_S9_EEEET_SB_SB_RKT0_PKN4mpl_4int_ILi64EEEE2C5"
 "_ZZN5boost4math6detail18igamma_temme_largeIeNS0_8policies6policyINS3_13promote_floatILb0EEENS3_14promote_doubleILb0EEENS3_14default_policyES9_S9_S9_S9_S9_S9_S9_S9_S9_S9_EEEET_SB_SB_RKT0_PKN4mpl_4int_ILi64EEEE2C6"
 "_ZZN5boost4math6detail18igamma_temme_largeIeNS0_8policies6policyINS3_13promote_floatILb0EEENS3_14promote_doubleILb0EEENS3_14default_policyES9_S9_S9_S9_S9_S9_S9_S9_S9_S9_EEEET_SB_SB_RKT0_PKN4mpl_4int_ILi64EEEE2C7"
 "_ZZN5boost4math6detail18igamma_temme_largeIeNS0_8policies6policyINS3_13promote_floatILb0EEENS3_14promote_doubleILb0EEENS3_14default_policyES9_S9_S9_S9_S9_S9_S9_S9_S9_S9_EEEET_SB_SB_RKT0_PKN4mpl_4int_ILi64EEEE2C8"
 "_ZZN5boost4math6detail18igamma_temme_largeIeNS0_8policies6policyINS3_13promote_floatILb0EEENS3_14promote_doubleILb0EEENS3_14default_policyES9_S9_S9_S9_S9_S9_S9_S9_S9_S9_EEEET_SB_SB_RKT0_PKN4mpl_4int_ILi64EEEE2C9"
 "_ZZN5boost4math6detail18igamma_temme_largeIeNS0_8policies6policyINS3_13promote_floatILb0EEENS3_14promote_doubleILb0EEENS3_14default_policyES9_S9_S9_S9_S9_S9_S9_S9_S9_S9_EEEET_SB_SB_RKT0_PKN4mpl_4int_ILi64EEEE3C10"
 "_ZZN5boost4math6detail18igamma_temme_largeIeNS0_8policies6policyINS3_13promote_floatILb0EEENS3_14promote_doubleILb0EEENS3_14default_policyES9_S9_S9_S9_S9_S9_S9_S9_S9_S9_EEEET_SB_SB_RKT0_PKN4mpl_4int_ILi64EEEE3C11"
 "_ZZN5boost4math6detail18igamma_temme_largeIeNS0_8policies6policyINS3_13promote_floatILb0EEENS3_14promote_doubleILb0EEENS3_14default_policyES9_S9_S9_S9_S9_S9_S9_S9_S9_S9_EEEET_SB_SB_RKT0_PKN4mpl_4int_ILi64EEEE3C12"
 "_ZZN5boost4math6detail20gamma_incomplete_impIeNS0_8policies6policyINS3_13promote_floatILb0EEENS3_14promote_doubleILb0EEENS3_14default_policyES9_S9_S9_S9_S9_S9_S9_S9_S9_S9_EEEET_SB_SB_bbRKT0_PSB_E8function"
 "_ZZN5boost4math6detail7erf_impIeNS0_8policies6policyINS3_13promote_floatILb0EEENS3_14promote_doubleILb0EEENS3_14default_policyES9_S9_S9_S9_S9_S9_S9_S9_S9_S9_EEEET_SB_bRKT0_RKN4mpl_4int_ILi64EEEE1P"
 "_ZZN5boost4math6detail7erf_impIeNS0_8policies6policyINS3_13promote_floatILb0EEENS3_14promote_doubleILb0EEENS3_14default_policyES9_S9_S9_S9_S9_S9_S9_S9_S9_S9_EEEET_SB_bRKT0_RKN4mpl_4int_ILi64EEEE1P_0"
 "_ZZN5boost4math6detail7erf_impIeNS0_8policies6policyINS3_13promote_floatILb0EEENS3_14promote_doubleILb0EEENS3_14default_policyES9_S9_S9_S9_S9_S9_S9_S9_S9_S9_EEEET_SB_bRKT0_RKN4mpl_4int_ILi64EEEE1P_1"
 "_ZZN5boost4math6detail7erf_impIeNS0_8policies6policyINS3_13promote_floatILb0EEENS3_14promote_doubleILb0EEENS3_14default_policyES9_S9_S9_S9_S9_S9_S9_S9_S9_S9_EEEET_SB_bRKT0_RKN4mpl_4int_ILi64EEEE1P_2"
 "_ZZN5boost4math6detail7erf_impIeNS0_8policies6policyINS3_13promote_floatILb0EEENS3_14promote_doubleILb0EEENS3_14default_policyES9_S9_S9_S9_S9_S9_S9_S9_S9_S9_EEEET_SB_bRKT0_RKN4mpl_4int_ILi64EEEE1P_3"
 "_ZZN5boost4math6detail7erf_impIeNS0_8policies6policyINS3_13promote_floatILb0EEENS3_14promote_doubleILb0EEENS3_14default_policyES9_S9_S9_S9_S9_S9_S9_S9_S9_S9_EEEET_SB_bRKT0_RKN4mpl_4int_ILi64EEEE1Q"
 "_ZZN5boost4math6detail7erf_impIeNS0_8policies6policyINS3_13promote_floatILb0EEENS3_14promote_doubleILb0EEENS3_14default_policyES9_S9_S9_S9_S9_S9_S9_S9_S9_S9_EEEET_SB_bRKT0_RKN4mpl_4int_ILi64EEEE1Q_0"
 "_ZZN5boost4math6detail7erf_impIeNS0_8policies6policyINS3_13promote_floatILb0EEENS3_14promote_doubleILb0EEENS3_14default_policyES9_S9_S9_S9_S9_S9_S9_S9_S9_S9_EEEET_SB_bRKT0_RKN4mpl_4int_ILi64EEEE1Q_1"
 "_ZZN5boost4math6detail7erf_impIeNS0_8policies6policyINS3_13promote_floatILb0EEENS3_14promote_doubleILb0EEENS3_14default_policyES9_S9_S9_S9_S9_S9_S9_S9_S9_S9_EEEET_SB_bRKT0_RKN4mpl_4int_ILi64EEEE1Q_2"
 "_ZZN5boost4math6detail7erf_impIeNS0_8policies6policyINS3_13promote_floatILb0EEENS3_14promote_doubleILb0EEENS3_14default_policyES9_S9_S9_S9_S9_S9_S9_S9_S9_S9_EEEET_SB_bRKT0_RKN4mpl_4int_ILi64EEEE1Q_3"
 "_ZZN5boost4math6detail7erf_impIeNS0_8policies6policyINS3_13promote_floatILb0EEENS3_14promote_doubleILb0EEENS3_14default_policyES9_S9_S9_S9_S9_S9_S9_S9_S9_S9_EEEET_SB_bRKT0_RKN4mpl_4int_ILi64EEEE1c"
 "_ZZN5boost4math6detail9expm1_impIeNS0_8policies6policyINS3_13promote_floatILb0EEENS3_14promote_doubleILb0EEENS3_14default_policyES9_S9_S9_S9_S9_S9_S9_S9_S9_S9_EEEET_SB_RKN4mpl_4int_ILi64EEERKT0_E1d"
 "_ZZN5boost4math6detail9expm1_impIeNS0_8policies6policyINS3_13promote_floatILb0EEENS3_14promote_doubleILb0EEENS3_14default_policyES9_S9_S9_S9_S9_S9_S9_S9_S9_S9_EEEET_SB_RKN4mpl_4int_ILi64EEERKT0_E1n"
 "_ZZN5boost4math6detail9gamma_impIeNS0_8policies6policyINS3_13promote_floatILb0EEENS3_14promote_doubleILb0EEENS3_14default_policyES9_S9_S9_S9_S9_S9_S9_S9_S9_S9_EENS0_7lanczos12lanczos17m64EEET_SD_RKT0_RKT1_E8function"
 "_ZZN5boost4math6detail9ibeta_impIeNS0_8policies6policyINS3_13promote_floatILb0EEENS3_14promote_doubleILb0EEENS3_14default_policyES9_S9_S9_S9_S9_S9_S9_S9_S9_S9_EEEET_SB_SB_SB_RKT0_bbPSB_E8function"
 "_ZZN5boost4math6detail9log1p_impIeNS0_8policies6policyINS3_13promote_floatILb0EEENS3_14promote_doubleILb0EEENS3_14default_policyES9_S9_S9_S9_S9_S9_S9_S9_S9_S9_EEEET_RKSB_RKT0_RKN4mpl_4int_ILi64EEEE1P"
 "_ZZN5boost4math6detail9log1p_impIeNS0_8policies6policyINS3_13promote_floatILb0EEENS3_14promote_doubleILb0EEENS3_14default_policyES9_S9_S9_S9_S9_S9_S9_S9_S9_S9_EEEET_RKSB_RKT0_RKN4mpl_4int_ILi64EEEE1Q"
 "_ZZN5boost4math6detail9log1p_impIeNS0_8policies6policyINS3_13promote_floatILb0EEENS3_14promote_doubleILb0EEENS3_14default_policyES9_S9_S9_S9_S9_S9_S9_S9_S9_S9_EEEET_RKSB_RKT0_RKN4mpl_4int_ILi64EEEE8function"
 "_ZZN5boost4math6detail9powm1_impIeNS0_8policies6policyINS3_13promote_floatILb0EEENS3_14promote_doubleILb0EEENS3_14default_policyES9_S9_S9_S9_S9_S9_S9_S9_S9_S9_EEEET_SB_SB_RKT0_E8function"
 "_ZZN5boost4math7lanczos12lanczos17m6411lanczos_sumIeEET_RKS4_E3num"
 "_ZZN5boost4math7lanczos12lanczos17m6411lanczos_sumIeEET_RKS4_E5denom"
 "_ZZN5boost4math7lanczos12lanczos17m6418lanczos_sum_near_1IeEET_RKS4_E1d"
 "_ZZN5boost4math7lanczos12lanczos17m6418lanczos_sum_near_2IeEET_RKS4_E1d"
 "_ZZN5boost4math7lanczos12lanczos17m6423lanczos_sum_expG_scaledIeEET_RKS4_E3num"
 "_ZZN5boost4math7lanczos12lanczos17m6423lanczos_sum_expG_scaledIeEET_RKS4_E5denom"
 "_ZZN5boost4math7log1pmxIeNS0_8policies6policyINS2_13promote_floatILb0EEENS2_14promote_doubleILb0EEENS2_14default_policyES8_S8_S8_S8_S8_S8_S8_S8_S8_S8_EEEENS0_5tools12promote_argsIT_fffffE4typeESC_RKT0_E8function"
 "_ZGVN5boost16exception_detail37exception_ptr_static_exception_objectINS0_10bad_alloc_EE1eE"
 "_ZGVN5boost16exception_detail37exception_ptr_static_exception_objectINS0_14bad_exception_EE1eE"
 "_ZGVN7cvflann7anyimpl12SinglePolicyINS0_9empty_anyEE6policyE"
 "_ZGVN7cvflann7anyimpl12SinglePolicyINS_17flann_algorithm_tEE6policyE"
 "_ZGVN7cvflann7anyimpl12SinglePolicyINS_20flann_centers_init_tEE6policyE"
 "_ZGVN7cvflann7anyimpl12SinglePolicyINSt7__cxx1112basic_stringIcSt11char_traitsIcESaIcEEEE6policyE"
 "_ZGVN7cvflann7anyimpl12SinglePolicyIPKcE6policyE"
 "_ZGVN7cvflann7anyimpl12SinglePolicyIbE6policyE"
 "_ZGVN7cvflann7anyimpl12SinglePolicyIfE6policyE"
 "_ZGVN7cvflann7anyimpl12SinglePolicyIiE6policyE"
 "_ZGVN7cvflann7anyimpl12SinglePolicyIjE6policyE"
 "_ZGVZN5boost16exception_detail27get_static_exception_objectINS0_10bad_alloc_EEENS_13exception_ptrEvE2ep"
 "_ZGVZN5boost16exception_detail27get_static_exception_objectINS0_14bad_exception_EEENS_13exception_ptrEvE2ep"
 "_ZN11imagefusion10ConstImageC2EiiNS_4TypeE"
 "_ZN11imagefusion10ConstImageD0Ev"
 "_ZN11imagefusion10ConstImageD1Ev"
 "_ZN11imagefusion10size_errorD0Ev"
 "_ZN11imagefusion10size_errorD1Ev"
 "_ZN11imagefusion10toFullTypeEi"
 "_ZN11imagefusion11getFullTypeENS_4TypeEh"
 "_ZN11imagefusion11logic_errorC1ERKS0_"
 "_ZN11imagefusion11logic_errorD0Ev"
 "_ZN11imagefusion11logic_errorD1Ev"
 "_ZN11imagefusion13runtime_errorD0Ev"
 "_ZN11imagefusion13runtime_errorD1Ev"
 "_ZN11imagefusion16image_type_errorD0Ev"
 "_ZN11imagefusion16image_type_errorD1Ev"
 "_ZN11imagefusion18option_impl_detail11LineWrapper14write_one_lineERNS_6option13IStringWriterE"
 "_ZN11imagefusion18option_impl_detail11LineWrapper5flushERNS_6option13IStringWriterE"
 "_ZN11imagefusion18option_impl_detail11LineWrapper6outputERNS_6option13IStringWriterEPKci"
 "_ZN11imagefusion18option_impl_detail11LineWrapper7processERNS_6option13IStringWriterEPKci"
 "_ZN11imagefusion18option_impl_detail16LinePartIterator12restartTableEv"
 "_ZN11imagefusion18option_impl_detail16LinePartIterator13update_lengthEv"
 "_ZN11imagefusion18option_impl_detail16LinePartIterator4nextEv"
 "_ZN11imagefusion18option_impl_detail16LinePartIterator7nextRowEv"
 "_ZN11imagefusion18option_impl_detail16LinePartIterator9nextTableEv"
 "_ZN11imagefusion18option_impl_detail5streqERKNSt7__cxx1112basic_stringIcSt11char_traitsIcESaIcEEES8_j"
 "_ZN11imagefusion18option_impl_detail6indentERNS_6option13IStringWriterERii"
 "_ZN11imagefusion22invalid_argument_errorC1ERKS0_"
 "_ZN11imagefusion22invalid_argument_errorD0Ev"
 "_ZN11imagefusion22invalid_argument_errorD1Ev"
 "_ZN11imagefusion4swapERNS_7GeoInfoES1_"
 "_ZN11imagefusion5ImageD0Ev"
 "_ZN11imagefusion5ImageD1Ev"
 "_ZN11imagefusion6option10ArgChecker10CoordinateERKNS0_6OptionE"
 "_ZN11imagefusion6option10ArgChecker10DimensionsERKNS0_6OptionE"
 "_ZN11imagefusion6option10ArgChecker11IntervalSetERKNS0_6OptionE"
 "_ZN11imagefusion6option10ArgChecker11SizeSpecialERKNS0_6OptionE"
 "_ZN11imagefusion6option10ArgChecker11SizeSuboptsERKNS0_6OptionE"
 "_ZN11imagefusion6option10ArgChecker12PointSpecialERKNS0_6OptionE"
 "_ZN11imagefusion6option10ArgChecker12PointSuboptsERKNS0_6OptionE"
 "_ZN11imagefusion6option10ArgChecker14CoordRectangleERKNS0_6OptionE"
 "_ZN11imagefusion6option10ArgChecker17CoordinateSpecialERKNS0_6OptionE"
 "_ZN11imagefusion6option10ArgChecker17CoordinateSuboptsERKNS0_6OptionE"
 "_ZN11imagefusion6option10ArgChecker17DimensionsSpecialERKNS0_6OptionE"
 "_ZN11imagefusion6option10ArgChecker17DimensionsSuboptsERKNS0_6OptionE"
 "_ZN11imagefusion6option10ArgChecker3IntERKNS0_6OptionE"
 "_ZN11imagefusion6option10ArgChecker4FileERKNS0_6OptionE"
 "_ZN11imagefusion6option10ArgChecker4MaskERKNS0_6OptionE"
 "_ZN11imagefusion6option10ArgChecker4NoneERKNS0_6OptionE"
 "_ZN11imagefusion6option10ArgChecker4SizeERKNS0_6OptionE"
 "_ZN11imagefusion6option10ArgChecker4TypeERKNS0_6OptionE"
 "_ZN11imagefusion6option10ArgChecker5AngleERKNS0_6OptionE"
 "_ZN11imagefusion6option10ArgChecker5FloatERKNS0_6OptionE"
 "_ZN11imagefusion6option10ArgChecker5ImageERKNS0_6OptionE"
 "_ZN11imagefusion6option10ArgChecker5PointERKNS0_6OptionE"
 "_ZN11imagefusion6option10ArgChecker6VectorIdEENS0_9ArgStatusERKNS0_6OptionE"
 "_ZN11imagefusion6option10ArgChecker6VectorIiEENS0_9ArgStatusERKNS0_6OptionE"
 "_ZN11imagefusion6option10ArgChecker7UnknownERKNS0_6OptionE"
 "_ZN11imagefusion6option10ArgChecker8GeoCoordERKNS0_6OptionE"
 "_ZN11imagefusion6option10ArgChecker8IntervalERKNS0_6OptionE"
 "_ZN11imagefusion6option10ArgChecker8NonEmptyERKNS0_6OptionE"
 "_ZN11imagefusion6option10ArgChecker8OptionalERKNS0_6OptionE"
 "_ZN11imagefusion6option10ArgChecker9RectangleERKNS0_6OptionE"
 "_ZN11imagefusion6option10Descriptor4textERKNSt7__cxx1112basic_stringIcSt11char_traitsIcESaIcEEE"
 "_ZN11imagefusion6option10DescriptorD1Ev"
 "_ZN11imagefusion6option10ImageInputD1Ev"
 "_ZN11imagefusion6option12OptionParser12parseBackendEbRKSt6vectorINS0_10DescriptorESaIS3_EES2_INSt7__cxx1112basic_stringIcSt11char_traitsIcESaIcEEESaISD_EEib"
 "_ZN11imagefusion6option12OptionParser5parseESt6vectorINS0_10DescriptorESaIS3_EENSt7__cxx1112basic_stringIcSt11char_traitsIcESaIcEEERKSB_"
 "_ZN11imagefusion6option12OptionParser5parseESt6vectorINSt7__cxx1112basic_stringIcSt11char_traitsIcESaIcEEESaIS8_EE"
 "_ZN11imagefusion6option12OptionParserC1ESt6vectorINS0_10DescriptorESaIS3_EEbbSt8functionIFNS0_9ArgStatusERKNS0_6OptionEEENSt7__cxx1112basic_stringIcSt11char_traitsIcESaIcEEEbj"
 "_ZN11imagefusion6option12OptionParserD1Ev"
 "_ZN11imagefusion6option12OptionParserixENSt7__cxx1112basic_stringIcSt11char_traitsIcESaIcEEE"
 "_ZN11imagefusion6option13ArgumentTokenD1Ev"
 "_ZN11imagefusion6option13OStreamWriterISoEclEPKci"
 "_ZN11imagefusion6option14expandOptFilesERSt6vectorINSt7__cxx1112basic_stringIcSt11char_traitsIcESaIcEEESaIS7_EERKS7_"
 "_ZN11imagefusion6option17printUsageBackendERNS0_13IStringWriterERKSt6vectorINS0_10DescriptorESaIS4_EEiii"
 "_ZN11imagefusion6option17separateArgumentsERKNSt7__cxx1112basic_stringIcSt11char_traitsIcESaIcEEES8_"
 "_ZN11imagefusion6option18getTerminalColumnsEv"
 "_ZN11imagefusion6option5Parse10CoordinateERKNSt7__cxx1112basic_stringIcSt11char_traitsIcESaIcEEES9_RKSt6vectorINS0_10DescriptorESaISB_EE"
 "_ZN11imagefusion6option5Parse10DimensionsERKNSt7__cxx1112basic_stringIcSt11char_traitsIcESaIcEEES9_RKSt6vectorINS0_10DescriptorESaISB_EE"
 "_ZN11imagefusion6option5Parse10usageImageE"
 "_ZN11imagefusion6option5Parse10usagePointE"
 "_ZN11imagefusion6option5Parse11ImageHasTagERKNSt7__cxx1112basic_stringIcSt11char_traitsIcESaIcEEE"
 "_ZN11imagefusion6option5Parse11ImageLayersERKNSt7__cxx1112basic_stringIcSt11char_traitsIcESaIcEEE"
 "_ZN11imagefusion6option5Parse11IntervalSetERKNSt7__cxx1112basic_stringIcSt11char_traitsIcESaIcEEES9_"
 "_ZN11imagefusion6option5Parse11SizeSpecialERKNSt7__cxx1112basic_stringIcSt11char_traitsIcESaIcEEES9_"
 "_ZN11imagefusion6option5Parse11SizeSuboptsERKNSt7__cxx1112basic_stringIcSt11char_traitsIcESaIcEEES9_RKSt6vectorINS0_10DescriptorESaISB_EE"
 "_ZN11imagefusion6option5Parse11usageMRMaskE"
 "_ZN11imagefusion6option5Parse12ImageHasDateERKNSt7__cxx1112basic_stringIcSt11char_traitsIcESaIcEEE"
 "_ZN11imagefusion6option5Parse12PointSpecialERKNSt7__cxx1112basic_stringIcSt11char_traitsIcESaIcEEES9_"
 "_ZN11imagefusion6option5Parse12PointSuboptsERKNSt7__cxx1112basic_stringIcSt11char_traitsIcESaIcEEES9_RKSt6vectorINS0_10DescriptorESaISB_EE"
 "_ZN11imagefusion6option5Parse12usageMRImageE"
 "_ZN11imagefusion6option5Parse13ImageFileNameERKNSt7__cxx1112basic_stringIcSt11char_traitsIcESaIcEEE"
 "_ZN11imagefusion6option5Parse14CoordRectangleERKNSt7__cxx1112basic_stringIcSt11char_traitsIcESaIcEEES9_RKSt6vectorINS0_10DescriptorESaISB_EE"
 "_ZN11imagefusion6option5Parse14usageRectangleE"
 "_ZN11imagefusion6option5Parse15usageCoordinateE"
 "_ZN11imagefusion6option5Parse15usageDimensionsE"
 "_ZN11imagefusion6option5Parse17CoordinateSpecialERKNSt7__cxx1112basic_stringIcSt11char_traitsIcESaIcEEES9_"
 "_ZN11imagefusion6option5Parse17CoordinateSuboptsERKNSt7__cxx1112basic_stringIcSt11char_traitsIcESaIcEEES9_RKSt6vectorINS0_10DescriptorESaISB_EE"
 "_ZN11imagefusion6option5Parse17DimensionsSpecialERKNSt7__cxx1112basic_stringIcSt11char_traitsIcESaIcEEES9_"
 "_ZN11imagefusion6option5Parse17DimensionsSuboptsERKNSt7__cxx1112basic_stringIcSt11char_traitsIcESaIcEEES9_RKSt6vectorINS0_10DescriptorESaISB_EE"
 "_ZN11imagefusion6option5Parse18ImageCropRectangleERKNSt7__cxx1112basic_stringIcSt11char_traitsIcESaIcEEE"
 "_ZN11imagefusion6option5Parse19usageCoordRectangleE"
 "_ZN11imagefusion6option5Parse21ImageIgnoreColorTableERKNSt7__cxx1112basic_stringIcSt11char_traitsIcESaIcEEE"
 "_ZN11imagefusion6option5Parse3IntERKNSt7__cxx1112basic_stringIcSt11char_traitsIcESaIcEEES9_"
 "_ZN11imagefusion6option5Parse4MaskERKNSt7__cxx1112basic_stringIcSt11char_traitsIcESaIcEEES9_bRKSt6vectorINS0_10DescriptorESaISB_EE"
 "_ZN11imagefusion6option5Parse4SizeERKNSt7__cxx1112basic_stringIcSt11char_traitsIcESaIcEEES9_RKSt6vectorINS0_10DescriptorESaISB_EE"
 "_ZN11imagefusion6option5Parse4TypeENSt7__cxx1112basic_stringIcSt11char_traitsIcESaIcEEERKS7_"
 "_ZN11imagefusion6option5Parse5AngleERKNSt7__cxx1112basic_stringIcSt11char_traitsIcESaIcEEES9_"
 "_ZN11imagefusion6option5Parse5FloatERKNSt7__cxx1112basic_stringIcSt11char_traitsIcESaIcEEES9_"
 "_ZN11imagefusion6option5Parse5ImageERKNSt7__cxx1112basic_stringIcSt11char_traitsIcESaIcEEES9_bRKSt6vectorINS0_10DescriptorESaISB_EE"
 "_ZN11imagefusion6option5Parse5PointERKNSt7__cxx1112basic_stringIcSt11char_traitsIcESaIcEEES9_RKSt6vectorINS0_10DescriptorESaISB_EE"
 "_ZN11imagefusion6option5Parse6MRMaskERKNSt7__cxx1112basic_stringIcSt11char_traitsIcESaIcEEES9_bbbRKSt6vectorINS0_10DescriptorESaISB_EE"
 "_ZN11imagefusion6option5Parse6VectorIdEESt6vectorIT_SaIS4_EERKNSt7__cxx1112basic_stringIcSt11char_traitsIcESaIcEEESE_"
 "_ZN11imagefusion6option5Parse6VectorIiEESt6vectorIT_SaIS4_EERKNSt7__cxx1112basic_stringIcSt11char_traitsIcESaIcEEESE_"
 "_ZN11imagefusion6option5Parse7MRImageERKNSt7__cxx1112basic_stringIcSt11char_traitsIcESaIcEEES9_bbbRKSt6vectorINS0_10DescriptorESaISB_EE"
 "_ZN11imagefusion6option5Parse8GeoCoordERKNSt7__cxx1112basic_stringIcSt11char_traitsIcESaIcEEES9_"
 "_ZN11imagefusion6option5Parse8ImageTagERKNSt7__cxx1112basic_stringIcSt11char_traitsIcESaIcEEE"
 "_ZN11imagefusion6option5Parse8IntervalERKNSt7__cxx1112basic_stringIcSt11char_traitsIcESaIcEEES9_"
 "_ZN11imagefusion6option5Parse9ImageDateERKNSt7__cxx1112basic_stringIcSt11char_traitsIcESaIcEEE"
 "_ZN11imagefusion6option5Parse9RectangleERKNSt7__cxx1112basic_stringIcSt11char_traitsIcESaIcEEES9_RKSt6vectorINS0_10DescriptorESaISB_EE"
 "_ZN11imagefusion6option5Parse9usageMaskE"
 "_ZN11imagefusion6option5Parse9usageSizeE"
 "_ZN11imagefusion6option6OptionD1Ev"
 "_ZN11imagefusion6optionrsERSiRNS0_13ArgumentTokenE"
 "_ZN11imagefusion7GeoInfoC1Ev"
 "_ZN11imagefusion7GeoInfoD1Ev"
 "_ZN11imagefusion9to_stringB5cxx11ENS_4TypeE"
 "_ZN2cv3MatD1Ev"
 "_ZN5boost10error_infoIN11imagefusion14tag_image_typeENS1_4TypeEED0Ev"
 "_ZN5boost10error_infoIN11imagefusion14tag_image_typeENS1_4TypeEED1Ev"
 "_ZN5boost10error_infoIN11imagefusion18tag_resolution_tagENSt7__cxx1112basic_stringIcSt11char_traitsIcESaIcEEEED0Ev"
 "_ZN5boost10error_infoIN11imagefusion18tag_resolution_tagENSt7__cxx1112basic_stringIcSt11char_traitsIcESaIcEEEED1Ev"
 "_ZN5boost10error_infoIN11imagefusion8tag_dateEiED0Ev"
 "_ZN5boost10error_infoIN11imagefusion8tag_dateEiED1Ev"
 "_ZN5boost10error_infoIN11imagefusion8tag_sizeEN2cv5Size_IiEEED0Ev"
 "_ZN5boost10error_infoIN11imagefusion8tag_sizeEN2cv5Size_IiEEED1Ev"
 "_ZN5boost10error_infoINS_18errinfo_file_name_ENSt7__cxx1112basic_stringIcSt11char_traitsIcESaIcEEEED0Ev"
 "_ZN5boost10error_infoINS_18errinfo_file_name_ENSt7__cxx1112basic_stringIcSt11char_traitsIcESaIcEEEED1Ev"
 "_ZN5boost14char_separatorIcSt11char_traitsIcEEC1ERKS3_"
 "_ZN5boost14char_separatorIcSt11char_traitsIcEED1Ev"
 "_ZN5boost14char_separatorIcSt11char_traitsIcEEclIN9__gnu_cxx17__normal_iteratorIPKcNSt7__cxx1112basic_stringIcS2_SaIcEEEEESC_EEbRT_SE_RT0_"
 "_ZN5boost14token_iteratorINS_14char_separatorIcSt11char_traitsIcEEEN9__gnu_cxx17__normal_iteratorIPKcNSt7__cxx1112basic_stringIcS3_SaIcEEEEESC_ED1Ev"
 "_ZN5boost16exception_detail10bad_alloc_D0Ev"
 "_ZN5boost16exception_detail10bad_alloc_D1Ev"
 "_ZN5boost16exception_detail10bad_alloc_D2Ev"
 "_ZN5boost16exception_detail10clone_implINS0_10bad_alloc_EED0Ev"
 "_ZN5boost16exception_detail10clone_implINS0_10bad_alloc_EED1Ev"
 "_ZN5boost16exception_detail10clone_implINS0_14bad_exception_EED0Ev"
 "_ZN5boost16exception_detail10clone_implINS0_14bad_exception_EED1Ev"
 "_ZN5boost16exception_detail11set_info_rvINS_10error_infoIN11imagefusion14tag_image_typeENS3_4TypeEEEE3setINS3_11logic_errorEEERKT_SC_OS6_"
 "_ZN5boost16exception_detail11set_info_rvINS_10error_infoIN11imagefusion14tag_image_typeENS3_4TypeEEEE3setINS3_16image_type_errorEEERKT_SC_OS6_"
 "_ZN5boost16exception_detail11set_info_rvINS_10error_infoIN11imagefusion14tag_image_typeENS3_4TypeEEEE3setINS3_22invalid_argument_errorEEERKT_SC_OS6_"
 "_ZN5boost16exception_detail11set_info_rvINS_10error_infoIN11imagefusion18tag_resolution_tagENSt7__cxx1112basic_stringIcSt11char_traitsIcESaIcEEEEEE3setINS3_22invalid_argument_errorEEERKT_SH_OSB_"
 "_ZN5boost16exception_detail11set_info_rvINS_10error_infoIN11imagefusion8tag_dateEiEEE3setINS3_22invalid_argument_errorEEERKT_SB_OS5_"
 "_ZN5boost16exception_detail11set_info_rvINS_10error_infoIN11imagefusion8tag_sizeEN2cv5Size_IiEEEEE3setINS3_10size_errorEEERKT_SE_OS8_"
 "_ZN5boost16exception_detail11set_info_rvINS_10error_infoINS_18errinfo_file_name_ENSt7__cxx1112basic_stringIcSt11char_traitsIcESaIcEEEEEE3setIN11imagefusion22invalid_argument_errorEEERKT_SH_OSA_"
 "_ZN5boost16exception_detail14bad_exception_D0Ev"
 "_ZN5boost16exception_detail14bad_exception_D1Ev"
 "_ZN5boost16exception_detail14bad_exception_D2Ev"
 "_ZN5boost16exception_detail20copy_boost_exceptionEPNS_9exceptionEPKS1_"
 "_ZN5boost16exception_detail25error_info_container_impl3setERKNS_10shared_ptrINS0_15error_info_baseEEERKNS0_10type_info_E"
 "_ZN5boost16exception_detail27get_static_exception_objectINS0_10bad_alloc_EEENS_13exception_ptrEv"
 "_ZN5boost16exception_detail27get_static_exception_objectINS0_14bad_exception_EEENS_13exception_ptrEv"
 "_ZN5boost16exception_detail37exception_ptr_static_exception_objectINS0_10bad_alloc_EE1eE"
 "_ZN5boost16exception_detail37exception_ptr_static_exception_objectINS0_14bad_exception_EE1eE"
 "_ZN5boost3icl17interval_base_setINS0_12interval_setIdSt4lessNS0_19continuous_intervalIdS3_EESaEEdS3_S5_SaE4_addERKS5_"
 "_ZN5boost3icl17interval_base_setINS0_12interval_setIdSt4lessNS0_19continuous_intervalIdS3_EESaEEdS3_S5_SaE8subtractERKS5_"
 "_ZN5boost3icl4hullINS0_19continuous_intervalIdSt4lessEEEENS_9enable_ifINS0_18has_dynamic_boundsIT_EES7_E4typeES7_RKS7_"
 "_ZN5boost3icl9segmental10join_rightINS0_12interval_setIdSt4lessNS0_19continuous_intervalIdS4_EESaEEEENT_8iteratorERS8_RS9_"
 "_ZN5boost3icl9segmental9join_leftINS0_12interval_setIdSt4lessNS0_19continuous_intervalIdS4_EESaEEEENT_8iteratorERS8_RS9_"
 "_ZN5boost3iclpLINS0_12interval_setIdSt4lessNS0_19continuous_intervalIdS3_EESaEES6_EERNS_9enable_ifINS0_19is_intra_combinableIT_T0_EES9_E4typeERS9_RKSA_"
 "_ZN5boost6detail15sp_counted_base7destroyEv"
 "_ZN5boost6detail15sp_counted_base7releaseEv"
 "_ZN5boost6detail17sp_counted_impl_pINS_10error_infoIN11imagefusion14tag_image_typeENS3_4TypeEEEE11get_deleterERKSt9type_info"
 "_ZN5boost6detail17sp_counted_impl_pINS_10error_infoIN11imagefusion14tag_image_typeENS3_4TypeEEEE17get_local_deleterERKSt9type_info"
 "_ZN5boost6detail17sp_counted_impl_pINS_10error_infoIN11imagefusion14tag_image_typeENS3_4TypeEEEE19get_untyped_deleterEv"
 "_ZN5boost6detail17sp_counted_impl_pINS_10error_infoIN11imagefusion14tag_image_typeENS3_4TypeEEEE7disposeEv"
 "_ZN5boost6detail17sp_counted_impl_pINS_10error_infoIN11imagefusion14tag_image_typeENS3_4TypeEEEED0Ev"
 "_ZN5boost6detail17sp_counted_impl_pINS_10error_infoIN11imagefusion14tag_image_typeENS3_4TypeEEEED1Ev"
 "_ZN5boost6detail17sp_counted_impl_pINS_10error_infoIN11imagefusion18tag_resolution_tagENSt7__cxx1112basic_stringIcSt11char_traitsIcESaIcEEEEEE11get_deleterERKSt9type_info"
 "_ZN5boost6detail17sp_counted_impl_pINS_10error_infoIN11imagefusion18tag_resolution_tagENSt7__cxx1112basic_stringIcSt11char_traitsIcESaIcEEEEEE17get_local_deleterERKSt9type_info"
 "_ZN5boost6detail17sp_counted_impl_pINS_10error_infoIN11imagefusion18tag_resolution_tagENSt7__cxx1112basic_stringIcSt11char_traitsIcESaIcEEEEEE19get_untyped_deleterEv"
 "_ZN5boost6detail17sp_counted_impl_pINS_10error_infoIN11imagefusion18tag_resolution_tagENSt7__cxx1112basic_stringIcSt11char_traitsIcESaIcEEEEEE7disposeEv"
 "_ZN5boost6detail17sp_counted_impl_pINS_10error_infoIN11imagefusion18tag_resolution_tagENSt7__cxx1112basic_stringIcSt11char_traitsIcESaIcEEEEEED0Ev"
 "_ZN5boost6detail17sp_counted_impl_pINS_10error_infoIN11imagefusion18tag_resolution_tagENSt7__cxx1112basic_stringIcSt11char_traitsIcESaIcEEEEEED1Ev"
 "_ZN5boost6detail17sp_counted_impl_pINS_10error_infoIN11imagefusion8tag_dateEiEEE11get_deleterERKSt9type_info"
 "_ZN5boost6detail17sp_counted_impl_pINS_10error_infoIN11imagefusion8tag_dateEiEEE17get_local_deleterERKSt9type_info"
 "_ZN5boost6detail17sp_counted_impl_pINS_10error_infoIN11imagefusion8tag_dateEiEEE19get_untyped_deleterEv"
 "_ZN5boost6detail17sp_counted_impl_pINS_10error_infoIN11imagefusion8tag_dateEiEEE7disposeEv"
 "_ZN5boost6detail17sp_counted_impl_pINS_10error_infoIN11imagefusion8tag_dateEiEEED0Ev"
 "_ZN5boost6detail17sp_counted_impl_pINS_10error_infoIN11imagefusion8tag_dateEiEEED1Ev"
 "_ZN5boost6detail17sp_counted_impl_pINS_10error_infoIN11imagefusion8tag_sizeEN2cv5Size_IiEEEEE11get_deleterERKSt9type_info"
 "_ZN5boost6detail17sp_counted_impl_pINS_10error_infoIN11imagefusion8tag_sizeEN2cv5Size_IiEEEEE17get_local_deleterERKSt9type_info"
 "_ZN5boost6detail17sp_counted_impl_pINS_10error_infoIN11imagefusion8tag_sizeEN2cv5Size_IiEEEEE19get_untyped_deleterEv"
 "_ZN5boost6detail17sp_counted_impl_pINS_10error_infoIN11imagefusion8tag_sizeEN2cv5Size_IiEEEEE7disposeEv"
 "_ZN5boost6detail17sp_counted_impl_pINS_10error_infoIN11imagefusion8tag_sizeEN2cv5Size_IiEEEEED0Ev"
 "_ZN5boost6detail17sp_counted_impl_pINS_10error_infoIN11imagefusion8tag_sizeEN2cv5Size_IiEEEEED1Ev"
 "_ZN5boost6detail17sp_counted_impl_pINS_10error_infoINS_18errinfo_file_name_ENSt7__cxx1112basic_stringIcSt11char_traitsIcESaIcEEEEEE11get_deleterERKSt9type_info"
 "_ZN5boost6detail17sp_counted_impl_pINS_10error_infoINS_18errinfo_file_name_ENSt7__cxx1112basic_stringIcSt11char_traitsIcESaIcEEEEEE17get_local_deleterERKSt9type_info"
 "_ZN5boost6detail17sp_counted_impl_pINS_10error_infoINS_18errinfo_file_name_ENSt7__cxx1112basic_stringIcSt11char_traitsIcESaIcEEEEEE19get_untyped_deleterEv"
 "_ZN5boost6detail17sp_counted_impl_pINS_10error_infoINS_18errinfo_file_name_ENSt7__cxx1112basic_stringIcSt11char_traitsIcESaIcEEEEEE7disposeEv"
 "_ZN5boost6detail17sp_counted_impl_pINS_10error_infoINS_18errinfo_file_name_ENSt7__cxx1112basic_stringIcSt11char_traitsIcESaIcEEEEEED0Ev"
 "_ZN5boost6detail17sp_counted_impl_pINS_10error_infoINS_18errinfo_file_name_ENSt7__cxx1112basic_stringIcSt11char_traitsIcESaIcEEEEEED1Ev"
 "_ZN5boost6detail17sp_counted_impl_pINS_16exception_detail10clone_implINS2_10bad_alloc_EEEE11get_deleterERKSt9type_info"
 "_ZN5boost6detail17sp_counted_impl_pINS_16exception_detail10clone_implINS2_10bad_alloc_EEEE17get_local_deleterERKSt9type_info"
 "_ZN5boost6detail17sp_counted_impl_pINS_16exception_detail10clone_implINS2_10bad_alloc_EEEE19get_untyped_deleterEv"
 "_ZN5boost6detail17sp_counted_impl_pINS_16exception_detail10clone_implINS2_10bad_alloc_EEEE7disposeEv"
 "_ZN5boost6detail17sp_counted_impl_pINS_16exception_detail10clone_implINS2_10bad_alloc_EEEED0Ev"
 "_ZN5boost6detail17sp_counted_impl_pINS_16exception_detail10clone_implINS2_10bad_alloc_EEEED1Ev"
 "_ZN5boost6detail17sp_counted_impl_pINS_16exception_detail10clone_implINS2_14bad_exception_EEEE11get_deleterERKSt9type_info"
 "_ZN5boost6detail17sp_counted_impl_pINS_16exception_detail10clone_implINS2_14bad_exception_EEEE17get_local_deleterERKSt9type_info"
 "_ZN5boost6detail17sp_counted_impl_pINS_16exception_detail10clone_implINS2_14bad_exception_EEEE19get_untyped_deleterEv"
 "_ZN5boost6detail17sp_counted_impl_pINS_16exception_detail10clone_implINS2_14bad_exception_EEEE7disposeEv"
 "_ZN5boost6detail17sp_counted_impl_pINS_16exception_detail10clone_implINS2_14bad_exception_EEEED0Ev"
 "_ZN5boost6detail17sp_counted_impl_pINS_16exception_detail10clone_implINS2_14bad_exception_EEEED1Ev"
 "_ZN5boost6detail17sp_counted_impl_pINS_16exception_detail15error_info_baseEE11get_deleterERKSt9type_info"
 "_ZN5boost6detail17sp_counted_impl_pINS_16exception_detail15error_info_baseEE17get_local_deleterERKSt9type_info"
 "_ZN5boost6detail17sp_counted_impl_pINS_16exception_detail15error_info_baseEE19get_untyped_deleterEv"
 "_ZN5boost6detail17sp_counted_impl_pINS_16exception_detail15error_info_baseEE7disposeEv"
 "_ZN5boost6detail17sp_counted_impl_pINS_16exception_detail15error_info_baseEED0Ev"
 "_ZN5boost6detail17sp_counted_impl_pINS_16exception_detail15error_info_baseEED1Ev"
 "_ZN5boost9to_stringIN11imagefusion18tag_resolution_tagENSt7__cxx1112basic_stringIcSt11char_traitsIcESaIcEEEEES8_RKNS_10error_infoIT_T0_EE"
 "_ZN5boost9to_stringIN11imagefusion8tag_dateEiEENSt7__cxx1112basic_stringIcSt11char_traitsIcESaIcEEERKNS_10error_infoIT_T0_EE"
 "_ZN5boost9to_stringIN11imagefusion8tag_sizeEN2cv5Size_IiEEEENSt7__cxx1112basic_stringIcSt11char_traitsIcESaIcEEERKNS_10error_infoIT_T0_EE"
 "_ZN5boost9to_stringINS_18errinfo_file_name_ENSt7__cxx1112basic_stringIcSt11char_traitsIcESaIcEEEEES7_RKNS_10error_infoIT_T0_EE"
 "_ZN9__gnu_cxx12__to_xstringINSt7__cxx1112basic_stringIcSt11char_traitsIcESaIcEEEcEET_PFiPT0_yPKS8_PcEySB_z"
 "_ZN9__gnu_cxx6__stoaIddcJEEET0_PFT_PKT1_PPS3_DpT2_EPKcS5_PyS9_"
 "_ZN9__gnu_cxx6__stoaIlicJiEEET0_PFT_PKT1_PPS3_DpT2_EPKcS5_PyS9_"
 "_ZNK5boost10error_infoIN11imagefusion14tag_image_typeENS1_4TypeEE17name_value_stringB5cxx11Ev"
 "_ZNK5boost10error_infoIN11imagefusion14tag_image_typeENS1_4TypeEE5cloneEv"
 "_ZNK5boost10error_infoIN11imagefusion18tag_resolution_tagENSt7__cxx1112basic_stringIcSt11char_traitsIcESaIcEEEE17name_value_stringEv"
 "_ZNK5boost10error_infoIN11imagefusion18tag_resolution_tagENSt7__cxx1112basic_stringIcSt11char_traitsIcESaIcEEEE5cloneEv"
 "_ZNK5boost10error_infoIN11imagefusion8tag_dateEiE17name_value_stringB5cxx11Ev"
 "_ZNK5boost10error_infoIN11imagefusion8tag_dateEiE5cloneEv"
 "_ZNK5boost10error_infoIN11imagefusion8tag_sizeEN2cv5Size_IiEEE17name_value_stringB5cxx11Ev"
 "_ZNK5boost10error_infoIN11imagefusion8tag_sizeEN2cv5Size_IiEEE5cloneEv"
 "_ZNK5boost10error_infoINS_18errinfo_file_name_ENSt7__cxx1112basic_stringIcSt11char_traitsIcESaIcEEEE17name_value_stringEv"
 "_ZNK5boost10error_infoINS_18errinfo_file_name_ENSt7__cxx1112basic_stringIcSt11char_traitsIcESaIcEEEE5cloneEv"
 "_ZNK5boost16exception_detail10clone_implINS0_10bad_alloc_EE5cloneEv"
 "_ZNK5boost16exception_detail10clone_implINS0_10bad_alloc_EE7rethrowEv"
 "_ZNK5boost16exception_detail10clone_implINS0_14bad_exception_EE5cloneEv"
 "_ZNK5boost16exception_detail10clone_implINS0_14bad_exception_EE7rethrowEv"
 "_ZNK5boost16exception_detail25error_info_container_impl22diagnostic_informationEPKc"
 "_ZNK5boost16exception_detail25error_info_container_impl3getERKNS0_10type_info_E"
 "_ZNK5boost16exception_detail25error_info_container_impl5cloneEv"
 "_ZNK5boost16exception_detail25error_info_container_impl7add_refEv"
 "_ZNK5boost16exception_detail25error_info_container_impl7releaseEv"
 "_ZNKSt23__codecvt_abstract_baseIwciE2inERiPKcS3_RS3_PwS5_RS5_"
 "_ZNKSt5ctypeIcE8do_widenEc"
 "_ZNKSt7__cxx1112basic_stringIcSt11char_traitsIcESaIcEE12find_last_ofEPKcyy"
 "_ZNKSt7__cxx1112basic_stringIcSt11char_traitsIcESaIcEE13find_first_ofEPKcyy"
 "_ZNKSt7__cxx1112basic_stringIcSt11char_traitsIcESaIcEE4findEPKcyy"
 "_ZNKSt7__cxx1112basic_stringIcSt11char_traitsIcESaIcEE4findEcy"
 "_ZNKSt7__cxx1112basic_stringIcSt11char_traitsIcESaIcEE6substrEyy"
 "_ZNKSt7__cxx1112basic_stringIcSt11char_traitsIcESaIcEE7compareEPKc"
 "_ZNKSt7__cxx1112basic_stringIcSt11char_traitsIcESaIcEE7compareERKS4_"
 "_ZNKSt8_Rb_treeIN5boost3icl19continuous_intervalIdSt4lessEES4_St9_IdentityIS4_ENS1_19exclusive_less_thanIS4_EESaIS4_EE4findERKS4_"
 "_ZNSt10filesystem7__cxx1116filesystem_errorC1ERKNSt7__cxx1112basic_stringIcSt11char_traitsIcESaIcEEESt10error_code"
 "_ZNSt10filesystem7__cxx114pathD1Ev"
 "_ZNSt11char_traitsIcE6lengthEPKc"
 "_ZNSt14_Function_base13_Base_managerIPFN11imagefusion6option9ArgStatusERKNS2_6OptionEEE10_M_managerERSt9_Any_dataRKSA_St18_Manager_operation"
 "_ZNSt17_Function_handlerIFN11imagefusion6option9ArgStatusERKNS1_6OptionEEPS6_E9_M_invokeERKSt9_Any_dataS5_"
 "_ZNSt6vectorIN11imagefusion6option10DescriptorESaIS2_EEC1ERKS4_"
 "_ZNSt6vectorIN11imagefusion6option10DescriptorESaIS2_EED1Ev"
 "_ZNSt6vectorIN11imagefusion6option6OptionESaIS2_EE17_M_realloc_insertIJRKS2_EEEvN9__gnu_cxx17__normal_iteratorIPS2_S4_EEDpOT_"
 "_ZNSt6vectorIN11imagefusion6option6OptionESaIS2_EED1Ev"
 "_ZNSt6vectorINSt10filesystem7__cxx114path5_CmptESaIS3_EED1Ev"
 "_ZNSt6vectorINSt7__cxx1112basic_stringIcSt11char_traitsIcESaIcEEESaIS5_EE12emplace_backIJS5_EEERS5_DpOT_"
 "_ZNSt6vectorINSt7__cxx1112basic_stringIcSt11char_traitsIcESaIcEEESaIS5_EE15_M_range_insertIN9__gnu_cxx17__normal_iteratorIPS5_S7_EEEEvSC_T_SD_St20forward_iterator_tag"
 "_ZNSt6vectorINSt7__cxx1112basic_stringIcSt11char_traitsIcESaIcEEESaIS5_EE17_M_realloc_insertIJS5_EEEvN9__gnu_cxx17__normal_iteratorIPS5_S7_EEDpOT_"
 "_ZNSt6vectorINSt7__cxx1112basic_stringIcSt11char_traitsIcESaIcEEESaIS5_EE8_M_eraseEN9__gnu_cxx17__normal_iteratorIPS5_S7_EE"
 "_ZNSt6vectorINSt7__cxx1112basic_stringIcSt11char_traitsIcESaIcEEESaIS5_EEC1ERKS7_"
 "_ZNSt6vectorINSt7__cxx1112basic_stringIcSt11char_traitsIcESaIcEEESaIS5_EED1Ev"
 "_ZNSt6vectorIdSaIdEE17_M_realloc_insertIJdEEEvN9__gnu_cxx17__normal_iteratorIPdS1_EEDpOT_"
 "_ZNSt6vectorIiSaIiEE15_M_range_insertIN9__gnu_cxx17__normal_iteratorIPiS1_EEEEvS6_T_S7_St20forward_iterator_tag"
 "_ZNSt6vectorIiSaIiEE17_M_default_appendEy"
 "_ZNSt6vectorIiSaIiEEC1ERKS1_"
 "_ZNSt7__cxx1112basic_stringIcSt11char_traitsIcESaIcEE10_M_replaceEyyPKcy"
 "_ZNSt7__cxx1112basic_stringIcSt11char_traitsIcESaIcEE12_M_constructIPKcEEvT_S8_St20forward_iterator_tag"
 "_ZNSt7__cxx1112basic_stringIcSt11char_traitsIcESaIcEE14_M_replace_auxEyyyc"
 "_ZNSt7__cxx1112basic_stringIcSt11char_traitsIcESaIcEE4swapERS4_"
 "_ZNSt7__cxx1112basic_stringIcSt11char_traitsIcESaIcEE6assignEPKc"
 "_ZNSt7__cxx1112basic_stringIcSt11char_traitsIcESaIcEE8_M_eraseEyy"
 "_ZNSt7__cxx1112basic_stringIcSt11char_traitsIcESaIcEE9_M_appendEPKcy"
 "_ZNSt7__cxx1112basic_stringIcSt11char_traitsIcESaIcEE9_M_assignERKS4_"
 "_ZNSt7__cxx1112basic_stringIcSt11char_traitsIcESaIcEE9_M_mutateEyyPKcy"
 "_ZNSt7__cxx1112basic_stringIcSt11char_traitsIcESaIcEE9push_backEc"
 "_ZNSt7__cxx1112basic_stringIcSt11char_traitsIcESaIcEEaSEOS4_"
 "_ZNSt7__cxx1112basic_stringIwSt11char_traitsIwESaIwEE10_M_replaceEyyPKwy"
 "_ZNSt7__cxx1112basic_stringIwSt11char_traitsIwESaIwEE6resizeEyw"
 "_ZNSt7__cxx1112basic_stringIwSt11char_traitsIwESaIwEE9_M_createERyy"
 "_ZNSt7__cxx1112basic_stringIwSt11char_traitsIwESaIwEE9_M_mutateEyyPKwy"
 "_ZNSt8_Rb_treeIN5boost16exception_detail10type_info_ESt4pairIKS2_NS0_10shared_ptrINS1_15error_info_baseEEEESt10_Select1stIS8_ESt4lessIS2_ESaIS8_EE14_M_insert_nodeEPSt18_Rb_tree_node_baseSG_PSt13_Rb_tree_nodeIS8_E"
 "_ZNSt8_Rb_treeIN5boost16exception_detail10type_info_ESt4pairIKS2_NS0_10shared_ptrINS1_15error_info_baseEEEESt10_Select1stIS8_ESt4lessIS2_ESaIS8_EE24_M_get_insert_unique_posERS4_"
 "_ZNSt8_Rb_treeIN5boost16exception_detail10type_info_ESt4pairIKS2_NS0_10shared_ptrINS1_15error_info_baseEEEESt10_Select1stIS8_ESt4lessIS2_ESaIS8_EE8_M_eraseEPSt13_Rb_tree_nodeIS8_E"
 "_ZNSt8_Rb_treeIN5boost3icl19continuous_intervalIdSt4lessEES4_St9_IdentityIS4_ENS1_19exclusive_less_thanIS4_EESaIS4_EE10_M_insert_IRKS4_NSA_11_Alloc_nodeEEESt17_Rb_tree_iteratorIS4_EPSt18_Rb_tree_node_baseSI_OT_RT0_"
 "_ZNSt8_Rb_treeIN5boost3icl19continuous_intervalIdSt4lessEES4_St9_IdentityIS4_ENS1_19exclusive_less_thanIS4_EESaIS4_EE12_M_erase_auxESt23_Rb_tree_const_iteratorIS4_ESC_"
 "_ZNSt8_Rb_treeIN5boost3icl19continuous_intervalIdSt4lessEES4_St9_IdentityIS4_ENS1_19exclusive_less_thanIS4_EESaIS4_EE16_M_insert_uniqueIRKS4_EESt4pairISt17_Rb_tree_iteratorIS4_EbEOT_"
 "_ZNSt8_Rb_treeIN5boost3icl19continuous_intervalIdSt4lessEES4_St9_IdentityIS4_ENS1_19exclusive_less_thanIS4_EESaIS4_EE24_M_get_insert_unique_posERKS4_"
 "_ZNSt8_Rb_treeIN5boost3icl19continuous_intervalIdSt4lessEES4_St9_IdentityIS4_ENS1_19exclusive_less_thanIS4_EESaIS4_EE29_M_get_insert_hint_unique_posESt23_Rb_tree_const_iteratorIS4_ERKS4_"
 "_ZNSt8_Rb_treeIN5boost3icl19continuous_intervalIdSt4lessEES4_St9_IdentityIS4_ENS1_19exclusive_less_thanIS4_EESaIS4_EE8_M_eraseEPSt13_Rb_tree_nodeIS4_E"
 "_ZNSt8_Rb_treeINSt7__cxx1112basic_stringIcSt11char_traitsIcESaIcEEESt4pairIKS5_S5_ESt10_Select1stIS8_ESt4lessIS5_ESaIS8_EE8_M_eraseEPSt13_Rb_tree_nodeIS8_E"
 "_ZNSt8_Rb_treeINSt7__cxx1112basic_stringIcSt11char_traitsIcESaIcEEESt4pairIKS5_St3mapIS5_S5_St4lessIS5_ESaIS6_IS7_S5_EEEESt10_Select1stISE_ESA_SaISE_EE8_M_eraseEPSt13_Rb_tree_nodeISE_E"
 "_ZNSt8_Rb_treeINSt7__cxx1112basic_stringIcSt11char_traitsIcESaIcEEESt4pairIKS5_St6vectorIN11imagefusion6option6OptionESaISB_EEESt10_Select1stISE_ESt4lessIS5_ESaISE_EE14_M_insert_nodeEPSt18_Rb_tree_node_baseSM_PSt13_Rb_tree_nodeISE_E"
 "_ZNSt8_Rb_treeINSt7__cxx1112basic_stringIcSt11char_traitsIcESaIcEEESt4pairIKS5_St6vectorIN11imagefusion6option6OptionESaISB_EEESt10_Select1stISE_ESt4lessIS5_ESaISE_EE22_M_emplace_hint_uniqueIJRKSt21piecewise_construct_tSt5tupleIJRS7_EESP_IJEEEEESt17_Rb_tree_iteratorISE_ESt23_Rb_tree_const_iteratorISE_EDpOT_"
 "_ZNSt8_Rb_treeINSt7__cxx1112basic_stringIcSt11char_traitsIcESaIcEEESt4pairIKS5_St6vectorIN11imagefusion6option6OptionESaISB_EEESt10_Select1stISE_ESt4lessIS5_ESaISE_EE24_M_get_insert_unique_posERS7_"
 "_ZNSt8_Rb_treeINSt7__cxx1112basic_stringIcSt11char_traitsIcESaIcEEESt4pairIKS5_St6vectorIN11imagefusion6option6OptionESaISB_EEESt10_Select1stISE_ESt4lessIS5_ESaISE_EE29_M_get_insert_hint_unique_posESt23_Rb_tree_const_iteratorISE_ERS7_"
 "_ZNSt8_Rb_treeINSt7__cxx1112basic_stringIcSt11char_traitsIcESaIcEEESt4pairIKS5_St6vectorIN11imagefusion6option6OptionESaISB_EEESt10_Select1stISE_ESt4lessIS5_ESaISE_EE8_M_eraseEPSt13_Rb_tree_nodeISE_E"
 "_ZNSt8functionIFN11imagefusion6option9ArgStatusERKNS1_6OptionEEEC1ERKS7_"
 "_ZSt13__adjust_heapIN9__gnu_cxx17__normal_iteratorIPiSt6vectorIiSaIiEEEExiNS0_5__ops15_Iter_less_iterEEvT_T0_SA_T1_T2_"
 "_ZSt16__insertion_sortIN9__gnu_cxx17__normal_iteratorIPiSt6vectorIiSaIiEEEENS0_5__ops15_Iter_less_iterEEvT_S9_T0_"
 "_ZSt16__introsort_loopIN9__gnu_cxx17__normal_iteratorIPiSt6vectorIiSaIiEEEExNS0_5__ops15_Iter_less_iterEEvT_S9_T0_T1_"
 "_ZSt19piecewise_construct"
 "_ZSt8distanceIN5boost14token_iteratorINS0_14char_separatorIcSt11char_traitsIcEEEN9__gnu_cxx17__normal_iteratorIPKcNSt7__cxx1112basic_stringIcS4_SaIcEEEEESD_EEENSt15iterator_traitsIT_E15difference_typeESH_SH_"
 "_ZStplIcSt11char_traitsIcESaIcEENSt7__cxx1112basic_stringIT_T0_T1_EEOS8_PKS5_"
 "_ZStplIcSt11char_traitsIcESaIcEENSt7__cxx1112basic_stringIT_T0_T1_EEOS8_RKS8_"
 "_ZStplIcSt11char_traitsIcESaIcEENSt7__cxx1112basic_stringIT_T0_T1_EEOS8_S9_"
 "_ZStplIcSt11char_traitsIcESaIcEENSt7__cxx1112basic_stringIT_T0_T1_EEPKS5_OS8_"
 "_ZStplIcSt11char_traitsIcESaIcEENSt7__cxx1112basic_stringIT_T0_T1_EEPKS5_RKS8_"
 "_ZStplIcSt11char_traitsIcESaIcEENSt7__cxx1112basic_stringIT_T0_T1_EERKS8_SA_"
 "_ZTCN11imagefusion10size_errorE0_NS_13runtime_errorE"
 "_ZTCN11imagefusion16image_type_errorE0_NS_13runtime_errorE"
 "_ZTCN11imagefusion22invalid_argument_errorE0_NS_13runtime_errorE"
 "_ZTIFN11imagefusion6option9ArgStatusERKNS0_6OptionEE"
 "_ZTIN11imagefusion10ConstImageE"
 "_ZTIN11imagefusion10size_errorE"
 "_ZTIN11imagefusion11logic_errorE"
 "_ZTIN11imagefusion13runtime_errorE"
 "_ZTIN11imagefusion16image_type_errorE"
 "_ZTIN11imagefusion22invalid_argument_errorE"
 "_ZTIN11imagefusion5ImageE"
 "_ZTIN5boost10error_infoIN11imagefusion14tag_image_typeENS1_4TypeEEE"
 "_ZTIN5boost10error_infoIN11imagefusion18tag_resolution_tagENSt7__cxx1112basic_stringIcSt11char_traitsIcESaIcEEEEE"
 "_ZTIN5boost10error_infoIN11imagefusion8tag_dateEiEE"
 "_ZTIN5boost10error_infoIN11imagefusion8tag_sizeEN2cv5Size_IiEEEE"
 "_ZTIN5boost10error_infoINS_18errinfo_file_name_ENSt7__cxx1112basic_stringIcSt11char_traitsIcESaIcEEEEE"
 "_ZTIN5boost16exception_detail10bad_alloc_E"
 "_ZTIN5boost16exception_detail10clone_baseE"
 "_ZTIN5boost16exception_detail10clone_implINS0_10bad_alloc_EEE"
 "_ZTIN5boost16exception_detail10clone_implINS0_14bad_exception_EEE"
 "_ZTIN5boost16exception_detail14bad_exception_E"
 "_ZTIN5boost16exception_detail15error_info_baseE"
 "_ZTIN5boost16exception_detail20error_info_containerE"
 "_ZTIN5boost16exception_detail25error_info_container_implE"
 "_ZTIN5boost6detail15sp_counted_baseE"
 "_ZTIN5boost6detail17sp_counted_impl_pINS_10error_infoIN11imagefusion14tag_image_typeENS3_4TypeEEEEE"
 "_ZTIN5boost6detail17sp_counted_impl_pINS_10error_infoIN11imagefusion18tag_resolution_tagENSt7__cxx1112basic_stringIcSt11char_traitsIcESaIcEEEEEEE"
 "_ZTIN5boost6detail17sp_counted_impl_pINS_10error_infoIN11imagefusion8tag_dateEiEEEE"
 "_ZTIN5boost6detail17sp_counted_impl_pINS_10error_infoIN11imagefusion8tag_sizeEN2cv5Size_IiEEEEEE"
 "_ZTIN5boost6detail17sp_counted_impl_pINS_10error_infoINS_18errinfo_file_name_ENSt7__cxx1112basic_stringIcSt11char_traitsIcESaIcEEEEEEE"
 "_ZTIN5boost6detail17sp_counted_impl_pINS_16exception_detail10clone_implINS2_10bad_alloc_EEEEE"
 "_ZTIN5boost6detail17sp_counted_impl_pINS_16exception_detail10clone_implINS2_14bad_exception_EEEEE"
 "_ZTIN5boost6detail17sp_counted_impl_pINS_16exception_detail15error_info_baseEEE"
 "_ZTIN5boost9exceptionE"
 "_ZTINSt10filesystem7__cxx1116filesystem_errorE"
 "_ZTIPFN11imagefusion6option9ArgStatusERKNS0_6OptionEE"
 "_ZTISt11logic_error"
 "_ZTISt12out_of_range"
 "_ZTISt12system_error"
 "_ZTISt13bad_exception"
 "_ZTISt13runtime_error"
 "_ZTISt16invalid_argument"
 "_ZTISt9bad_alloc"
 "_ZTISt9exception"
 "_ZTSFN11imagefusion6option9ArgStatusERKNS0_6OptionEE"
 "_ZTSN11imagefusion10ConstImageE"
 "_ZTSN11imagefusion10size_errorE"
 "_ZTSN11imagefusion11logic_errorE"
 "_ZTSN11imagefusion13runtime_errorE"
 "_ZTSN11imagefusion16image_type_errorE"
 "_ZTSN11imagefusion22invalid_argument_errorE"
 "_ZTSN11imagefusion5ImageE"
 "_ZTSN5boost10error_infoIN11imagefusion14tag_image_typeENS1_4TypeEEE"
 "_ZTSN5boost10error_infoIN11imagefusion18tag_resolution_tagENSt7__cxx1112basic_stringIcSt11char_traitsIcESaIcEEEEE"
 "_ZTSN5boost10error_infoIN11imagefusion8tag_dateEiEE"
 "_ZTSN5boost10error_infoIN11imagefusion8tag_sizeEN2cv5Size_IiEEEE"
 "_ZTSN5boost10error_infoINS_18errinfo_file_name_ENSt7__cxx1112basic_stringIcSt11char_traitsIcESaIcEEEEE"
 "_ZTSN5boost16exception_detail10bad_alloc_E"
 "_ZTSN5boost16exception_detail10clone_baseE"
 "_ZTSN5boost16exception_detail10clone_implINS0_10bad_alloc_EEE"
 "_ZTSN5boost16exception_detail10clone_implINS0_14bad_exception_EEE"
 "_ZTSN5boost16exception_detail14bad_exception_E"
 "_ZTSN5boost16exception_detail15error_info_baseE"
 "_ZTSN5boost16exception_detail20error_info_containerE"
 "_ZTSN5boost16exception_detail25error_info_container_implE"
 "_ZTSN5boost6detail15sp_counted_baseE"
 "_ZTSN5boost6detail17sp_counted_impl_pINS_10error_infoIN11imagefusion14tag_image_typeENS3_4TypeEEEEE"
 "_ZTSN5boost6detail17sp_counted_impl_pINS_10error_infoIN11imagefusion18tag_resolution_tagENSt7__cxx1112basic_stringIcSt11char_traitsIcESaIcEEEEEEE"
 "_ZTSN5boost6detail17sp_counted_impl_pINS_10error_infoIN11imagefusion8tag_dateEiEEEE"
 "_ZTSN5boost6detail17sp_counted_impl_pINS_10error_infoIN11imagefusion8tag_sizeEN2cv5Size_IiEEEEEE"
 "_ZTSN5boost6detail17sp_counted_impl_pINS_10error_infoINS_18errinfo_file_name_ENSt7__cxx1112basic_stringIcSt11char_traitsIcESaIcEEEEEEE"
 "_ZTSN5boost6detail17sp_counted_impl_pINS_16exception_detail10clone_implINS2_10bad_alloc_EEEEE"
 "_ZTSN5boost6detail17sp_counted_impl_pINS_16exception_detail10clone_implINS2_14bad_exception_EEEEE"
 "_ZTSN5boost6detail17sp_counted_impl_pINS_16exception_detail15error_info_baseEEE"
 "_ZTSN5boost9exceptionE"
 "_ZTSNSt10filesystem7__cxx1116filesystem_errorE"
 "_ZTSPFN11imagefusion6option9ArgStatusERKNS0_6OptionEE"
 "_ZTSPN11imagefusion14tag_image_typeE"
 "_ZTSPN11imagefusion18tag_resolution_tagE"
 "_ZTSPN11imagefusion8tag_dateE"
 "_ZTSPN11imagefusion8tag_sizeE"
 "_ZTSPN5boost18errinfo_file_name_E"
 "_ZTSSt11logic_error"
 "_ZTSSt12out_of_range"
 "_ZTSSt12system_error"
 "_ZTSSt13bad_exception"
 "_ZTSSt13runtime_error"
 "_ZTSSt16invalid_argument"
 "_ZTSSt9bad_alloc"
 "_ZTSSt9exception"
 "_ZTTN11imagefusion10size_errorE"
 "_ZTTN11imagefusion11logic_errorE"
 "_ZTTN11imagefusion13runtime_errorE"
 "_ZTTN11imagefusion16image_type_errorE"
 "_ZTTN11imagefusion22invalid_argument_errorE"
 "_ZTTN5boost16exception_detail10clone_implINS0_10bad_alloc_EEE"
 "_ZTTN5boost16exception_detail10clone_implINS0_14bad_exception_EEE"
 "_ZTVN11imagefusion10ConstImageE"
 "_ZTVN11imagefusion10size_errorE"
 "_ZTVN11imagefusion11logic_errorE"
 "_ZTVN11imagefusion13runtime_errorE"
 "_ZTVN11imagefusion16image_type_errorE"
 "_ZTVN11imagefusion22invalid_argument_errorE"
 "_ZTVN11imagefusion5ImageE"
 "_ZTVN5boost10error_infoIN11imagefusion14tag_image_typeENS1_4TypeEEE"
 "_ZTVN5boost10error_infoIN11imagefusion18tag_resolution_tagENSt7__cxx1112basic_stringIcSt11char_traitsIcESaIcEEEEE"
 "_ZTVN5boost10error_infoIN11imagefusion8tag_dateEiEE"
 "_ZTVN5boost10error_infoIN11imagefusion8tag_sizeEN2cv5Size_IiEEEE"
 "_ZTVN5boost10error_infoINS_18errinfo_file_name_ENSt7__cxx1112basic_stringIcSt11char_traitsIcESaIcEEEEE"
 "_ZTVN5boost16exception_detail10bad_alloc_E"
 "_ZTVN5boost16exception_detail10clone_baseE"
 "_ZTVN5boost16exception_detail10clone_implINS0_10bad_alloc_EEE"
 "_ZTVN5boost16exception_detail10clone_implINS0_14bad_exception_EEE"
 "_ZTVN5boost16exception_detail14bad_exception_E"
 "_ZTVN5boost16exception_detail25error_info_container_implE"
 "_ZTVN5boost6detail17sp_counted_impl_pINS_10error_infoIN11imagefusion14tag_image_typeENS3_4TypeEEEEE"
 "_ZTVN5boost6detail17sp_counted_impl_pINS_10error_infoIN11imagefusion18tag_resolution_tagENSt7__cxx1112basic_stringIcSt11char_traitsIcESaIcEEEEEEE"
 "_ZTVN5boost6detail17sp_counted_impl_pINS_10error_infoIN11imagefusion8tag_dateEiEEEE"
 "_ZTVN5boost6detail17sp_counted_impl_pINS_10error_infoIN11imagefusion8tag_sizeEN2cv5Size_IiEEEEEE"
 "_ZTVN5boost6detail17sp_counted_impl_pINS_10error_infoINS_18errinfo_file_name_ENSt7__cxx1112basic_stringIcSt11char_traitsIcESaIcEEEEEEE"
 "_ZTVN5boost6detail17sp_counted_impl_pINS_16exception_detail10clone_implINS2_10bad_alloc_EEEEE"
 "_ZTVN5boost6detail17sp_counted_impl_pINS_16exception_detail10clone_implINS2_14bad_exception_EEEEE"
 "_ZTVN5boost6detail17sp_counted_impl_pINS_16exception_detail15error_info_baseEEE"
 "_ZTVN5boost9exceptionE"
 "_ZThn40_N5boost16exception_detail10bad_alloc_D0Ev"
 "_ZThn40_N5boost16exception_detail10bad_alloc_D1Ev"
 "_ZThn40_N5boost16exception_detail10clone_implINS0_10bad_alloc_EED0Ev"
 "_ZThn40_N5boost16exception_detail10clone_implINS0_10bad_alloc_EED1Ev"
 "_ZThn40_N5boost16exception_detail10clone_implINS0_14bad_exception_EED0Ev"
 "_ZThn40_N5boost16exception_detail10clone_implINS0_14bad_exception_EED1Ev"
 "_ZThn40_N5boost16exception_detail14bad_exception_D0Ev"
 "_ZThn40_N5boost16exception_detail14bad_exception_D1Ev"
 "_ZTv0_n24_N11imagefusion10size_errorD0Ev"
 "_ZTv0_n24_N11imagefusion10size_errorD1Ev"
 "_ZTv0_n24_N11imagefusion11logic_errorD0Ev"
 "_ZTv0_n24_N11imagefusion11logic_errorD1Ev"
 "_ZTv0_n24_N11imagefusion13runtime_errorD0Ev"
 "_ZTv0_n24_N11imagefusion13runtime_errorD1Ev"
 "_ZTv0_n24_N11imagefusion16image_type_errorD0Ev"
 "_ZTv0_n24_N11imagefusion16image_type_errorD1Ev"
 "_ZTv0_n24_N11imagefusion22invalid_argument_errorD0Ev"
 "_ZTv0_n24_N11imagefusion22invalid_argument_errorD1Ev"
 "_ZTv0_n24_NK5boost16exception_detail10clone_implINS0_10bad_alloc_EE5cloneEv"
 "_ZTv0_n24_NK5boost16exception_detail10clone_implINS0_14bad_exception_EE5cloneEv"
 "_ZTv0_n32_NK5boost16exception_detail10clone_implINS0_10bad_alloc_EE7rethrowEv"
 "_ZTv0_n32_NK5boost16exception_detail10clone_implINS0_14bad_exception_EE7rethrowEv"
 "_ZTv0_n40_N11imagefusion10size_errorD0Ev"
 "_ZTv0_n40_N11imagefusion10size_errorD1Ev"
 "_ZTv0_n40_N11imagefusion16image_type_errorD0Ev"
 "_ZTv0_n40_N11imagefusion16image_type_errorD1Ev"
 "_ZTv0_n40_N11imagefusion22invalid_argument_errorD0Ev"
 "_ZTv0_n40_N11imagefusion22invalid_argument_errorD1Ev"
 "_ZTv0_n40_N5boost16exception_detail10clone_implINS0_10bad_alloc_EED0Ev"
 "_ZTv0_n40_N5boost16exception_detail10clone_implINS0_10bad_alloc_EED1Ev"
 "_ZTv0_n40_N5boost16exception_detail10clone_implINS0_14bad_exception_EED0Ev"
 "_ZTv0_n40_N5boost16exception_detail10clone_implINS0_14bad_exception_EED1Ev"
 "_ZZN5boost16exception_detail27get_static_exception_objectINS0_10bad_alloc_EEENS_13exception_ptrEvE2ep"
 "_ZZN5boost16exception_detail27get_static_exception_objectINS0_14bad_exception_EEENS_13exception_ptrEvE2ep"
 "_ZZN5boost3icl16identity_elementIdE5valueEvE6_value"
 "_ZGVN5boost16exception_detail37exception_ptr_static_exception_objectINS0_10bad_alloc_EE1eE"
 "_ZGVN5boost16exception_detail37exception_ptr_static_exception_objectINS0_14bad_exception_EE1eE"
 "_ZGVN7cvflann7anyimpl12SinglePolicyINS0_9empty_anyEE6policyE"
 "_ZGVN7cvflann7anyimpl12SinglePolicyINS_17flann_algorithm_tEE6policyE"
 "_ZGVN7cvflann7anyimpl12SinglePolicyINS_20flann_centers_init_tEE6policyE"
 "_ZGVN7cvflann7anyimpl12SinglePolicyINSt7__cxx1112basic_stringIcSt11char_traitsIcESaIcEEEE6policyE"
 "_ZGVN7cvflann7anyimpl12SinglePolicyIPKcE6policyE"
 "_ZGVN7cvflann7anyimpl12SinglePolicyIbE6policyE"
 "_ZGVN7cvflann7anyimpl12SinglePolicyIfE6policyE"
 "_ZGVN7cvflann7anyimpl12SinglePolicyIiE6policyE"
 "_ZGVN7cvflann7anyimpl12SinglePolicyIjE6policyE"
 "_ZGVZN5boost16exception_detail27get_static_exception_objectINS0_10bad_alloc_EEENS_13exception_ptrEvE2ep"
 "_ZGVZN5boost16exception_detail27get_static_exception_objectINS0_14bad_exception_EEENS_13exception_ptrEvE2ep"
 "_ZN11imagefusion10ConstImageD0Ev"
 "_ZN11imagefusion10ConstImageD1Ev"
 "_ZN11imagefusion10FileFormatC1ERKNSt7__cxx1112basic_stringIcSt11char_traitsIcESaIcEEE"
 "_ZN11imagefusion10toFullTypeEi"
 "_ZN11imagefusion11getFullTypeENS_4TypeEh"
 "_ZN11imagefusion11logic_errorD0Ev"
 "_ZN11imagefusion11logic_errorD1Ev"
 "_ZN11imagefusion13runtime_errorD0Ev"
 "_ZN11imagefusion13runtime_errorD1Ev"
 "_ZN11imagefusion16image_type_errorD0Ev"
 "_ZN11imagefusion16image_type_errorD1Ev"
 "_ZN11imagefusion22invalid_argument_errorC1ERKS0_"
 "_ZN11imagefusion22invalid_argument_errorD0Ev"
 "_ZN11imagefusion22invalid_argument_errorD1Ev"
 "_ZN11imagefusion5ImageD0Ev"
 "_ZN11imagefusion5ImageD1Ev"
 "_ZN11imagefusion7GeoInfoC1ERKS0_"
 "_ZN11imagefusion7GeoInfoD1Ev"
 "_ZN11imagefusion9to_stringB5cxx11ENS_4TypeE"
 "_ZN2cv3MatD1Ev"
 "_ZN5boost10error_infoIN11imagefusion14tag_image_typeENS1_4TypeEED0Ev"
 "_ZN5boost10error_infoIN11imagefusion14tag_image_typeENS1_4TypeEED1Ev"
 "_ZN5boost10error_infoINS_18errinfo_file_name_ENSt7__cxx1112basic_stringIcSt11char_traitsIcESaIcEEEED0Ev"
 "_ZN5boost10error_infoINS_18errinfo_file_name_ENSt7__cxx1112basic_stringIcSt11char_traitsIcESaIcEEEED1Ev"
 "_ZN5boost16exception_detail10bad_alloc_D0Ev"
 "_ZN5boost16exception_detail10bad_alloc_D1Ev"
 "_ZN5boost16exception_detail10bad_alloc_D2Ev"
 "_ZN5boost16exception_detail10clone_implINS0_10bad_alloc_EED0Ev"
 "_ZN5boost16exception_detail10clone_implINS0_10bad_alloc_EED1Ev"
 "_ZN5boost16exception_detail10clone_implINS0_14bad_exception_EED0Ev"
 "_ZN5boost16exception_detail10clone_implINS0_14bad_exception_EED1Ev"
 "_ZN5boost16exception_detail11set_info_rvINS_10error_infoIN11imagefusion14tag_image_typeENS3_4TypeEEEE3setINS3_16image_type_errorEEERKT_SC_OS6_"
 "_ZN5boost16exception_detail11set_info_rvINS_10error_infoINS_18errinfo_file_name_ENSt7__cxx1112basic_stringIcSt11char_traitsIcESaIcEEEEEE3setIN11imagefusion13runtime_errorEEERKT_SH_OSA_"
 "_ZN5boost16exception_detail14bad_exception_D0Ev"
 "_ZN5boost16exception_detail14bad_exception_D1Ev"
 "_ZN5boost16exception_detail14bad_exception_D2Ev"
 "_ZN5boost16exception_detail20copy_boost_exceptionEPNS_9exceptionEPKS1_"
 "_ZN5boost16exception_detail25error_info_container_impl3setERKNS_10shared_ptrINS0_15error_info_baseEEERKNS0_10type_info_E"
 "_ZN5boost16exception_detail27get_static_exception_objectINS0_10bad_alloc_EEENS_13exception_ptrEv"
 "_ZN5boost16exception_detail27get_static_exception_objectINS0_14bad_exception_EEENS_13exception_ptrEv"
 "_ZN5boost16exception_detail37exception_ptr_static_exception_objectINS0_10bad_alloc_EE1eE"
 "_ZN5boost16exception_detail37exception_ptr_static_exception_objectINS0_14bad_exception_EE1eE"
 "_ZN5boost6detail15sp_counted_base7destroyEv"
 "_ZN5boost6detail15sp_counted_base7releaseEv"
 "_ZN5boost6detail17sp_counted_impl_pINS_10error_infoIN11imagefusion14tag_image_typeENS3_4TypeEEEE11get_deleterERKSt9type_info"
 "_ZN5boost6detail17sp_counted_impl_pINS_10error_infoIN11imagefusion14tag_image_typeENS3_4TypeEEEE17get_local_deleterERKSt9type_info"
 "_ZN5boost6detail17sp_counted_impl_pINS_10error_infoIN11imagefusion14tag_image_typeENS3_4TypeEEEE19get_untyped_deleterEv"
 "_ZN5boost6detail17sp_counted_impl_pINS_10error_infoIN11imagefusion14tag_image_typeENS3_4TypeEEEE7disposeEv"
 "_ZN5boost6detail17sp_counted_impl_pINS_10error_infoIN11imagefusion14tag_image_typeENS3_4TypeEEEED0Ev"
 "_ZN5boost6detail17sp_counted_impl_pINS_10error_infoIN11imagefusion14tag_image_typeENS3_4TypeEEEED1Ev"
 "_ZN5boost6detail17sp_counted_impl_pINS_10error_infoINS_18errinfo_file_name_ENSt7__cxx1112basic_stringIcSt11char_traitsIcESaIcEEEEEE11get_deleterERKSt9type_info"
 "_ZN5boost6detail17sp_counted_impl_pINS_10error_infoINS_18errinfo_file_name_ENSt7__cxx1112basic_stringIcSt11char_traitsIcESaIcEEEEEE17get_local_deleterERKSt9type_info"
 "_ZN5boost6detail17sp_counted_impl_pINS_10error_infoINS_18errinfo_file_name_ENSt7__cxx1112basic_stringIcSt11char_traitsIcESaIcEEEEEE19get_untyped_deleterEv"
 "_ZN5boost6detail17sp_counted_impl_pINS_10error_infoINS_18errinfo_file_name_ENSt7__cxx1112basic_stringIcSt11char_traitsIcESaIcEEEEEE7disposeEv"
 "_ZN5boost6detail17sp_counted_impl_pINS_10error_infoINS_18errinfo_file_name_ENSt7__cxx1112basic_stringIcSt11char_traitsIcESaIcEEEEEED0Ev"
 "_ZN5boost6detail17sp_counted_impl_pINS_10error_infoINS_18errinfo_file_name_ENSt7__cxx1112basic_stringIcSt11char_traitsIcESaIcEEEEEED1Ev"
 "_ZN5boost6detail17sp_counted_impl_pINS_16exception_detail10clone_implINS2_10bad_alloc_EEEE11get_deleterERKSt9type_info"
 "_ZN5boost6detail17sp_counted_impl_pINS_16exception_detail10clone_implINS2_10bad_alloc_EEEE17get_local_deleterERKSt9type_info"
 "_ZN5boost6detail17sp_counted_impl_pINS_16exception_detail10clone_implINS2_10bad_alloc_EEEE19get_untyped_deleterEv"
 "_ZN5boost6detail17sp_counted_impl_pINS_16exception_detail10clone_implINS2_10bad_alloc_EEEE7disposeEv"
 "_ZN5boost6detail17sp_counted_impl_pINS_16exception_detail10clone_implINS2_10bad_alloc_EEEED0Ev"
 "_ZN5boost6detail17sp_counted_impl_pINS_16exception_detail10clone_implINS2_10bad_alloc_EEEED1Ev"
 "_ZN5boost6detail17sp_counted_impl_pINS_16exception_detail10clone_implINS2_14bad_exception_EEEE11get_deleterERKSt9type_info"
 "_ZN5boost6detail17sp_counted_impl_pINS_16exception_detail10clone_implINS2_14bad_exception_EEEE17get_local_deleterERKSt9type_info"
 "_ZN5boost6detail17sp_counted_impl_pINS_16exception_detail10clone_implINS2_14bad_exception_EEEE19get_untyped_deleterEv"
 "_ZN5boost6detail17sp_counted_impl_pINS_16exception_detail10clone_implINS2_14bad_exception_EEEE7disposeEv"
 "_ZN5boost6detail17sp_counted_impl_pINS_16exception_detail10clone_implINS2_14bad_exception_EEEED0Ev"
 "_ZN5boost6detail17sp_counted_impl_pINS_16exception_detail10clone_implINS2_14bad_exception_EEEED1Ev"
 "_ZN5boost6detail17sp_counted_impl_pINS_16exception_detail15error_info_baseEE11get_deleterERKSt9type_info"
 "_ZN5boost6detail17sp_counted_impl_pINS_16exception_detail15error_info_baseEE17get_local_deleterERKSt9type_info"
 "_ZN5boost6detail17sp_counted_impl_pINS_16exception_detail15error_info_baseEE19get_untyped_deleterEv"
 "_ZN5boost6detail17sp_counted_impl_pINS_16exception_detail15error_info_baseEE7disposeEv"
 "_ZN5boost6detail17sp_counted_impl_pINS_16exception_detail15error_info_baseEED0Ev"
 "_ZN5boost6detail17sp_counted_impl_pINS_16exception_detail15error_info_baseEED1Ev"
 "_ZN5boost9to_stringINS_18errinfo_file_name_ENSt7__cxx1112basic_stringIcSt11char_traitsIcESaIcEEEEES7_RKNS_10error_infoIT_T0_EE"
 "_ZN7helpers13usageMaskFileE"
 "_ZN7helpers14processSetMaskERKN11imagefusion10ConstImageES3_RKN5boost3icl12interval_setIdSt4lessNS5_19continuous_intervalIdS7_EESaEEb"
 "_ZN7helpers15outputImageFileERKN11imagefusion10ConstImageENS0_7GeoInfoENSt7__cxx1112basic_stringIcSt11char_traitsIcESaIcEEESA_SA_NS0_10FileFormatEiii"
 "_ZN7helpers16usageValidRangesE"
 "_ZN7helpers18usageInvalidRangesE"
 "_ZN7helpers25checkPairDatesAndAllDatesESt6vectorIiSaIiEES2_NSt7__cxx1112basic_stringIcSt11char_traitsIcESaIcEEES8_j"
 "_ZN7helpers26findAppropriateNodataValueERKN11imagefusion10ConstImageES3_"
 "_ZN7helpers7getJobsERKSt6vectorIiSaIiEES4_bb"
 "_ZN7helpers7getTagsINSt7__cxx1112basic_stringIcSt11char_traitsIcESaIcEEEEESt4pairIS6_S6_ERKN11imagefusion18MultiResCollectionIT_EE"
 "_ZN7helpers9parseJobsERKN11imagefusion18MultiResCollectionINSt7__cxx1112basic_stringIcSt11char_traitsIcESaIcEEEEEjbb"
 "_ZN9__gnu_cxx12__to_xstringINSt7__cxx1112basic_stringIcSt11char_traitsIcESaIcEEEcEET_PFiPT0_yPKS8_PcEySB_z"
 "_ZNK2cv3Mat5emptyEv"
 "_ZNK5boost10error_infoIN11imagefusion14tag_image_typeENS1_4TypeEE17name_value_stringB5cxx11Ev"
 "_ZNK5boost10error_infoIN11imagefusion14tag_image_typeENS1_4TypeEE5cloneEv"
 "_ZNK5boost10error_infoINS_18errinfo_file_name_ENSt7__cxx1112basic_stringIcSt11char_traitsIcESaIcEEEE17name_value_stringEv"
 "_ZNK5boost10error_infoINS_18errinfo_file_name_ENSt7__cxx1112basic_stringIcSt11char_traitsIcESaIcEEEE5cloneEv"
 "_ZNK5boost16exception_detail10clone_implINS0_10bad_alloc_EE5cloneEv"
 "_ZNK5boost16exception_detail10clone_implINS0_10bad_alloc_EE7rethrowEv"
 "_ZNK5boost16exception_detail10clone_implINS0_14bad_exception_EE5cloneEv"
 "_ZNK5boost16exception_detail10clone_implINS0_14bad_exception_EE7rethrowEv"
 "_ZNK5boost16exception_detail25error_info_container_impl22diagnostic_informationEPKc"
 "_ZNK5boost16exception_detail25error_info_container_impl3getERKNS0_10type_info_E"
 "_ZNK5boost16exception_detail25error_info_container_impl5cloneEv"
 "_ZNK5boost16exception_detail25error_info_container_impl7add_refEv"
 "_ZNK5boost16exception_detail25error_info_container_impl7releaseEv"
 "_ZNKSt23__codecvt_abstract_baseIwciE2inERiPKcS3_RS3_PwS5_RS5_"
 "_ZNKSt23__codecvt_abstract_baseIwciE3outERiPKwS3_RS3_PcS5_RS5_"
 "_ZNKSt7__cxx1112basic_stringIcSt11char_traitsIcESaIcEE7compareEPKc"
 "_ZNKSt8_Rb_treeINSt7__cxx1112basic_stringIcSt11char_traitsIcESaIcEEESt4pairIKS5_St3mapIiS5_St4lessIiESaIS6_IKiS5_EEEESt10_Select1stISF_ES9_IS5_ESaISF_EE4findERS7_"
 "_ZNSt10filesystem7__cxx1116filesystem_errorC1ERKNSt7__cxx1112basic_stringIcSt11char_traitsIcESaIcEEESt10error_code"
 "_ZNSt10filesystem7__cxx114path14_S_str_convertIcSt11char_traitsIcESaIcEEENSt7__cxx1112basic_stringIT_T0_T1_EERKNS7_IwS3_IwESaIwEEERKSA_"
 "_ZNSt10filesystem7__cxx114pathD1Ev"
 "_ZNSt11char_traitsIcE6lengthEPKc"
 "_ZNSt11char_traitsIcE7compareEPKcS2_y"
 "_ZNSt12codecvt_utf8IwLm1114111ELSt12codecvt_mode0EED0Ev"
 "_ZNSt12codecvt_utf8IwLm1114111ELSt12codecvt_mode0EED1Ev"
 "_ZNSt3mapISt6vectorIiSaIiEES2_St4lessIS2_ESaISt4pairIKS2_S2_EEEixEOS2_"
 "_ZNSt6vectorIN5boost3icl12interval_setIdSt4lessNS1_19continuous_intervalIdS3_EESaEESaIS6_EED1Ev"
 "_ZNSt6vectorINSt10filesystem7__cxx114path5_CmptESaIS3_EEC1ERKS5_"
 "_ZNSt6vectorINSt10filesystem7__cxx114path5_CmptESaIS3_EED1Ev"
 "_ZNSt6vectorINSt7__cxx1112basic_stringIcSt11char_traitsIcESaIcEEESaIS5_EE17_M_realloc_insertIJRKS5_EEEvN9__gnu_cxx17__normal_iteratorIPS5_S7_EEDpOT_"
 "_ZNSt6vectorINSt7__cxx1112basic_stringIcSt11char_traitsIcESaIcEEESaIS5_EE7reserveEy"
 "_ZNSt6vectorINSt7__cxx1112basic_stringIcSt11char_traitsIcESaIcEEESaIS5_EED1Ev"
 "_ZNSt6vectorIiSaIiEE15_M_range_insertIN9__gnu_cxx17__normal_iteratorIPKiS1_EEEEvNS4_IPiS1_EET_SA_St20forward_iterator_tag"
 "_ZNSt6vectorIiSaIiEE17_M_realloc_insertIJRKiEEEvN9__gnu_cxx17__normal_iteratorIPiS1_EEDpOT_"
 "_ZNSt6vectorIiSaIiEE7reserveEy"
 "_ZNSt7__cxx1112basic_stringIcSt11char_traitsIcESaIcEE10_M_replaceEyyPKcy"
 "_ZNSt7__cxx1112basic_stringIcSt11char_traitsIcESaIcEE12_M_constructIPKcEEvT_S8_St20forward_iterator_tag"
 "_ZNSt7__cxx1112basic_stringIcSt11char_traitsIcESaIcEE12_M_constructIPcEEvT_S7_St20forward_iterator_tag"
 "_ZNSt7__cxx1112basic_stringIcSt11char_traitsIcESaIcEE14_M_replace_auxEyyyc"
 "_ZNSt7__cxx1112basic_stringIcSt11char_traitsIcESaIcEE4swapERS4_"
 "_ZNSt7__cxx1112basic_stringIcSt11char_traitsIcESaIcEE6appendEPKc"
 "_ZNSt7__cxx1112basic_stringIcSt11char_traitsIcESaIcEE6resizeEyc"
 "_ZNSt7__cxx1112basic_stringIcSt11char_traitsIcESaIcEE8_M_eraseEyy"
 "_ZNSt7__cxx1112basic_stringIcSt11char_traitsIcESaIcEE9_M_appendEPKcy"
 "_ZNSt7__cxx1112basic_stringIcSt11char_traitsIcESaIcEE9_M_mutateEyyPKcy"
 "_ZNSt7__cxx1112basic_stringIcSt11char_traitsIcESaIcEEaSEOS4_"
 "_ZNSt7__cxx1112basic_stringIwSt11char_traitsIwESaIwEE10_M_replaceEyyPKwy"
 "_ZNSt7__cxx1112basic_stringIwSt11char_traitsIwESaIwEE12_M_constructIPwEEvT_S7_St20forward_iterator_tag"
 "_ZNSt7__cxx1112basic_stringIwSt11char_traitsIwESaIwEE6resizeEyw"
 "_ZNSt7__cxx1112basic_stringIwSt11char_traitsIwESaIwEE9_M_createERyy"
 "_ZNSt7__cxx1112basic_stringIwSt11char_traitsIwESaIwEE9_M_mutateEyyPKwy"
 "_ZNSt8_Rb_treeIN5boost16exception_detail10type_info_ESt4pairIKS2_NS0_10shared_ptrINS1_15error_info_baseEEEESt10_Select1stIS8_ESt4lessIS2_ESaIS8_EE14_M_insert_nodeEPSt18_Rb_tree_node_baseSG_PSt13_Rb_tree_nodeIS8_E"
 "_ZNSt8_Rb_treeIN5boost16exception_detail10type_info_ESt4pairIKS2_NS0_10shared_ptrINS1_15error_info_baseEEEESt10_Select1stIS8_ESt4lessIS2_ESaIS8_EE24_M_get_insert_unique_posERS4_"
 "_ZNSt8_Rb_treeIN5boost16exception_detail10type_info_ESt4pairIKS2_NS0_10shared_ptrINS1_15error_info_baseEEEESt10_Select1stIS8_ESt4lessIS2_ESaIS8_EE8_M_eraseEPSt13_Rb_tree_nodeIS8_E"
 "_ZNSt8_Rb_treeIN5boost3icl19continuous_intervalIdSt4lessEES4_St9_IdentityIS4_ENS1_19exclusive_less_thanIS4_EESaIS4_EE7_M_copyINSA_11_Alloc_nodeEEEPSt13_Rb_tree_nodeIS4_EPKSE_PSt18_Rb_tree_node_baseRT_"
 "_ZNSt8_Rb_treeIN5boost3icl19continuous_intervalIdSt4lessEES4_St9_IdentityIS4_ENS1_19exclusive_less_thanIS4_EESaIS4_EE8_M_eraseEPSt13_Rb_tree_nodeIS4_E"
 "_ZNSt8_Rb_treeINSt7__cxx1112basic_stringIcSt11char_traitsIcESaIcEEESt4pairIKS5_S5_ESt10_Select1stIS8_ESt4lessIS5_ESaIS8_EE7_M_copyINSE_11_Alloc_nodeEEEPSt13_Rb_tree_nodeIS8_EPKSI_PSt18_Rb_tree_node_baseRT_"
 "_ZNSt8_Rb_treeINSt7__cxx1112basic_stringIcSt11char_traitsIcESaIcEEESt4pairIKS5_S5_ESt10_Select1stIS8_ESt4lessIS5_ESaIS8_EE8_M_eraseEPSt13_Rb_tree_nodeIS8_E"
 "_ZNSt8_Rb_treeINSt7__cxx1112basic_stringIcSt11char_traitsIcESaIcEEESt4pairIKS5_St3mapIS5_S5_St4lessIS5_ESaIS6_IS7_S5_EEEESt10_Select1stISE_ESA_SaISE_EE7_M_copyINSI_11_Alloc_nodeEEEPSt13_Rb_tree_nodeISE_EPKSM_PSt18_Rb_tree_node_baseRT_"
 "_ZNSt8_Rb_treeINSt7__cxx1112basic_stringIcSt11char_traitsIcESaIcEEESt4pairIKS5_St3mapIS5_S5_St4lessIS5_ESaIS6_IS7_S5_EEEESt10_Select1stISE_ESA_SaISE_EE8_M_eraseEPSt13_Rb_tree_nodeISE_E"
 "_ZNSt8_Rb_treeISt6vectorIiSaIiEESt4pairIKS2_S2_ESt10_Select1stIS5_ESt4lessIS2_ESaIS5_EE14_M_insert_nodeEPSt18_Rb_tree_node_baseSD_PSt13_Rb_tree_nodeIS5_E"
 "_ZNSt8_Rb_treeISt6vectorIiSaIiEESt4pairIKS2_S2_ESt10_Select1stIS5_ESt4lessIS2_ESaIS5_EE17_M_emplace_uniqueIJS2_S2_EEES3_ISt17_Rb_tree_iteratorIS5_EbEDpOT_"
 "_ZNSt8_Rb_treeISt6vectorIiSaIiEESt4pairIKS2_S2_ESt10_Select1stIS5_ESt4lessIS2_ESaIS5_EE24_M_get_insert_unique_posERS4_"
 "_ZNSt8_Rb_treeISt6vectorIiSaIiEESt4pairIKS2_S2_ESt10_Select1stIS5_ESt4lessIS2_ESaIS5_EE29_M_get_insert_hint_unique_posESt23_Rb_tree_const_iteratorIS5_ERS4_"
 "_ZNSt8_Rb_treeISt6vectorIiSaIiEESt4pairIKS2_S2_ESt10_Select1stIS5_ESt4lessIS2_ESaIS5_EE8_M_eraseEPSt13_Rb_tree_nodeIS5_E"
 "_ZSt13__adjust_heapIN9__gnu_cxx17__normal_iteratorIPiSt6vectorIiSaIiEEEExiNS0_5__ops15_Iter_less_iterEEvT_T0_SA_T1_T2_"
 "_ZSt16__insertion_sortIN9__gnu_cxx17__normal_iteratorIPiSt6vectorIiSaIiEEEENS0_5__ops15_Iter_less_iterEEvT_S9_T0_"
 "_ZSt16__introsort_loopIN9__gnu_cxx17__normal_iteratorIPiSt6vectorIiSaIiEEEExNS0_5__ops15_Iter_less_iterEEvT_S9_T0_T1_"
 "_ZStplIcSt11char_traitsIcESaIcEENSt7__cxx1112basic_stringIT_T0_T1_EEOS8_PKS5_"
 "_ZStplIcSt11char_traitsIcESaIcEENSt7__cxx1112basic_stringIT_T0_T1_EEOS8_S9_"
 "_ZStplIcSt11char_traitsIcESaIcEENSt7__cxx1112basic_stringIT_T0_T1_EEPKS5_OS8_"
 "_ZStplIcSt11char_traitsIcESaIcEENSt7__cxx1112basic_stringIT_T0_T1_EEPKS5_RKS8_"
 "_ZTCN11imagefusion16image_type_errorE0_NS_13runtime_errorE"
 "_ZTCN11imagefusion22invalid_argument_errorE0_NS_13runtime_errorE"
 "_ZTIN11imagefusion10ConstImageE"
 "_ZTIN11imagefusion11logic_errorE"
 "_ZTIN11imagefusion13runtime_errorE"
 "_ZTIN11imagefusion16image_type_errorE"
 "_ZTIN11imagefusion22invalid_argument_errorE"
 "_ZTIN11imagefusion5ImageE"
 "_ZTIN5boost10error_infoIN11imagefusion14tag_image_typeENS1_4TypeEEE"
 "_ZTIN5boost10error_infoINS_18errinfo_file_name_ENSt7__cxx1112basic_stringIcSt11char_traitsIcESaIcEEEEE"
 "_ZTIN5boost16exception_detail10bad_alloc_E"
 "_ZTIN5boost16exception_detail10clone_baseE"
 "_ZTIN5boost16exception_detail10clone_implINS0_10bad_alloc_EEE"
 "_ZTIN5boost16exception_detail10clone_implINS0_14bad_exception_EEE"
 "_ZTIN5boost16exception_detail14bad_exception_E"
 "_ZTIN5boost16exception_detail15error_info_baseE"
 "_ZTIN5boost16exception_detail20error_info_containerE"
 "_ZTIN5boost16exception_detail25error_info_container_implE"
 "_ZTIN5boost6detail15sp_counted_baseE"
 "_ZTIN5boost6detail17sp_counted_impl_pINS_10error_infoIN11imagefusion14tag_image_typeENS3_4TypeEEEEE"
 "_ZTIN5boost6detail17sp_counted_impl_pINS_10error_infoINS_18errinfo_file_name_ENSt7__cxx1112basic_stringIcSt11char_traitsIcESaIcEEEEEEE"
 "_ZTIN5boost6detail17sp_counted_impl_pINS_16exception_detail10clone_implINS2_10bad_alloc_EEEEE"
 "_ZTIN5boost6detail17sp_counted_impl_pINS_16exception_detail10clone_implINS2_14bad_exception_EEEEE"
 "_ZTIN5boost6detail17sp_counted_impl_pINS_16exception_detail15error_info_baseEEE"
 "_ZTIN5boost9exceptionE"
 "_ZTINSt10filesystem7__cxx1116filesystem_errorE"
 "_ZTINSt6locale5facetE"
 "_ZTISt11logic_error"
 "_ZTISt12codecvt_base"
 "_ZTISt12codecvt_utf8IwLm1114111ELSt12codecvt_mode0EE"
 "_ZTISt12system_error"
 "_ZTISt13bad_exception"
 "_ZTISt13runtime_error"
 "_ZTISt19__codecvt_utf8_baseIwE"
 "_ZTISt23__codecvt_abstract_baseIwciE"
 "_ZTISt7codecvtIwciE"
 "_ZTISt9bad_alloc"
 "_ZTISt9exception"
 "_ZTSN11imagefusion10ConstImageE"
 "_ZTSN11imagefusion11logic_errorE"
 "_ZTSN11imagefusion13runtime_errorE"
 "_ZTSN11imagefusion16image_type_errorE"
 "_ZTSN11imagefusion22invalid_argument_errorE"
 "_ZTSN11imagefusion5ImageE"
 "_ZTSN5boost10error_infoIN11imagefusion14tag_image_typeENS1_4TypeEEE"
 "_ZTSN5boost10error_infoINS_18errinfo_file_name_ENSt7__cxx1112basic_stringIcSt11char_traitsIcESaIcEEEEE"
 "_ZTSN5boost16exception_detail10bad_alloc_E"
 "_ZTSN5boost16exception_detail10clone_baseE"
 "_ZTSN5boost16exception_detail10clone_implINS0_10bad_alloc_EEE"
 "_ZTSN5boost16exception_detail10clone_implINS0_14bad_exception_EEE"
 "_ZTSN5boost16exception_detail14bad_exception_E"
 "_ZTSN5boost16exception_detail15error_info_baseE"
 "_ZTSN5boost16exception_detail20error_info_containerE"
 "_ZTSN5boost16exception_detail25error_info_container_implE"
 "_ZTSN5boost6detail15sp_counted_baseE"
 "_ZTSN5boost6detail17sp_counted_impl_pINS_10error_infoIN11imagefusion14tag_image_typeENS3_4TypeEEEEE"
 "_ZTSN5boost6detail17sp_counted_impl_pINS_10error_infoINS_18errinfo_file_name_ENSt7__cxx1112basic_stringIcSt11char_traitsIcESaIcEEEEEEE"
 "_ZTSN5boost6detail17sp_counted_impl_pINS_16exception_detail10clone_implINS2_10bad_alloc_EEEEE"
 "_ZTSN5boost6detail17sp_counted_impl_pINS_16exception_detail10clone_implINS2_14bad_exception_EEEEE"
 "_ZTSN5boost6detail17sp_counted_impl_pINS_16exception_detail15error_info_baseEEE"
 "_ZTSN5boost9exceptionE"
 "_ZTSNSt10filesystem7__cxx1116filesystem_errorE"
 "_ZTSNSt6locale5facetE"
 "_ZTSPN11imagefusion14tag_image_typeE"
 "_ZTSPN5boost18errinfo_file_name_E"
 "_ZTSSt11logic_error"
 "_ZTSSt12codecvt_base"
 "_ZTSSt12codecvt_utf8IwLm1114111ELSt12codecvt_mode0EE"
 "_ZTSSt12system_error"
 "_ZTSSt13bad_exception"
 "_ZTSSt13runtime_error"
 "_ZTSSt19__codecvt_utf8_baseIwE"
 "_ZTSSt23__codecvt_abstract_baseIwciE"
 "_ZTSSt7codecvtIwciE"
 "_ZTSSt9bad_alloc"
 "_ZTSSt9exception"
 "_ZTTN11imagefusion11logic_errorE"
 "_ZTTN11imagefusion13runtime_errorE"
 "_ZTTN11imagefusion16image_type_errorE"
 "_ZTTN11imagefusion22invalid_argument_errorE"
 "_ZTTN5boost16exception_detail10clone_implINS0_10bad_alloc_EEE"
 "_ZTTN5boost16exception_detail10clone_implINS0_14bad_exception_EEE"
 "_ZTVN11imagefusion10ConstImageE"
 "_ZTVN11imagefusion11logic_errorE"
 "_ZTVN11imagefusion13runtime_errorE"
 "_ZTVN11imagefusion16image_type_errorE"
 "_ZTVN11imagefusion22invalid_argument_errorE"
 "_ZTVN11imagefusion5ImageE"
 "_ZTVN5boost10error_infoIN11imagefusion14tag_image_typeENS1_4TypeEEE"
 "_ZTVN5boost10error_infoINS_18errinfo_file_name_ENSt7__cxx1112basic_stringIcSt11char_traitsIcESaIcEEEEE"
 "_ZTVN5boost16exception_detail10bad_alloc_E"
 "_ZTVN5boost16exception_detail10clone_baseE"
 "_ZTVN5boost16exception_detail10clone_implINS0_10bad_alloc_EEE"
 "_ZTVN5boost16exception_detail10clone_implINS0_14bad_exception_EEE"
 "_ZTVN5boost16exception_detail14bad_exception_E"
 "_ZTVN5boost16exception_detail25error_info_container_implE"
 "_ZTVN5boost6detail17sp_counted_impl_pINS_10error_infoIN11imagefusion14tag_image_typeENS3_4TypeEEEEE"
 "_ZTVN5boost6detail17sp_counted_impl_pINS_10error_infoINS_18errinfo_file_name_ENSt7__cxx1112basic_stringIcSt11char_traitsIcESaIcEEEEEEE"
 "_ZTVN5boost6detail17sp_counted_impl_pINS_16exception_detail10clone_implINS2_10bad_alloc_EEEEE"
 "_ZTVN5boost6detail17sp_counted_impl_pINS_16exception_detail10clone_implINS2_14bad_exception_EEEEE"
 "_ZTVN5boost6detail17sp_counted_impl_pINS_16exception_detail15error_info_baseEEE"
 "_ZTVN5boost9exceptionE"
 "_ZTVSt12codecvt_utf8IwLm1114111ELSt12codecvt_mode0EE"
 "_ZThn40_N5boost16exception_detail10bad_alloc_D0Ev"
 "_ZThn40_N5boost16exception_detail10bad_alloc_D1Ev"
 "_ZThn40_N5boost16exception_detail10clone_implINS0_10bad_alloc_EED0Ev"
 "_ZThn40_N5boost16exception_detail10clone_implINS0_10bad_alloc_EED1Ev"
 "_ZThn40_N5boost16exception_detail10clone_implINS0_14bad_exception_EED0Ev"
 "_ZThn40_N5boost16exception_detail10clone_implINS0_14bad_exception_EED1Ev"
 "_ZThn40_N5boost16exception_detail14bad_exception_D0Ev"
 "_ZThn40_N5boost16exception_detail14bad_exception_D1Ev"
 "_ZTv0_n24_N11imagefusion11logic_errorD0Ev"
 "_ZTv0_n24_N11imagefusion11logic_errorD1Ev"
 "_ZTv0_n24_N11imagefusion13runtime_errorD0Ev"
 "_ZTv0_n24_N11imagefusion13runtime_errorD1Ev"
 "_ZTv0_n24_N11imagefusion16image_type_errorD0Ev"
 "_ZTv0_n24_N11imagefusion16image_type_errorD1Ev"
 "_ZTv0_n24_N11imagefusion22invalid_argument_errorD0Ev"
 "_ZTv0_n24_N11imagefusion22invalid_argument_errorD1Ev"
 "_ZTv0_n24_NK5boost16exception_detail10clone_implINS0_10bad_alloc_EE5cloneEv"
 "_ZTv0_n24_NK5boost16exception_detail10clone_implINS0_14bad_exception_EE5cloneEv"
 "_ZTv0_n32_NK5boost16exception_detail10clone_implINS0_10bad_alloc_EE7rethrowEv"
 "_ZTv0_n32_NK5boost16exception_detail10clone_implINS0_14bad_exception_EE7rethrowEv"
 "_ZTv0_n40_N11imagefusion16image_type_errorD0Ev"
 "_ZTv0_n40_N11imagefusion16image_type_errorD1Ev"
 "_ZTv0_n40_N11imagefusion22invalid_argument_errorD0Ev"
 "_ZTv0_n40_N11imagefusion22invalid_argument_errorD1Ev"
 "_ZTv0_n40_N5boost16exception_detail10clone_implINS0_10bad_alloc_EED0Ev"
 "_ZTv0_n40_N5boost16exception_detail10clone_implINS0_10bad_alloc_EED1Ev"
 "_ZTv0_n40_N5boost16exception_detail10clone_implINS0_14bad_exception_EED0Ev"
 "_ZTv0_n40_N5boost16exception_detail10clone_implINS0_14bad_exception_EED1Ev"
 "_ZZN5boost16exception_detail27get_static_exception_objectINS0_10bad_alloc_EEENS_13exception_ptrEvE2ep"
 "_ZZN5boost16exception_detail27get_static_exception_objectINS0_14bad_exception_EEENS_13exception_ptrEvE2ep"
 "_ZGVN5boost16exception_detail37exception_ptr_static_exception_objectINS0_10bad_alloc_EE1eE"
 "_ZGVN5boost16exception_detail37exception_ptr_static_exception_objectINS0_14bad_exception_EE1eE"
 "_ZGVN7cvflann7anyimpl12SinglePolicyINS0_9empty_anyEE6policyE"
 "_ZGVN7cvflann7anyimpl12SinglePolicyINS_17flann_algorithm_tEE6policyE"
 "_ZGVN7cvflann7anyimpl12SinglePolicyINS_20flann_centers_init_tEE6policyE"
 "_ZGVN7cvflann7anyimpl12SinglePolicyINSt7__cxx1112basic_stringIcSt11char_traitsIcESaIcEEEE6policyE"
 "_ZGVN7cvflann7anyimpl12SinglePolicyIPKcE6policyE"
 "_ZGVN7cvflann7anyimpl12SinglePolicyIbE6policyE"
 "_ZGVN7cvflann7anyimpl12SinglePolicyIfE6policyE"
 "_ZGVN7cvflann7anyimpl12SinglePolicyIiE6policyE"
 "_ZGVN7cvflann7anyimpl12SinglePolicyIjE6policyE"
 "_ZGVZN5boost16exception_detail27get_static_exception_objectINS0_10bad_alloc_EEENS_13exception_ptrEvE2ep"
 "_ZGVZN5boost16exception_detail27get_static_exception_objectINS0_14bad_exception_EEENS_13exception_ptrEvE2ep"
 "_ZN11imagefusion10ConstImageC2EiiNS_4TypeE"
 "_ZN11imagefusion10ConstImageD0Ev"
 "_ZN11imagefusion10ConstImageD1Ev"
 "_ZN11imagefusion10size_errorD0Ev"
 "_ZN11imagefusion10size_errorD1Ev"
 "_ZN11imagefusion10toFullTypeEi"
 "_ZN11imagefusion11getFullTypeENS_4TypeEh"
 "_ZN11imagefusion11logic_errorC1ERKS0_"
 "_ZN11imagefusion11logic_errorD0Ev"
 "_ZN11imagefusion11logic_errorD1Ev"
 "_ZN11imagefusion13runtime_errorD0Ev"
 "_ZN11imagefusion13runtime_errorD1Ev"
 "_ZN11imagefusion16image_type_errorC1ERKS0_"
 "_ZN11imagefusion16image_type_errorD0Ev"
 "_ZN11imagefusion16image_type_errorD1Ev"
 "_ZN11imagefusion22invalid_argument_errorC1ERKS0_"
 "_ZN11imagefusion22invalid_argument_errorD0Ev"
 "_ZN11imagefusion22invalid_argument_errorD1Ev"
 "_ZN11imagefusion5ImageD0Ev"
 "_ZN11imagefusion5ImageD1Ev"
 "_ZN11imagefusion6option10ArgChecker6VectorIiEENS0_9ArgStatusERKNS0_6OptionE"
 "_ZN11imagefusion6option10DescriptorC1EOS1_"
 "_ZN11imagefusion6option10DescriptorC1ERKS1_"
 "_ZN11imagefusion6option10DescriptorD1Ev"
 "_ZN11imagefusion6option10ImageInputD1Ev"
 "_ZN11imagefusion6option12OptionParser5parseENSt7__cxx1112basic_stringIcSt11char_traitsIcESaIcEEE"
 "_ZN11imagefusion6option12OptionParserD1Ev"
 "_ZN11imagefusion6option12OptionParserixENSt7__cxx1112basic_stringIcSt11char_traitsIcESaIcEEE"
 "_ZN11imagefusion6option13ArgumentTokenD1Ev"
 "_ZN11imagefusion6option5Parse6VectorIiEESt6vectorIT_SaIS4_EERKNSt7__cxx1112basic_stringIcSt11char_traitsIcESaIcEEESE_"
 "_ZN11imagefusion8toCVTypeENS_4TypeE"
 "_ZN11imagefusion9to_stringB5cxx11ENS_4TypeE"
 "_ZN2cv3MatD1Ev"
 "_ZN5Parse2QLERKNSt7__cxx1112basic_stringIcSt11char_traitsIcESaIcEEES7_bbb"
 "_ZN5boost10error_infoIN11imagefusion14tag_image_typeENS1_4TypeEED0Ev"
 "_ZN5boost10error_infoIN11imagefusion14tag_image_typeENS1_4TypeEED1Ev"
 "_ZN5boost10error_infoIN11imagefusion18tag_resolution_tagENSt7__cxx1112basic_stringIcSt11char_traitsIcESaIcEEEED0Ev"
 "_ZN5boost10error_infoIN11imagefusion18tag_resolution_tagENSt7__cxx1112basic_stringIcSt11char_traitsIcESaIcEEEED1Ev"
 "_ZN5boost10error_infoIN11imagefusion8tag_dateEiED0Ev"
 "_ZN5boost10error_infoIN11imagefusion8tag_dateEiED1Ev"
 "_ZN5boost10error_infoIN11imagefusion8tag_sizeEN2cv5Size_IiEEED0Ev"
 "_ZN5boost10error_infoIN11imagefusion8tag_sizeEN2cv5Size_IiEEED1Ev"
 "_ZN5boost10error_infoINS_18errinfo_file_name_ENSt7__cxx1112basic_stringIcSt11char_traitsIcESaIcEEEED0Ev"
 "_ZN5boost10error_infoINS_18errinfo_file_name_ENSt7__cxx1112basic_stringIcSt11char_traitsIcESaIcEEEED1Ev"
 "_ZN5boost16exception_detail10bad_alloc_D0Ev"
 "_ZN5boost16exception_detail10bad_alloc_D1Ev"
 "_ZN5boost16exception_detail10bad_alloc_D2Ev"
 "_ZN5boost16exception_detail10clone_implINS0_10bad_alloc_EED0Ev"
 "_ZN5boost16exception_detail10clone_implINS0_10bad_alloc_EED1Ev"
 "_ZN5boost16exception_detail10clone_implINS0_14bad_exception_EED0Ev"
 "_ZN5boost16exception_detail10clone_implINS0_14bad_exception_EED1Ev"
 "_ZN5boost16exception_detail11set_info_rvINS_10error_infoIN11imagefusion14tag_image_typeENS3_4TypeEEEE3setINS3_11logic_errorEEERKT_SC_OS6_"
 "_ZN5boost16exception_detail11set_info_rvINS_10error_infoIN11imagefusion14tag_image_typeENS3_4TypeEEEE3setINS3_16image_type_errorEEERKT_SC_OS6_"
 "_ZN5boost16exception_detail11set_info_rvINS_10error_infoIN11imagefusion14tag_image_typeENS3_4TypeEEEE3setINS3_22invalid_argument_errorEEERKT_SC_OS6_"
 "_ZN5boost16exception_detail11set_info_rvINS_10error_infoIN11imagefusion18tag_resolution_tagENSt7__cxx1112basic_stringIcSt11char_traitsIcESaIcEEEEEE3setINS3_22invalid_argument_errorEEERKT_SH_OSB_"
 "_ZN5boost16exception_detail11set_info_rvINS_10error_infoIN11imagefusion8tag_dateEiEEE3setINS3_22invalid_argument_errorEEERKT_SB_OS5_"
 "_ZN5boost16exception_detail11set_info_rvINS_10error_infoIN11imagefusion8tag_sizeEN2cv5Size_IiEEEEE3setINS3_10size_errorEEERKT_SE_OS8_"
 "_ZN5boost16exception_detail11set_info_rvINS_10error_infoINS_18errinfo_file_name_ENSt7__cxx1112basic_stringIcSt11char_traitsIcESaIcEEEEEE3setIN11imagefusion22invalid_argument_errorEEERKT_SH_OSA_"
 "_ZN5boost16exception_detail14bad_exception_D0Ev"
 "_ZN5boost16exception_detail14bad_exception_D1Ev"
 "_ZN5boost16exception_detail14bad_exception_D2Ev"
 "_ZN5boost16exception_detail20copy_boost_exceptionEPNS_9exceptionEPKS1_"
 "_ZN5boost16exception_detail25error_info_container_impl3setERKNS_10shared_ptrINS0_15error_info_baseEEERKNS0_10type_info_E"
 "_ZN5boost16exception_detail27get_static_exception_objectINS0_10bad_alloc_EEENS_13exception_ptrEv"
 "_ZN5boost16exception_detail27get_static_exception_objectINS0_14bad_exception_EEENS_13exception_ptrEv"
 "_ZN5boost16exception_detail37exception_ptr_static_exception_objectINS0_10bad_alloc_EE1eE"
 "_ZN5boost16exception_detail37exception_ptr_static_exception_objectINS0_14bad_exception_EE1eE"
 "_ZN5boost3icl12interval_setIdSt4lessNS0_19continuous_intervalIdS2_EESaE8add_overERKS4_St23_Rb_tree_const_iteratorIS4_E"
 "_ZN5boost3icl17interval_base_setINS0_12interval_setIdSt4lessNS0_19continuous_intervalIdS3_EESaEEdS3_S5_SaE8subtractERKS5_"
 "_ZN5boost3icl4hullINS0_19continuous_intervalIdSt4lessEEEENS_9enable_ifINS0_18has_dynamic_boundsIT_EES7_E4typeES7_RKS7_"
 "_ZN5boost3icl9segmental10join_rightINS0_12interval_setIdSt4lessNS0_19continuous_intervalIdS4_EESaEEEENT_8iteratorERS8_RS9_"
 "_ZN5boost3icl9segmental9join_leftINS0_12interval_setIdSt4lessNS0_19continuous_intervalIdS4_EESaEEEENT_8iteratorERS8_RS9_"
 "_ZN5boost3iclpLINS0_12interval_setIdSt4lessNS0_19continuous_intervalIdS3_EESaEES6_EERNS_9enable_ifINS0_19is_intra_combinableIT_T0_EES9_E4typeERS9_RKSA_"
 "_ZN5boost6detail15sp_counted_base7destroyEv"
 "_ZN5boost6detail15sp_counted_base7releaseEv"
 "_ZN5boost6detail17sp_counted_impl_pINS_10error_infoIN11imagefusion14tag_image_typeENS3_4TypeEEEE11get_deleterERKSt9type_info"
 "_ZN5boost6detail17sp_counted_impl_pINS_10error_infoIN11imagefusion14tag_image_typeENS3_4TypeEEEE17get_local_deleterERKSt9type_info"
 "_ZN5boost6detail17sp_counted_impl_pINS_10error_infoIN11imagefusion14tag_image_typeENS3_4TypeEEEE19get_untyped_deleterEv"
 "_ZN5boost6detail17sp_counted_impl_pINS_10error_infoIN11imagefusion14tag_image_typeENS3_4TypeEEEE7disposeEv"
 "_ZN5boost6detail17sp_counted_impl_pINS_10error_infoIN11imagefusion14tag_image_typeENS3_4TypeEEEED0Ev"
 "_ZN5boost6detail17sp_counted_impl_pINS_10error_infoIN11imagefusion14tag_image_typeENS3_4TypeEEEED1Ev"
 "_ZN5boost6detail17sp_counted_impl_pINS_10error_infoIN11imagefusion18tag_resolution_tagENSt7__cxx1112basic_stringIcSt11char_traitsIcESaIcEEEEEE11get_deleterERKSt9type_info"
 "_ZN5boost6detail17sp_counted_impl_pINS_10error_infoIN11imagefusion18tag_resolution_tagENSt7__cxx1112basic_stringIcSt11char_traitsIcESaIcEEEEEE17get_local_deleterERKSt9type_info"
 "_ZN5boost6detail17sp_counted_impl_pINS_10error_infoIN11imagefusion18tag_resolution_tagENSt7__cxx1112basic_stringIcSt11char_traitsIcESaIcEEEEEE19get_untyped_deleterEv"
 "_ZN5boost6detail17sp_counted_impl_pINS_10error_infoIN11imagefusion18tag_resolution_tagENSt7__cxx1112basic_stringIcSt11char_traitsIcESaIcEEEEEE7disposeEv"
 "_ZN5boost6detail17sp_counted_impl_pINS_10error_infoIN11imagefusion18tag_resolution_tagENSt7__cxx1112basic_stringIcSt11char_traitsIcESaIcEEEEEED0Ev"
 "_ZN5boost6detail17sp_counted_impl_pINS_10error_infoIN11imagefusion18tag_resolution_tagENSt7__cxx1112basic_stringIcSt11char_traitsIcESaIcEEEEEED1Ev"
 "_ZN5boost6detail17sp_counted_impl_pINS_10error_infoIN11imagefusion8tag_dateEiEEE11get_deleterERKSt9type_info"
 "_ZN5boost6detail17sp_counted_impl_pINS_10error_infoIN11imagefusion8tag_dateEiEEE17get_local_deleterERKSt9type_info"
 "_ZN5boost6detail17sp_counted_impl_pINS_10error_infoIN11imagefusion8tag_dateEiEEE19get_untyped_deleterEv"
 "_ZN5boost6detail17sp_counted_impl_pINS_10error_infoIN11imagefusion8tag_dateEiEEE7disposeEv"
 "_ZN5boost6detail17sp_counted_impl_pINS_10error_infoIN11imagefusion8tag_dateEiEEED0Ev"
 "_ZN5boost6detail17sp_counted_impl_pINS_10error_infoIN11imagefusion8tag_dateEiEEED1Ev"
 "_ZN5boost6detail17sp_counted_impl_pINS_10error_infoIN11imagefusion8tag_sizeEN2cv5Size_IiEEEEE11get_deleterERKSt9type_info"
 "_ZN5boost6detail17sp_counted_impl_pINS_10error_infoIN11imagefusion8tag_sizeEN2cv5Size_IiEEEEE17get_local_deleterERKSt9type_info"
 "_ZN5boost6detail17sp_counted_impl_pINS_10error_infoIN11imagefusion8tag_sizeEN2cv5Size_IiEEEEE19get_untyped_deleterEv"
 "_ZN5boost6detail17sp_counted_impl_pINS_10error_infoIN11imagefusion8tag_sizeEN2cv5Size_IiEEEEE7disposeEv"
 "_ZN5boost6detail17sp_counted_impl_pINS_10error_infoIN11imagefusion8tag_sizeEN2cv5Size_IiEEEEED0Ev"
 "_ZN5boost6detail17sp_counted_impl_pINS_10error_infoIN11imagefusion8tag_sizeEN2cv5Size_IiEEEEED1Ev"
 "_ZN5boost6detail17sp_counted_impl_pINS_10error_infoINS_18errinfo_file_name_ENSt7__cxx1112basic_stringIcSt11char_traitsIcESaIcEEEEEE11get_deleterERKSt9type_info"
 "_ZN5boost6detail17sp_counted_impl_pINS_10error_infoINS_18errinfo_file_name_ENSt7__cxx1112basic_stringIcSt11char_traitsIcESaIcEEEEEE17get_local_deleterERKSt9type_info"
 "_ZN5boost6detail17sp_counted_impl_pINS_10error_infoINS_18errinfo_file_name_ENSt7__cxx1112basic_stringIcSt11char_traitsIcESaIcEEEEEE19get_untyped_deleterEv"
 "_ZN5boost6detail17sp_counted_impl_pINS_10error_infoINS_18errinfo_file_name_ENSt7__cxx1112basic_stringIcSt11char_traitsIcESaIcEEEEEE7disposeEv"
 "_ZN5boost6detail17sp_counted_impl_pINS_10error_infoINS_18errinfo_file_name_ENSt7__cxx1112basic_stringIcSt11char_traitsIcESaIcEEEEEED0Ev"
 "_ZN5boost6detail17sp_counted_impl_pINS_10error_infoINS_18errinfo_file_name_ENSt7__cxx1112basic_stringIcSt11char_traitsIcESaIcEEEEEED1Ev"
 "_ZN5boost6detail17sp_counted_impl_pINS_16exception_detail10clone_implINS2_10bad_alloc_EEEE11get_deleterERKSt9type_info"
 "_ZN5boost6detail17sp_counted_impl_pINS_16exception_detail10clone_implINS2_10bad_alloc_EEEE17get_local_deleterERKSt9type_info"
 "_ZN5boost6detail17sp_counted_impl_pINS_16exception_detail10clone_implINS2_10bad_alloc_EEEE19get_untyped_deleterEv"
 "_ZN5boost6detail17sp_counted_impl_pINS_16exception_detail10clone_implINS2_10bad_alloc_EEEE7disposeEv"
 "_ZN5boost6detail17sp_counted_impl_pINS_16exception_detail10clone_implINS2_10bad_alloc_EEEED0Ev"
 "_ZN5boost6detail17sp_counted_impl_pINS_16exception_detail10clone_implINS2_10bad_alloc_EEEED1Ev"
 "_ZN5boost6detail17sp_counted_impl_pINS_16exception_detail10clone_implINS2_14bad_exception_EEEE11get_deleterERKSt9type_info"
 "_ZN5boost6detail17sp_counted_impl_pINS_16exception_detail10clone_implINS2_14bad_exception_EEEE17get_local_deleterERKSt9type_info"
 "_ZN5boost6detail17sp_counted_impl_pINS_16exception_detail10clone_implINS2_14bad_exception_EEEE19get_untyped_deleterEv"
 "_ZN5boost6detail17sp_counted_impl_pINS_16exception_detail10clone_implINS2_14bad_exception_EEEE7disposeEv"
 "_ZN5boost6detail17sp_counted_impl_pINS_16exception_detail10clone_implINS2_14bad_exception_EEEED0Ev"
 "_ZN5boost6detail17sp_counted_impl_pINS_16exception_detail10clone_implINS2_14bad_exception_EEEED1Ev"
 "_ZN5boost6detail17sp_counted_impl_pINS_16exception_detail15error_info_baseEE11get_deleterERKSt9type_info"
 "_ZN5boost6detail17sp_counted_impl_pINS_16exception_detail15error_info_baseEE17get_local_deleterERKSt9type_info"
 "_ZN5boost6detail17sp_counted_impl_pINS_16exception_detail15error_info_baseEE19get_untyped_deleterEv"
 "_ZN5boost6detail17sp_counted_impl_pINS_16exception_detail15error_info_baseEE7disposeEv"
 "_ZN5boost6detail17sp_counted_impl_pINS_16exception_detail15error_info_baseEED0Ev"
 "_ZN5boost6detail17sp_counted_impl_pINS_16exception_detail15error_info_baseEED1Ev"
 "_ZN5boost9to_stringIN11imagefusion18tag_resolution_tagENSt7__cxx1112basic_stringIcSt11char_traitsIcESaIcEEEEES8_RKNS_10error_infoIT_T0_EE"
 "_ZN5boost9to_stringIN11imagefusion8tag_dateEiEENSt7__cxx1112basic_stringIcSt11char_traitsIcESaIcEEERKNS_10error_infoIT_T0_EE"
 "_ZN5boost9to_stringIN11imagefusion8tag_sizeEN2cv5Size_IiEEEENSt7__cxx1112basic_stringIcSt11char_traitsIcESaIcEEERKNS_10error_infoIT_T0_EE"
 "_ZN5boost9to_stringINS_18errinfo_file_name_ENSt7__cxx1112basic_stringIcSt11char_traitsIcESaIcEEEEES7_RKNS_10error_infoIT_T0_EE"
 "_ZN9__gnu_cxx12__to_xstringINSt7__cxx1112basic_stringIcSt11char_traitsIcESaIcEEEcEET_PFiPT0_yPKS8_PcEySB_z"
 "_ZNK5boost10error_infoIN11imagefusion14tag_image_typeENS1_4TypeEE17name_value_stringB5cxx11Ev"
 "_ZNK5boost10error_infoIN11imagefusion14tag_image_typeENS1_4TypeEE5cloneEv"
 "_ZNK5boost10error_infoIN11imagefusion18tag_resolution_tagENSt7__cxx1112basic_stringIcSt11char_traitsIcESaIcEEEE17name_value_stringEv"
 "_ZNK5boost10error_infoIN11imagefusion18tag_resolution_tagENSt7__cxx1112basic_stringIcSt11char_traitsIcESaIcEEEE5cloneEv"
 "_ZNK5boost10error_infoIN11imagefusion8tag_dateEiE17name_value_stringB5cxx11Ev"
 "_ZNK5boost10error_infoIN11imagefusion8tag_dateEiE5cloneEv"
 "_ZNK5boost10error_infoIN11imagefusion8tag_sizeEN2cv5Size_IiEEE17name_value_stringB5cxx11Ev"
 "_ZNK5boost10error_infoIN11imagefusion8tag_sizeEN2cv5Size_IiEEE5cloneEv"
 "_ZNK5boost10error_infoINS_18errinfo_file_name_ENSt7__cxx1112basic_stringIcSt11char_traitsIcESaIcEEEE17name_value_stringEv"
 "_ZNK5boost10error_infoINS_18errinfo_file_name_ENSt7__cxx1112basic_stringIcSt11char_traitsIcESaIcEEEE5cloneEv"
 "_ZNK5boost16exception_detail10clone_implINS0_10bad_alloc_EE5cloneEv"
 "_ZNK5boost16exception_detail10clone_implINS0_10bad_alloc_EE7rethrowEv"
 "_ZNK5boost16exception_detail10clone_implINS0_14bad_exception_EE5cloneEv"
 "_ZNK5boost16exception_detail10clone_implINS0_14bad_exception_EE7rethrowEv"
 "_ZNK5boost16exception_detail25error_info_container_impl22diagnostic_informationEPKc"
 "_ZNK5boost16exception_detail25error_info_container_impl3getERKNS0_10type_info_E"
 "_ZNK5boost16exception_detail25error_info_container_impl5cloneEv"
 "_ZNK5boost16exception_detail25error_info_container_impl7add_refEv"
 "_ZNK5boost16exception_detail25error_info_container_impl7releaseEv"
 "_ZNKSt7__cxx1112basic_stringIcSt11char_traitsIcESaIcEE7compareEPKc"
 "_ZNKSt7__cxx1112basic_stringIcSt11char_traitsIcESaIcEE7compareERKS4_"
 "_ZNKSt8_Rb_treeIN5boost3icl19continuous_intervalIdSt4lessEES4_St9_IdentityIS4_ENS1_19exclusive_less_thanIS4_EESaIS4_EE4findERKS4_"
 "_ZNSt14_Function_base13_Base_managerIPFN11imagefusion6option9ArgStatusERKNS2_6OptionEEE10_M_managerERSt9_Any_dataRKSA_St18_Manager_operation"
 "_ZNSt17_Function_handlerIFN11imagefusion6option9ArgStatusERKNS1_6OptionEEPS6_E9_M_invokeERKSt9_Any_dataS5_"
 "_ZNSt20__uninitialized_copyILb0EE13__uninit_copyIN9__gnu_cxx17__normal_iteratorIPKN11imagefusion6option10DescriptorESt6vectorIS6_SaIS6_EEEEPS6_EET0_T_SF_SE_"
 "_ZNSt6vectorIN11imagefusion6option10DescriptorESaIS2_EE12emplace_backIJS2_EEERS2_DpOT_"
 "_ZNSt6vectorIN11imagefusion6option10DescriptorESaIS2_EE17_M_realloc_insertIJS2_EEEvN9__gnu_cxx17__normal_iteratorIPS2_S4_EEDpOT_"
 "_ZNSt6vectorIN11imagefusion6option10DescriptorESaIS2_EED1Ev"
 "_ZNSt6vectorIN11imagefusion6option10DescriptorESaIS2_EEaSERKS4_"
 "_ZNSt6vectorIN11imagefusion6option6OptionESaIS2_EED1Ev"
 "_ZNSt6vectorINSt7__cxx1112basic_stringIcSt11char_traitsIcESaIcEEESaIS5_EE17_M_realloc_insertIJS5_EEEvN9__gnu_cxx17__normal_iteratorIPS5_S7_EEDpOT_"
 "_ZNSt6vectorINSt7__cxx1112basic_stringIcSt11char_traitsIcESaIcEEESaIS5_EED1Ev"
 "_ZNSt6vectorIiSaIiEE15_M_range_insertIN9__gnu_cxx17__normal_iteratorIPiS1_EEEEvS6_T_S7_St20forward_iterator_tag"
 "_ZNSt7__cxx1112basic_stringIcSt11char_traitsIcESaIcEE10_M_replaceEyyPKcy"
 "_ZNSt7__cxx1112basic_stringIcSt11char_traitsIcESaIcEE12_M_constructIPKcEEvT_S8_St20forward_iterator_tag"
 "_ZNSt7__cxx1112basic_stringIcSt11char_traitsIcESaIcEE12_M_constructIPcEEvT_S7_St20forward_iterator_tag"
 "_ZNSt7__cxx1112basic_stringIcSt11char_traitsIcESaIcEE14_M_replace_auxEyyyc"
 "_ZNSt7__cxx1112basic_stringIcSt11char_traitsIcESaIcEE9_M_appendEPKcy"
 "_ZNSt7__cxx1112basic_stringIcSt11char_traitsIcESaIcEE9_M_assignERKS4_"
 "_ZNSt7__cxx1112basic_stringIcSt11char_traitsIcESaIcEE9_M_mutateEyyPKcy"
 "_ZNSt7__cxx1115basic_stringbufIcSt11char_traitsIcESaIcEED1Ev"
 "_ZNSt8_Rb_treeIN5boost16exception_detail10type_info_ESt4pairIKS2_NS0_10shared_ptrINS1_15error_info_baseEEEESt10_Select1stIS8_ESt4lessIS2_ESaIS8_EE14_M_insert_nodeEPSt18_Rb_tree_node_baseSG_PSt13_Rb_tree_nodeIS8_E"
 "_ZNSt8_Rb_treeIN5boost16exception_detail10type_info_ESt4pairIKS2_NS0_10shared_ptrINS1_15error_info_baseEEEESt10_Select1stIS8_ESt4lessIS2_ESaIS8_EE24_M_get_insert_unique_posERS4_"
 "_ZNSt8_Rb_treeIN5boost16exception_detail10type_info_ESt4pairIKS2_NS0_10shared_ptrINS1_15error_info_baseEEEESt10_Select1stIS8_ESt4lessIS2_ESaIS8_EE8_M_eraseEPSt13_Rb_tree_nodeIS8_E"
 "_ZNSt8_Rb_treeIN5boost3icl19continuous_intervalIdSt4lessEES4_St9_IdentityIS4_ENS1_19exclusive_less_thanIS4_EESaIS4_EE10_M_insert_IRKS4_NSA_11_Alloc_nodeEEESt17_Rb_tree_iteratorIS4_EPSt18_Rb_tree_node_baseSI_OT_RT0_"
 "_ZNSt8_Rb_treeIN5boost3icl19continuous_intervalIdSt4lessEES4_St9_IdentityIS4_ENS1_19exclusive_less_thanIS4_EESaIS4_EE12_M_erase_auxESt23_Rb_tree_const_iteratorIS4_ESC_"
 "_ZNSt8_Rb_treeIN5boost3icl19continuous_intervalIdSt4lessEES4_St9_IdentityIS4_ENS1_19exclusive_less_thanIS4_EESaIS4_EE16_M_insert_uniqueIRKS4_EESt4pairISt17_Rb_tree_iteratorIS4_EbEOT_"
 "_ZNSt8_Rb_treeIN5boost3icl19continuous_intervalIdSt4lessEES4_St9_IdentityIS4_ENS1_19exclusive_less_thanIS4_EESaIS4_EE24_M_get_insert_unique_posERKS4_"
 "_ZNSt8_Rb_treeIN5boost3icl19continuous_intervalIdSt4lessEES4_St9_IdentityIS4_ENS1_19exclusive_less_thanIS4_EESaIS4_EE29_M_get_insert_hint_unique_posESt23_Rb_tree_const_iteratorIS4_ERKS4_"
 "_ZNSt8_Rb_treeIN5boost3icl19continuous_intervalIdSt4lessEES4_St9_IdentityIS4_ENS1_19exclusive_less_thanIS4_EESaIS4_EE8_M_eraseEPSt13_Rb_tree_nodeIS4_E"
 "_ZNSt8_Rb_treeINSt7__cxx1112basic_stringIcSt11char_traitsIcESaIcEEESt4pairIKS5_St6vectorIN11imagefusion6option6OptionESaISB_EEESt10_Select1stISE_ESt4lessIS5_ESaISE_EE22_M_emplace_hint_uniqueIJRKSt21piecewise_construct_tSt5tupleIJRS7_EESP_IJEEEEESt17_Rb_tree_iteratorISE_ESt23_Rb_tree_const_iteratorISE_EDpOT_"
 "_ZNSt8_Rb_treeINSt7__cxx1112basic_stringIcSt11char_traitsIcESaIcEEESt4pairIKS5_St6vectorIN11imagefusion6option6OptionESaISB_EEESt10_Select1stISE_ESt4lessIS5_ESaISE_EE24_M_get_insert_unique_posERS7_"
 "_ZNSt8_Rb_treeINSt7__cxx1112basic_stringIcSt11char_traitsIcESaIcEEESt4pairIKS5_St6vectorIN11imagefusion6option6OptionESaISB_EEESt10_Select1stISE_ESt4lessIS5_ESaISE_EE8_M_eraseEPSt13_Rb_tree_nodeISE_E"
 "_ZNSt8functionIFN11imagefusion6option9ArgStatusERKNS1_6OptionEEEC1ERKS7_"
 "_ZSt13__adjust_heapIN9__gnu_cxx17__normal_iteratorIPiSt6vectorIiSaIiEEEExiNS0_5__ops15_Iter_less_iterEEvT_T0_SA_T1_T2_"
 "_ZSt16__insertion_sortIN9__gnu_cxx17__normal_iteratorIPiSt6vectorIiSaIiEEEENS0_5__ops15_Iter_less_iterEEvT_S9_T0_"
 "_ZSt16__introsort_loopIN9__gnu_cxx17__normal_iteratorIPiSt6vectorIiSaIiEEEExNS0_5__ops15_Iter_less_iterEEvT_S9_T0_T1_"
 "_ZSt19piecewise_construct"
 "_ZStplIcSt11char_traitsIcESaIcEENSt7__cxx1112basic_stringIT_T0_T1_EEOS8_PKS5_"
 "_ZStplIcSt11char_traitsIcESaIcEENSt7__cxx1112basic_stringIT_T0_T1_EEOS8_RKS8_"
 "_ZStplIcSt11char_traitsIcESaIcEENSt7__cxx1112basic_stringIT_T0_T1_EEOS8_S9_"
 "_ZStplIcSt11char_traitsIcESaIcEENSt7__cxx1112basic_stringIT_T0_T1_EEPKS5_OS8_"
 "_ZStplIcSt11char_traitsIcESaIcEENSt7__cxx1112basic_stringIT_T0_T1_EEPKS5_RKS8_"
 "_ZTCN11imagefusion10size_errorE0_NS_13runtime_errorE"
 "_ZTCN11imagefusion16image_type_errorE0_NS_13runtime_errorE"
 "_ZTCN11imagefusion22invalid_argument_errorE0_NS_13runtime_errorE"
 "_ZTIFN11imagefusion6option9ArgStatusERKNS0_6OptionEE"
 "_ZTIN11imagefusion10ConstImageE"
 "_ZTIN11imagefusion10size_errorE"
 "_ZTIN11imagefusion11logic_errorE"
 "_ZTIN11imagefusion13runtime_errorE"
 "_ZTIN11imagefusion16image_type_errorE"
 "_ZTIN11imagefusion22invalid_argument_errorE"
 "_ZTIN11imagefusion5ImageE"
 "_ZTIN5boost10error_infoIN11imagefusion14tag_image_typeENS1_4TypeEEE"
 "_ZTIN5boost10error_infoIN11imagefusion18tag_resolution_tagENSt7__cxx1112basic_stringIcSt11char_traitsIcESaIcEEEEE"
 "_ZTIN5boost10error_infoIN11imagefusion8tag_dateEiEE"
 "_ZTIN5boost10error_infoIN11imagefusion8tag_sizeEN2cv5Size_IiEEEE"
 "_ZTIN5boost10error_infoINS_18errinfo_file_name_ENSt7__cxx1112basic_stringIcSt11char_traitsIcESaIcEEEEE"
 "_ZTIN5boost16exception_detail10bad_alloc_E"
 "_ZTIN5boost16exception_detail10clone_baseE"
 "_ZTIN5boost16exception_detail10clone_implINS0_10bad_alloc_EEE"
 "_ZTIN5boost16exception_detail10clone_implINS0_14bad_exception_EEE"
 "_ZTIN5boost16exception_detail14bad_exception_E"
 "_ZTIN5boost16exception_detail15error_info_baseE"
 "_ZTIN5boost16exception_detail20error_info_containerE"
 "_ZTIN5boost16exception_detail25error_info_container_implE"
 "_ZTIN5boost6detail15sp_counted_baseE"
 "_ZTIN5boost6detail17sp_counted_impl_pINS_10error_infoIN11imagefusion14tag_image_typeENS3_4TypeEEEEE"
 "_ZTIN5boost6detail17sp_counted_impl_pINS_10error_infoIN11imagefusion18tag_resolution_tagENSt7__cxx1112basic_stringIcSt11char_traitsIcESaIcEEEEEEE"
 "_ZTIN5boost6detail17sp_counted_impl_pINS_10error_infoIN11imagefusion8tag_dateEiEEEE"
 "_ZTIN5boost6detail17sp_counted_impl_pINS_10error_infoIN11imagefusion8tag_sizeEN2cv5Size_IiEEEEEE"
 "_ZTIN5boost6detail17sp_counted_impl_pINS_10error_infoINS_18errinfo_file_name_ENSt7__cxx1112basic_stringIcSt11char_traitsIcESaIcEEEEEEE"
 "_ZTIN5boost6detail17sp_counted_impl_pINS_16exception_detail10clone_implINS2_10bad_alloc_EEEEE"
 "_ZTIN5boost6detail17sp_counted_impl_pINS_16exception_detail10clone_implINS2_14bad_exception_EEEEE"
 "_ZTIN5boost6detail17sp_counted_impl_pINS_16exception_detail15error_info_baseEEE"
 "_ZTIN5boost9exceptionE"
 "_ZTIPFN11imagefusion6option9ArgStatusERKNS0_6OptionEE"
 "_ZTISt11logic_error"
 "_ZTISt12out_of_range"
 "_ZTISt13bad_exception"
 "_ZTISt13runtime_error"
 "_ZTISt9bad_alloc"
 "_ZTISt9exception"
 "_ZTSFN11imagefusion6option9ArgStatusERKNS0_6OptionEE"
 "_ZTSN11imagefusion10ConstImageE"
 "_ZTSN11imagefusion10size_errorE"
 "_ZTSN11imagefusion11logic_errorE"
 "_ZTSN11imagefusion13runtime_errorE"
 "_ZTSN11imagefusion16image_type_errorE"
 "_ZTSN11imagefusion22invalid_argument_errorE"
 "_ZTSN11imagefusion5ImageE"
 "_ZTSN5boost10error_infoIN11imagefusion14tag_image_typeENS1_4TypeEEE"
 "_ZTSN5boost10error_infoIN11imagefusion18tag_resolution_tagENSt7__cxx1112basic_stringIcSt11char_traitsIcESaIcEEEEE"
 "_ZTSN5boost10error_infoIN11imagefusion8tag_dateEiEE"
 "_ZTSN5boost10error_infoIN11imagefusion8tag_sizeEN2cv5Size_IiEEEE"
 "_ZTSN5boost10error_infoINS_18errinfo_file_name_ENSt7__cxx1112basic_stringIcSt11char_traitsIcESaIcEEEEE"
 "_ZTSN5boost16exception_detail10bad_alloc_E"
 "_ZTSN5boost16exception_detail10clone_baseE"
 "_ZTSN5boost16exception_detail10clone_implINS0_10bad_alloc_EEE"
 "_ZTSN5boost16exception_detail10clone_implINS0_14bad_exception_EEE"
 "_ZTSN5boost16exception_detail14bad_exception_E"
 "_ZTSN5boost16exception_detail15error_info_baseE"
 "_ZTSN5boost16exception_detail20error_info_containerE"
 "_ZTSN5boost16exception_detail25error_info_container_implE"
 "_ZTSN5boost6detail15sp_counted_baseE"
 "_ZTSN5boost6detail17sp_counted_impl_pINS_10error_infoIN11imagefusion14tag_image_typeENS3_4TypeEEEEE"
 "_ZTSN5boost6detail17sp_counted_impl_pINS_10error_infoIN11imagefusion18tag_resolution_tagENSt7__cxx1112basic_stringIcSt11char_traitsIcESaIcEEEEEEE"
 "_ZTSN5boost6detail17sp_counted_impl_pINS_10error_infoIN11imagefusion8tag_dateEiEEEE"
 "_ZTSN5boost6detail17sp_counted_impl_pINS_10error_infoIN11imagefusion8tag_sizeEN2cv5Size_IiEEEEEE"
 "_ZTSN5boost6detail17sp_counted_impl_pINS_10error_infoINS_18errinfo_file_name_ENSt7__cxx1112basic_stringIcSt11char_traitsIcESaIcEEEEEEE"
 "_ZTSN5boost6detail17sp_counted_impl_pINS_16exception_detail10clone_implINS2_10bad_alloc_EEEEE"
 "_ZTSN5boost6detail17sp_counted_impl_pINS_16exception_detail10clone_implINS2_14bad_exception_EEEEE"
 "_ZTSN5boost6detail17sp_counted_impl_pINS_16exception_detail15error_info_baseEEE"
 "_ZTSN5boost9exceptionE"
 "_ZTSPFN11imagefusion6option9ArgStatusERKNS0_6OptionEE"
 "_ZTSPN11imagefusion14tag_image_typeE"
 "_ZTSPN11imagefusion18tag_resolution_tagE"
 "_ZTSPN11imagefusion8tag_dateE"
 "_ZTSPN11imagefusion8tag_sizeE"
 "_ZTSPN5boost18errinfo_file_name_E"
 "_ZTSSt11logic_error"
 "_ZTSSt12out_of_range"
 "_ZTSSt13bad_exception"
 "_ZTSSt13runtime_error"
 "_ZTSSt9bad_alloc"
 "_ZTSSt9exception"
 "_ZTTN11imagefusion10size_errorE"
 "_ZTTN11imagefusion11logic_errorE"
 "_ZTTN11imagefusion13runtime_errorE"
 "_ZTTN11imagefusion16image_type_errorE"
 "_ZTTN11imagefusion22invalid_argument_errorE"
 "_ZTTN5boost16exception_detail10clone_implINS0_10bad_alloc_EEE"
 "_ZTTN5boost16exception_detail10clone_implINS0_14bad_exception_EEE"
 "_ZTVN11imagefusion10ConstImageE"
 "_ZTVN11imagefusion10size_errorE"
 "_ZTVN11imagefusion11logic_errorE"
 "_ZTVN11imagefusion13runtime_errorE"
 "_ZTVN11imagefusion16image_type_errorE"
 "_ZTVN11imagefusion22invalid_argument_errorE"
 "_ZTVN11imagefusion5ImageE"
 "_ZTVN5boost10error_infoIN11imagefusion14tag_image_typeENS1_4TypeEEE"
 "_ZTVN5boost10error_infoIN11imagefusion18tag_resolution_tagENSt7__cxx1112basic_stringIcSt11char_traitsIcESaIcEEEEE"
 "_ZTVN5boost10error_infoIN11imagefusion8tag_dateEiEE"
 "_ZTVN5boost10error_infoIN11imagefusion8tag_sizeEN2cv5Size_IiEEEE"
 "_ZTVN5boost10error_infoINS_18errinfo_file_name_ENSt7__cxx1112basic_stringIcSt11char_traitsIcESaIcEEEEE"
 "_ZTVN5boost16exception_detail10bad_alloc_E"
 "_ZTVN5boost16exception_detail10clone_baseE"
 "_ZTVN5boost16exception_detail10clone_implINS0_10bad_alloc_EEE"
 "_ZTVN5boost16exception_detail10clone_implINS0_14bad_exception_EEE"
 "_ZTVN5boost16exception_detail14bad_exception_E"
 "_ZTVN5boost16exception_detail25error_info_container_implE"
 "_ZTVN5boost6detail17sp_counted_impl_pINS_10error_infoIN11imagefusion14tag_image_typeENS3_4TypeEEEEE"
 "_ZTVN5boost6detail17sp_counted_impl_pINS_10error_infoIN11imagefusion18tag_resolution_tagENSt7__cxx1112basic_stringIcSt11char_traitsIcESaIcEEEEEEE"
 "_ZTVN5boost6detail17sp_counted_impl_pINS_10error_infoIN11imagefusion8tag_dateEiEEEE"
 "_ZTVN5boost6detail17sp_counted_impl_pINS_10error_infoIN11imagefusion8tag_sizeEN2cv5Size_IiEEEEEE"
 "_ZTVN5boost6detail17sp_counted_impl_pINS_10error_infoINS_18errinfo_file_name_ENSt7__cxx1112basic_stringIcSt11char_traitsIcESaIcEEEEEEE"
 "_ZTVN5boost6detail17sp_counted_impl_pINS_16exception_detail10clone_implINS2_10bad_alloc_EEEEE"
 "_ZTVN5boost6detail17sp_counted_impl_pINS_16exception_detail10clone_implINS2_14bad_exception_EEEEE"
 "_ZTVN5boost6detail17sp_counted_impl_pINS_16exception_detail15error_info_baseEEE"
 "_ZTVN5boost9exceptionE"
 "_ZThn40_N5boost16exception_detail10bad_alloc_D0Ev"
 "_ZThn40_N5boost16exception_detail10bad_alloc_D1Ev"
 "_ZThn40_N5boost16exception_detail10clone_implINS0_10bad_alloc_EED0Ev"
 "_ZThn40_N5boost16exception_detail10clone_implINS0_10bad_alloc_EED1Ev"
 "_ZThn40_N5boost16exception_detail10clone_implINS0_14bad_exception_EED0Ev"
 "_ZThn40_N5boost16exception_detail10clone_implINS0_14bad_exception_EED1Ev"
 "_ZThn40_N5boost16exception_detail14bad_exception_D0Ev"
 "_ZThn40_N5boost16exception_detail14bad_exception_D1Ev"
 "_ZTv0_n24_N11imagefusion10size_errorD0Ev"
 "_ZTv0_n24_N11imagefusion10size_errorD1Ev"
 "_ZTv0_n24_N11imagefusion11logic_errorD0Ev"
 "_ZTv0_n24_N11imagefusion11logic_errorD1Ev"
 "_ZTv0_n24_N11imagefusion13runtime_errorD0Ev"
 "_ZTv0_n24_N11imagefusion13runtime_errorD1Ev"
 "_ZTv0_n24_N11imagefusion16image_type_errorD0Ev"
 "_ZTv0_n24_N11imagefusion16image_type_errorD1Ev"
 "_ZTv0_n24_N11imagefusion22invalid_argument_errorD0Ev"
 "_ZTv0_n24_N11imagefusion22invalid_argument_errorD1Ev"
 "_ZTv0_n24_NK5boost16exception_detail10clone_implINS0_10bad_alloc_EE5cloneEv"
 "_ZTv0_n24_NK5boost16exception_detail10clone_implINS0_14bad_exception_EE5cloneEv"
 "_ZTv0_n32_NK5boost16exception_detail10clone_implINS0_10bad_alloc_EE7rethrowEv"
 "_ZTv0_n32_NK5boost16exception_detail10clone_implINS0_14bad_exception_EE7rethrowEv"
 "_ZTv0_n40_N11imagefusion10size_errorD0Ev"
 "_ZTv0_n40_N11imagefusion10size_errorD1Ev"
 "_ZTv0_n40_N11imagefusion16image_type_errorD0Ev"
 "_ZTv0_n40_N11imagefusion16image_type_errorD1Ev"
 "_ZTv0_n40_N11imagefusion22invalid_argument_errorD0Ev"
 "_ZTv0_n40_N11imagefusion22invalid_argument_errorD1Ev"
 "_ZTv0_n40_N5boost16exception_detail10clone_implINS0_10bad_alloc_EED0Ev"
 "_ZTv0_n40_N5boost16exception_detail10clone_implINS0_10bad_alloc_EED1Ev"
 "_ZTv0_n40_N5boost16exception_detail10clone_implINS0_14bad_exception_EED0Ev"
 "_ZTv0_n40_N5boost16exception_detail10clone_implINS0_14bad_exception_EED1Ev"
 "_ZZN5boost16exception_detail27get_static_exception_objectINS0_10bad_alloc_EEENS_13exception_ptrEvE2ep"
 "_ZZN5boost16exception_detail27get_static_exception_objectINS0_14bad_exception_EEENS_13exception_ptrEvE2ep"
 "_ZZN5boost3icl16identity_elementIdE5valueEvE6_value"
 "usageQL"
 "usageQLText"
